
c:/Users/mauri/Documents/IoTc2/Capstone-Deep-Dive-Coding/Modular_WorkspaceV2/target/1.5.2/argon/Modular_WorkspaceV2.elf:     file format elf32-littlearm

Sections:
Idx Name          Size      VMA       LMA       File off  Algn
  0 .module_info  00000018  000d4000  000d4000  00004000  2**2
                  CONTENTS, ALLOC, LOAD, READONLY, DATA
  1 .dynalib      00000004  000d4018  000d4018  00004018  2**2
                  CONTENTS, ALLOC, LOAD, READONLY, DATA
  2 .text         00006be4  000d401c  000d401c  0000401c  2**2
                  CONTENTS, ALLOC, LOAD, READONLY, CODE
  3 .backup       00000004  2003f400  000dac00  0000f400  2**2
                  CONTENTS, ALLOC, LOAD, DATA
  4 .data         000000bc  2003dc1c  000dac04  0001dc1c  2**2
                  CONTENTS, ALLOC, LOAD, DATA
  5 .bss          00000b18  2003dcd8  2003dcd8  0002dcd8  2**2
                  ALLOC
  6 .module_info_suffix 00000028  000dacc0  000dacc0  0002acc0  2**0
                  CONTENTS, ALLOC, LOAD, READONLY, DATA
  7 .module_info_crc 00000004  000dace8  000dace8  0002ace8  2**0
                  CONTENTS, ALLOC, LOAD, READONLY, DATA
  8 .debug_info   001ceb04  00000000  00000000  0002acec  2**0
                  CONTENTS, READONLY, DEBUGGING
  9 .debug_abbrev 00024bf0  00000000  00000000  001f97f0  2**0
                  CONTENTS, READONLY, DEBUGGING
 10 .debug_loc    00033083  00000000  00000000  0021e3e0  2**0
                  CONTENTS, READONLY, DEBUGGING
 11 .debug_aranges 000038f0  00000000  00000000  00251463  2**0
                  CONTENTS, READONLY, DEBUGGING
 12 .debug_ranges 00006920  00000000  00000000  00254d53  2**0
                  CONTENTS, READONLY, DEBUGGING
 13 .debug_macro  000568e0  00000000  00000000  0025b673  2**0
                  CONTENTS, READONLY, DEBUGGING
 14 .debug_line   00064bf4  00000000  00000000  002b1f53  2**0
                  CONTENTS, READONLY, DEBUGGING
 15 .debug_str    001148a2  00000000  00000000  00316b47  2**0
                  CONTENTS, READONLY, DEBUGGING
 16 .debug_frame  00010948  00000000  00000000  0042b3ec  2**2
                  CONTENTS, READONLY, DEBUGGING

Disassembly of section .text:

000d401c <module_user_pre_init>:
/**
 * Initializes this user module. Returns the start of the heap.
 */
void* module_user_pre_init() {

    if ( (&link_global_data_start!=&link_global_data_initial_values) && (link_global_data_size != 0))
   d401c:	4809      	ldr	r0, [pc, #36]	; (d4044 <link_dynalib_end+0x28>)
   d401e:	490a      	ldr	r1, [pc, #40]	; (d4048 <link_dynalib_end+0x2c>)
   d4020:	4288      	cmp	r0, r1
extern constructor_ptr_t link_constructors_end;

/**
 * Initializes this user module. Returns the start of the heap.
 */
void* module_user_pre_init() {
   d4022:	b508      	push	{r3, lr}

    if ( (&link_global_data_start!=&link_global_data_initial_values) && (link_global_data_size != 0))
   d4024:	d005      	beq.n	d4032 <module_user_pre_init+0x16>
   d4026:	4a09      	ldr	r2, [pc, #36]	; (d404c <link_dynalib_end+0x30>)
   d4028:	4282      	cmp	r2, r0
   d402a:	d002      	beq.n	d4032 <module_user_pre_init+0x16>
    {
        memcpy(&link_global_data_start, &link_global_data_initial_values, link_global_data_size);
   d402c:	1a12      	subs	r2, r2, r0
   d402e:	f005 fbea 	bl	d9806 <memcpy>
    }

    memset(&link_bss_location, 0, link_bss_size );
   d4032:	4807      	ldr	r0, [pc, #28]	; (d4050 <link_dynalib_end+0x34>)
   d4034:	4a07      	ldr	r2, [pc, #28]	; (d4054 <link_dynalib_end+0x38>)
   d4036:	2100      	movs	r1, #0
   d4038:	1a12      	subs	r2, r2, r0
   d403a:	f005 fbef 	bl	d981c <memset>
    return &link_global_data_start;
}
   d403e:	4801      	ldr	r0, [pc, #4]	; (d4044 <link_dynalib_end+0x28>)
   d4040:	bd08      	pop	{r3, pc}
   d4042:	bf00      	nop
   d4044:	2003dc1c 	.word	0x2003dc1c
   d4048:	000dac04 	.word	0x000dac04
   d404c:	2003dcd8 	.word	0x2003dcd8
   d4050:	2003dcd8 	.word	0x2003dcd8
   d4054:	2003e7f0 	.word	0x2003e7f0

000d4058 <module_user_init>:
extern constructor_ptr_t link_constructors_location[];
extern constructor_ptr_t link_constructors_end;
#define link_constructors_size   ((unsigned long)&link_constructors_end  -  (unsigned long)&link_constructors_location )

void module_user_init()
{
   d4058:	b570      	push	{r4, r5, r6, lr}
    module_user_init_hook();
   d405a:	f003 ffbd 	bl	d7fd8 <module_user_init_hook>
   d405e:	4c07      	ldr	r4, [pc, #28]	; (d407c <module_user_init+0x24>)
   d4060:	4b07      	ldr	r3, [pc, #28]	; (d4080 <module_user_init+0x28>)
   d4062:	1ae4      	subs	r4, r4, r3
   d4064:	08a4      	lsrs	r4, r4, #2

    // invoke constructors
    int ctor_num;
    for (ctor_num=0; ctor_num < link_constructors_size/sizeof(constructor_ptr_t); ctor_num++ )
   d4066:	2500      	movs	r5, #0
   d4068:	461e      	mov	r6, r3
   d406a:	42a5      	cmp	r5, r4
   d406c:	d004      	beq.n	d4078 <module_user_init+0x20>
    {
        link_constructors_location[ctor_num]();
   d406e:	f856 3025 	ldr.w	r3, [r6, r5, lsl #2]
   d4072:	4798      	blx	r3
{
    module_user_init_hook();

    // invoke constructors
    int ctor_num;
    for (ctor_num=0; ctor_num < link_constructors_size/sizeof(constructor_ptr_t); ctor_num++ )
   d4074:	3501      	adds	r5, #1
   d4076:	e7f8      	b.n	d406a <module_user_init+0x12>
    {
        link_constructors_location[ctor_num]();
    }
}
   d4078:	bd70      	pop	{r4, r5, r6, pc}
   d407a:	bf00      	nop
   d407c:	000dac00 	.word	0x000dac00
   d4080:	000dab68 	.word	0x000dab68

000d4084 <module_user_setup>:

/**
 * Export these functions with a fuller name so they don't clash with the setup/loop wrappers in the system module.
 */
void module_user_setup() {
    setup();
   d4084:	f000 b902 	b.w	d428c <setup>

000d4088 <module_user_loop>:
}

void module_user_loop() {
   d4088:	b508      	push	{r3, lr}
    loop();
   d408a:	f000 fc2d 	bl	d48e8 <loop>
    _post_loop();
}
   d408e:	e8bd 4008 	ldmia.w	sp!, {r3, lr}
    setup();
}

void module_user_loop() {
    loop();
    _post_loop();
   d4092:	f003 bf63 	b.w	d7f5c <_post_loop>

000d4096 <_Znwj>:
   d4096:	f003 bbc1 	b.w	d781c <malloc>

000d409a <_ZdlPv>:
   d409a:	f003 bbc7 	b.w	d782c <free>

000d409e <_ZdaPv>:
	free(p);
}

void operator delete[](void *p)
{
	free(p);
   d409e:	f003 bbc5 	b.w	d782c <free>
	...

000d40a4 <__cxa_pure_virtual>:
char* strerror(int errnum) {
    return (char*)"";
}

/* Default implementation for call made to pure virtual function. */
void __cxa_pure_virtual() {
   d40a4:	b508      	push	{r3, lr}
  PANIC(PureVirtualCall,"Call on pure virtual");
   d40a6:	4a03      	ldr	r2, [pc, #12]	; (d40b4 <__cxa_pure_virtual+0x10>)
   d40a8:	2100      	movs	r1, #0
   d40aa:	200c      	movs	r0, #12
   d40ac:	f003 fafa 	bl	d76a4 <panic_>
   d40b0:	e7fe      	b.n	d40b0 <__cxa_pure_virtual+0xc>
   d40b2:	bf00      	nop
   d40b4:	000d73c5 	.word	0x000d73c5

000d40b8 <__cxa_guard_acquire>:

/* Provide default implemenation for __cxa_guard_acquire() and
 * __cxa_guard_release(). Note: these must be revisited if a multitasking
 * OS is ported to this platform. */
__extension__ typedef int __guard __attribute__((mode (__DI__)));
int __cxa_guard_acquire(__guard *g) {return !*(char *)(g);};
   d40b8:	7800      	ldrb	r0, [r0, #0]
   d40ba:	fab0 f080 	clz	r0, r0
   d40be:	0940      	lsrs	r0, r0, #5
   d40c0:	4770      	bx	lr

000d40c2 <__cxa_guard_release>:
void __cxa_guard_release (__guard *g) {*(char *)g = 1;};
   d40c2:	2301      	movs	r3, #1
   d40c4:	7003      	strb	r3, [r0, #0]
   d40c6:	4770      	bx	lr

000d40c8 <_ZN4File9availableEv>:
  void setpos(FatPos_t* pos);
  /** \return The number of bytes available from the current position
   * to EOF for normal files.  Zero is returned for directory files.
   */
  uint32_t available() {
    return isFile() ? fileSize() - curPosition() : 0;
   d40c8:	7c03      	ldrb	r3, [r0, #16]
   d40ca:	f003 0308 	and.w	r3, r3, #8
    return isOpen();
  }
  /** \return number of bytes available from the current position to EOF
   *   or INT_MAX if more than INT_MAX bytes are available.
   */
  int available() {
   d40ce:	4602      	mov	r2, r0
   d40d0:	f003 00ff 	and.w	r0, r3, #255	; 0xff
   d40d4:	b12b      	cbz	r3, d40e2 <_ZN4File9availableEv+0x1a>
   d40d6:	6ad3      	ldr	r3, [r2, #44]	; 0x2c
   d40d8:	6a50      	ldr	r0, [r2, #36]	; 0x24
    uint32_t n = FatFile::available();
    return n > INT_MAX ? INT_MAX : n;
   d40da:	1a18      	subs	r0, r3, r0
   d40dc:	bf48      	it	mi
   d40de:	f06f 4000 	mvnmi.w	r0, #2147483648	; 0x80000000
  }
   d40e2:	4770      	bx	lr

000d40e4 <_Z12enableButtonv>:
  TimeOnly.toCharArray(currentTime,9);
}

void enableButton() //ISR for switching the neopixels on or off
{
  pixelState = !pixelState;
   d40e4:	4a02      	ldr	r2, [pc, #8]	; (d40f0 <_Z12enableButtonv+0xc>)
   d40e6:	7813      	ldrb	r3, [r2, #0]
   d40e8:	f083 0301 	eor.w	r3, r3, #1
   d40ec:	7013      	strb	r3, [r2, #0]
   d40ee:	4770      	bx	lr
   d40f0:	2003e34c 	.word	0x2003e34c

000d40f4 <_ZN4FileD1Ev>:
//==============================================================================
/**
 * \class File
 * \brief Arduino SD.h style File API
 */
class File : public FatFile, public Stream {
   d40f4:	4770      	bx	lr

000d40f6 <_ZN19Adafruit_MQTT_SPARKD1Ev>:


// MQTT client implementation for a generic Arduino Client interface.  Can work
// with almost all Arduino network hardware like ethernet shield, wifi shield,
// and even other platforms like ESP8266.
class Adafruit_MQTT_SPARK : public Adafruit_MQTT {
   d40f6:	4770      	bx	lr

000d40f8 <_ZNK8particle13__SPISettings7printToER5Print>:
  bool operator!=(const __SPISettings& other) const
  {
    return !(other == *this);
  }

  virtual size_t printTo(Print& p) const
   d40f8:	b57f      	push	{r0, r1, r2, r3, r4, r5, r6, lr}
   d40fa:	4602      	mov	r2, r0
   d40fc:	4608      	mov	r0, r1
  {
    if (default_ && clock_ == 0)
   d40fe:	7913      	ldrb	r3, [r2, #4]
   d4100:	6895      	ldr	r5, [r2, #8]
   d4102:	b133      	cbz	r3, d4112 <_ZNK8particle13__SPISettings7printToER5Print+0x1a>
   d4104:	b93d      	cbnz	r5, d4116 <_ZNK8particle13__SPISettings7printToER5Print+0x1e>
      return p.print("<SPISettings default>");
   d4106:	490c      	ldr	r1, [pc, #48]	; (d4138 <_ZNK8particle13__SPISettings7printToER5Print+0x40>)
    else
      return p.printf("<SPISettings %s%lu %s MODE%d>", default_ ? "default " : "", clock_, bitOrder_ == MSBFIRST ? "MSB" : "LSB", dataMode_);
  }
   d4108:	b004      	add	sp, #16
   d410a:	e8bd 4070 	ldmia.w	sp!, {r4, r5, r6, lr}
  }

  virtual size_t printTo(Print& p) const
  {
    if (default_ && clock_ == 0)
      return p.print("<SPISettings default>");
   d410e:	f003 bddd 	b.w	d7ccc <_ZN5Print5printEPKc>
    else
      return p.printf("<SPISettings %s%lu %s MODE%d>", default_ ? "default " : "", clock_, bitOrder_ == MSBFIRST ? "MSB" : "LSB", dataMode_);
   d4112:	4b0a      	ldr	r3, [pc, #40]	; (d413c <_ZNK8particle13__SPISettings7printToER5Print+0x44>)
   d4114:	e000      	b.n	d4118 <_ZNK8particle13__SPISettings7printToER5Print+0x20>
   d4116:	4b0a      	ldr	r3, [pc, #40]	; (d4140 <_ZNK8particle13__SPISettings7printToER5Print+0x48>)
   d4118:	7b16      	ldrb	r6, [r2, #12]
   d411a:	4c0a      	ldr	r4, [pc, #40]	; (d4144 <_ZNK8particle13__SPISettings7printToER5Print+0x4c>)
   d411c:	490a      	ldr	r1, [pc, #40]	; (d4148 <_ZNK8particle13__SPISettings7printToER5Print+0x50>)
    size_t println(const __FlashStringHelper*);

    template <typename... Args>
    inline size_t printf(const char* format, Args... args)
    {
        return this->printf_impl(false, format, args...);
   d411e:	7b52      	ldrb	r2, [r2, #13]
   d4120:	9202      	str	r2, [sp, #8]
   d4122:	2e01      	cmp	r6, #1
   d4124:	bf08      	it	eq
   d4126:	4621      	moveq	r1, r4
   d4128:	9101      	str	r1, [sp, #4]
   d412a:	9500      	str	r5, [sp, #0]
   d412c:	4a07      	ldr	r2, [pc, #28]	; (d414c <_ZNK8particle13__SPISettings7printToER5Print+0x54>)
   d412e:	2100      	movs	r1, #0
   d4130:	f003 fe09 	bl	d7d46 <_ZN5Print11printf_implEbPKcz>
  }
   d4134:	b004      	add	sp, #16
   d4136:	bd70      	pop	{r4, r5, r6, pc}
   d4138:	000da097 	.word	0x000da097
   d413c:	000da435 	.word	0x000da435
   d4140:	000da086 	.word	0x000da086
   d4144:	000da08f 	.word	0x000da08f
   d4148:	000da093 	.word	0x000da093
   d414c:	000da0ad 	.word	0x000da0ad

000d4150 <_ZN4File5writeEPKhj>:
   * include write() is called before a file has been opened, write is called
   * for a read-only file, device is full, a corrupt file system or an
   * I/O error.
   */
  size_t write(const uint8_t *buf, size_t size) {
    return FatFile::write(buf, size);
   d4150:	3010      	adds	r0, #16
   d4152:	f002 baf7 	b.w	d6744 <_ZN7FatFile5writeEPKvj>

000d4156 <_ZN4File5flushEv>:
    uint32_t n = FatFile::available();
    return n > INT_MAX ? INT_MAX : n;
  }
  /** Ensure that any bytes written to the file are saved to the SD card. */
  void flush() {
    FatFile::sync();
   d4156:	3010      	adds	r0, #16
   d4158:	f002 ba68 	b.w	d662c <_ZN7FatFile4syncEv>

000d415c <_ZN4File4peekEv>:
  /** Return the next available byte without consuming it.
   *
   * \return The byte if no error and not at eof else -1;
   */
  int peek() {
    return FatFile::peek();
   d415c:	3010      	adds	r0, #16
   d415e:	f002 b97d 	b.w	d645c <_ZN7FatFile4peekEv>

000d4162 <_ZN4File4readEv>:
  /** Read the next byte from a file.
   *
   * \return For success return the next byte in the file as an int.
   * If an error occurs or end of file is reached return -1.
   */
  int read() {
   d4162:	b507      	push	{r0, r1, r2, lr}
   * \return For success read returns the next byte in the file as an int.
   * If an error occurs or end of file is reached -1 is returned.
   */
  int read() {
    uint8_t b;
    return read(&b, 1) == 1 ? b : -1;
   d4164:	2201      	movs	r2, #1
   d4166:	f10d 0107 	add.w	r1, sp, #7
   d416a:	3010      	adds	r0, #16
   d416c:	f002 f8c3 	bl	d62f6 <_ZN7FatFile4readEPvj>
   d4170:	2801      	cmp	r0, #1
   d4172:	bf0c      	ite	eq
   d4174:	f89d 0007 	ldrbeq.w	r0, [sp, #7]
   d4178:	f04f 30ff 	movne.w	r0, #4294967295
    return FatFile::read();
  }
   d417c:	b003      	add	sp, #12
   d417e:	f85d fb04 	ldr.w	pc, [sp], #4

000d4182 <_ZN4FileD0Ev>:
//==============================================================================
/**
 * \class File
 * \brief Arduino SD.h style File API
 */
class File : public FatFile, public Stream {
   d4182:	b510      	push	{r4, lr}
   d4184:	2134      	movs	r1, #52	; 0x34
   d4186:	4604      	mov	r4, r0
   d4188:	f004 fed8 	bl	d8f3c <_ZdlPvj>
   d418c:	4620      	mov	r0, r4
   d418e:	bd10      	pop	{r4, pc}

000d4190 <_ZN10CloudClass12syncTimeDoneEv.isra.3>:
    bool syncTimePending(void)
    {
        return connected() && spark_sync_time_pending(nullptr);
    }

    bool syncTimeDone(void)
   d4190:	b508      	push	{r3, lr}
    {
        return !spark_sync_time_pending(nullptr) || disconnected();
   d4192:	2000      	movs	r0, #0
   d4194:	f003 fb32 	bl	d77fc <spark_sync_time_pending>
   d4198:	b128      	cbz	r0, d41a6 <_ZN10CloudClass12syncTimeDoneEv.isra.3+0x16>
    static void sleep(Spark_Sleep_TypeDef sleepMode, long seconds=0) __attribute__ ((deprecated("Please use System.sleep() instead.")))
    { SystemClass::sleep(sleepMode, seconds); }
    static void sleep(uint16_t wakeUpPin, InterruptMode edgeTriggerMode, long seconds=0) __attribute__ ((deprecated("Please use System.sleep() instead.")))
    { SystemClass::sleep(wakeUpPin, edgeTriggerMode, seconds); }

    static bool connected(void) { return spark_cloud_flag_connected(); }
   d419a:	f003 fb1f 	bl	d77dc <spark_cloud_flag_connected>
        return connected() && spark_sync_time_pending(nullptr);
    }

    bool syncTimeDone(void)
    {
        return !spark_sync_time_pending(nullptr) || disconnected();
   d419e:	f080 0001 	eor.w	r0, r0, #1
   d41a2:	b2c0      	uxtb	r0, r0
   d41a4:	bd08      	pop	{r3, pc}
   d41a6:	2001      	movs	r0, #1
    }
   d41a8:	bd08      	pop	{r3, pc}
	...

000d41ac <_ZN9TCPClientD1Ev>:
class TCPClient : public Client {

public:
    TCPClient();
    TCPClient(sock_handle_t sock);
    virtual ~TCPClient() {};
   d41ac:	b538      	push	{r3, r4, r5, lr}
      // Does not throw if __r._M_get_use_count() == 0, caller must check.
      explicit __shared_count(const __weak_count<_Lp>& __r, std::nothrow_t);

      ~__shared_count() noexcept
      {
	if (_M_pi != nullptr)
   d41ae:	6984      	ldr	r4, [r0, #24]
   d41b0:	4b0a      	ldr	r3, [pc, #40]	; (d41dc <_ZN9TCPClientD1Ev+0x30>)
   d41b2:	6003      	str	r3, [r0, #0]
   d41b4:	4605      	mov	r5, r0
   d41b6:	b17c      	cbz	r4, d41d8 <_ZN9TCPClientD1Ev+0x2c>

  template<>
    inline void
    _Sp_counted_base<_S_single>::_M_release() noexcept
    {
      if (--_M_use_count == 0)
   d41b8:	6863      	ldr	r3, [r4, #4]
   d41ba:	3b01      	subs	r3, #1
   d41bc:	6063      	str	r3, [r4, #4]
   d41be:	b95b      	cbnz	r3, d41d8 <_ZN9TCPClientD1Ev+0x2c>
        {
          _M_dispose();
   d41c0:	6823      	ldr	r3, [r4, #0]
   d41c2:	4620      	mov	r0, r4
   d41c4:	689b      	ldr	r3, [r3, #8]
   d41c6:	4798      	blx	r3
          if (--_M_weak_count == 0)
   d41c8:	68a3      	ldr	r3, [r4, #8]
   d41ca:	3b01      	subs	r3, #1
   d41cc:	60a3      	str	r3, [r4, #8]
   d41ce:	b91b      	cbnz	r3, d41d8 <_ZN9TCPClientD1Ev+0x2c>
            _M_destroy();
   d41d0:	6823      	ldr	r3, [r4, #0]
   d41d2:	4620      	mov	r0, r4
   d41d4:	68db      	ldr	r3, [r3, #12]
   d41d6:	4798      	blx	r3
   d41d8:	4628      	mov	r0, r5
   d41da:	bd38      	pop	{r3, r4, r5, pc}
   d41dc:	000da848 	.word	0x000da848

000d41e0 <_ZN4File5writeEh>:
  /** Write a byte to a file. Required by the Arduino Print class.
   * \param[in] b the byte to be written.
   * Use getWriteError to check for errors.
   * \return 1 for success and 0 for failure.
   */
  size_t write(uint8_t b) {
   d41e0:	b507      	push	{r0, r1, r2, lr}
   d41e2:	ab02      	add	r3, sp, #8
  /** Write a single byte.
   * \param[in] b The byte to be written.
   * \return +1 for success or -1 for failure.
   */
  int write(uint8_t b) {
    return write(&b, 1);
   d41e4:	2201      	movs	r2, #1
   d41e6:	f803 1d01 	strb.w	r1, [r3, #-1]!
   d41ea:	3010      	adds	r0, #16
   d41ec:	4619      	mov	r1, r3
   d41ee:	f002 faa9 	bl	d6744 <_ZN7FatFile5writeEPKvj>
    return FatFile::write(b);
  }
   d41f2:	b003      	add	sp, #12
   d41f4:	f85d fb04 	ldr.w	pc, [sp], #4

000d41f8 <_ZN9TCPClientD0Ev>:
   d41f8:	b510      	push	{r4, lr}
   d41fa:	4604      	mov	r4, r0
   d41fc:	f7ff ffd6 	bl	d41ac <_ZN9TCPClientD1Ev>
   d4200:	4620      	mov	r0, r4
   d4202:	211c      	movs	r1, #28
   d4204:	f004 fe9a 	bl	d8f3c <_ZdlPvj>
   d4208:	4620      	mov	r0, r4
   d420a:	bd10      	pop	{r4, pc}

000d420c <_ZN5SdFat5beginEhN8particle13__SPISettingsE>:
   *
   * \param[in] csPin SD card chip select pin.
   * \param[in] spiSettings SPI speed, mode, and bit order.
   * \return true for success else false.
   */
  bool begin(uint8_t csPin = SS, SPISettings spiSettings = SPI_FULL_SPEED) {
   d420c:	b530      	push	{r4, r5, lr}
   d420e:	b085      	sub	sp, #20
    SPI_CLK_ARDUINO = 16*MHZ,
    SPI_CLK_PHOTON = 60*MHZ
};

namespace particle {
class __SPISettings : public Printable {
   d4210:	4b1c      	ldr	r3, [pc, #112]	; (d4284 <_ZN5SdFat5beginEhN8particle13__SPISettingsE+0x78>)
   d4212:	9300      	str	r3, [sp, #0]
   d4214:	7913      	ldrb	r3, [r2, #4]
   d4216:	f88d 3004 	strb.w	r3, [sp, #4]
   d421a:	6893      	ldr	r3, [r2, #8]
   d421c:	9302      	str	r3, [sp, #8]
   d421e:	7b13      	ldrb	r3, [r2, #12]
   d4220:	f88d 300c 	strb.w	r3, [sp, #12]
    return m_card.begin(&m_spi, csPin, spiSettings) &&
   d4224:	f500 658c 	add.w	r5, r0, #1120	; 0x460
   d4228:	7b53      	ldrb	r3, [r2, #13]
   d422a:	f88d 300d 	strb.w	r3, [sp, #13]
   *
   * \param[in] csPin SD card chip select pin.
   * \param[in] spiSettings SPI speed, mode, and bit order.
   * \return true for success else false.
   */
  bool begin(uint8_t csPin = SS, SPISettings spiSettings = SPI_FULL_SPEED) {
   d422e:	4604      	mov	r4, r0
    return m_card.begin(&m_spi, csPin, spiSettings) &&
   d4230:	460a      	mov	r2, r1
   d4232:	466b      	mov	r3, sp
   d4234:	f200 416c 	addw	r1, r0, #1132	; 0x46c
   d4238:	4628      	mov	r0, r5
   d423a:	f002 fdcb 	bl	d6dd4 <_ZN9SdSpiCard5beginEP14SdSpiAltDriverhN8particle13__SPISettingsE>
   d423e:	b1f0      	cbz	r0, d427e <_ZN5SdFat5beginEhN8particle13__SPISettingsE+0x72>
   * \param[in] part partition to initialize.
   * \return The value true is returned for success and
   * the value false is returned for failure.
   */
  bool begin(BlockDriver* blockDev, uint8_t part = 0) {
    m_blockDev = blockDev;
   d4240:	6025      	str	r5, [r4, #0]
  FatVolume* vol() {
    return this;
  }
  /** \return a pointer to the volume working directory. */
  FatFile* vwd() {
    return &m_vwd;
   d4242:	f204 453c 	addw	r5, r4, #1084	; 0x43c
   * \return The value true is returned for success and
   * the value false is returned for failure.
   */
  bool begin(BlockDriver* blockDev, uint8_t part = 0) {
    m_blockDev = blockDev;
    vwd()->close();
   d4246:	4628      	mov	r0, r5
   d4248:	f002 fa26 	bl	d6698 <_ZN7FatFile5closeEv>
    return (part ? init(part) : init(1) || init(0))
   d424c:	2101      	movs	r1, #1
   d424e:	4620      	mov	r0, r4
   d4250:	f002 fc69 	bl	d6b26 <_ZN9FatVolume4initEh>
            && vwd()->openRoot(this) && FatFile::setCwd(vwd());
   d4254:	4601      	mov	r1, r0
   d4256:	b168      	cbz	r0, d4274 <_ZN5SdFat5beginEhN8particle13__SPISettingsE+0x68>
   d4258:	4621      	mov	r1, r4
   d425a:	4628      	mov	r0, r5
   d425c:	f002 f833 	bl	d62c6 <_ZN7FatFile8openRootEP9FatVolume>
   d4260:	b168      	cbz	r0, d427e <_ZN5SdFat5beginEhN8particle13__SPISettingsE+0x72>
   * \param[in] dir New current working directory.
   *
   * \return true for success else false.
   */
  static bool setCwd(FatFile* dir) {
    if (!dir->isDir()) {
   d4262:	f894 343c 	ldrb.w	r3, [r4, #1084]	; 0x43c
   d4266:	f013 0370 	ands.w	r3, r3, #112	; 0x70
      return false;
    }
    m_cwd = dir;
   d426a:	bf16      	itet	ne
   d426c:	4b06      	ldrne	r3, [pc, #24]	; (d4288 <_ZN5SdFat5beginEhN8particle13__SPISettingsE+0x7c>)
   d426e:	4618      	moveq	r0, r3
   d4270:	601d      	strne	r5, [r3, #0]
   d4272:	e005      	b.n	d4280 <_ZN5SdFat5beginEhN8particle13__SPISettingsE+0x74>
   * the value false is returned for failure.
   */
  bool begin(BlockDriver* blockDev, uint8_t part = 0) {
    m_blockDev = blockDev;
    vwd()->close();
    return (part ? init(part) : init(1) || init(0))
   d4274:	4620      	mov	r0, r4
   d4276:	f002 fc56 	bl	d6b26 <_ZN9FatVolume4initEh>
   d427a:	2800      	cmp	r0, #0
   d427c:	d1ec      	bne.n	d4258 <_ZN5SdFat5beginEhN8particle13__SPISettingsE+0x4c>
   d427e:	2000      	movs	r0, #0
           SdFileSystem::begin();
  }
   d4280:	b005      	add	sp, #20
   d4282:	bd30      	pop	{r4, r5, pc}
   d4284:	000da050 	.word	0x000da050
   d4288:	2003e39c 	.word	0x2003e39c

000d428c <setup>:
int MQval;

/*    for syncing particle clock      */
char currentDateTime[25], currentTime[9];

void setup() {
   d428c:	b570      	push	{r4, r5, r6, lr}
   d428e:	b086      	sub	sp, #24
  Serial.begin(9600);
   d4290:	f003 ffb8 	bl	d8204 <_Z16_fetch_usbserialv>
   d4294:	f44f 5116 	mov.w	r1, #9600	; 0x2580
   d4298:	f003 ffa8 	bl	d81ec <_ZN9USBSerial5beginEl>
  delay(100);
   d429c:	2064      	movs	r0, #100	; 0x64
   d429e:	f003 fe1f 	bl	d7ee0 <delay>
  Serial1.begin(9600); // for using with the DFRobot player
   d42a2:	f004 f861 	bl	d8368 <_Z22__fetch_global_Serial1v>
   d42a6:	f44f 5116 	mov.w	r1, #9600	; 0x2580
   d42aa:	f004 f857 	bl	d835c <_ZN11USARTSerial5beginEm>
  delay(100); // waiting for serial monitor to initialize 
   d42ae:	2064      	movs	r0, #100	; 0x64
   d42b0:	f003 fe16 	bl	d7ee0 <delay>
  Wire.begin();
   d42b4:	f004 fe0e 	bl	d8ed4 <_Z19__fetch_global_Wirev>
   d42b8:	f004 f8ba 	bl	d8430 <_ZN7TwoWire5beginEv>

  last = 0; // for MQTT publish timer. 
   d42bc:	4b2a      	ldr	r3, [pc, #168]	; (d4368 <setup+0xdc>)

  pixel.begin();
   d42be:	482b      	ldr	r0, [pc, #172]	; (d436c <setup+0xe0>)
  pixel.show();

  bme.begin(0x76);
  senseAQ.init();

  pinMode(Bpin, INPUT_PULLDOWN);
   d42c0:	4e2b      	ldr	r6, [pc, #172]	; (d4370 <setup+0xe4>)
  delay(100);
  Serial1.begin(9600); // for using with the DFRobot player
  delay(100); // waiting for serial monitor to initialize 
  Wire.begin();

  last = 0; // for MQTT publish timer. 
   d42c2:	2400      	movs	r4, #0
   d42c4:	601c      	str	r4, [r3, #0]

  pixel.begin();
   d42c6:	f000 fec7 	bl	d5058 <_ZN17Adafruit_NeoPixel5beginEv>
  pixel.clear();
   d42ca:	4828      	ldr	r0, [pc, #160]	; (d436c <setup+0xe0>)
   d42cc:	f001 f90d 	bl	d54ea <_ZN17Adafruit_NeoPixel5clearEv>
  pixel.show();
   d42d0:	4826      	ldr	r0, [pc, #152]	; (d436c <setup+0xe0>)
   d42d2:	f000 fef7 	bl	d50c4 <_ZN17Adafruit_NeoPixel4showEv>

  bme.begin(0x76);
   d42d6:	2176      	movs	r1, #118	; 0x76
   d42d8:	4826      	ldr	r0, [pc, #152]	; (d4374 <setup+0xe8>)
   d42da:	f000 fe81 	bl	d4fe0 <_ZN15Adafruit_BME2805beginEh>
  senseAQ.init();
   d42de:	4826      	ldr	r0, [pc, #152]	; (d4378 <setup+0xec>)
   d42e0:	f002 ffa1 	bl	d7226 <_ZN16AirQualitySensor4initEv>

  pinMode(Bpin, INPUT_PULLDOWN);
   d42e4:	2103      	movs	r1, #3
   d42e6:	8830      	ldrh	r0, [r6, #0]
   d42e8:	f004 fd86 	bl	d8df8 <pinMode>
public:
  __SPISettings(uint32_t clock, uint8_t bitOrder, uint8_t dataMode)
    : default_{false},
      clock_{clock},
      bitOrder_{bitOrder},
      dataMode_{dataMode}
   d42ec:	4b23      	ldr	r3, [pc, #140]	; (d437c <setup+0xf0>)
   d42ee:	9302      	str	r3, [sp, #8]
   d42f0:	2501      	movs	r5, #1
   d42f2:	4b23      	ldr	r3, [pc, #140]	; (d4380 <setup+0xf4>)

  if(!SD.begin(SD_CS_PIN)){
   d42f4:	4823      	ldr	r0, [pc, #140]	; (d4384 <setup+0xf8>)
   d42f6:	f88d 400c 	strb.w	r4, [sp, #12]
   d42fa:	aa02      	add	r2, sp, #8
   d42fc:	210e      	movs	r1, #14
   d42fe:	9304      	str	r3, [sp, #16]
   d4300:	f88d 5014 	strb.w	r5, [sp, #20]
   d4304:	f88d 4015 	strb.w	r4, [sp, #21]
   d4308:	f7ff ff80 	bl	d420c <_ZN5SdFat5beginEhN8particle13__SPISettingsE>
   d430c:	b928      	cbnz	r0, d431a <setup+0x8e>
    Serial.println("SD initialization failed!");
   d430e:	f003 ff79 	bl	d8204 <_Z16_fetch_usbserialv>
   d4312:	491d      	ldr	r1, [pc, #116]	; (d4388 <setup+0xfc>)
   d4314:	f003 fced 	bl	d7cf2 <_ZN5Print7printlnEPKc>
    return;
   d4318:	e024      	b.n	d4364 <setup+0xd8>
  }
  Serial.println("SDlog init");
   d431a:	f003 ff73 	bl	d8204 <_Z16_fetch_usbserialv>
   d431e:	491b      	ldr	r1, [pc, #108]	; (d438c <setup+0x100>)
   d4320:	f003 fce7 	bl	d7cf2 <_ZN5Print7printlnEPKc>
    if(!myDFP.begin(Serial1)){
   d4324:	f004 f820 	bl	d8368 <_Z22__fetch_global_Serial1v>
   d4328:	462a      	mov	r2, r5
   d432a:	4601      	mov	r1, r0
   d432c:	4818      	ldr	r0, [pc, #96]	; (d4390 <setup+0x104>)
   d432e:	f001 fc2b 	bl	d5b88 <_ZN19DFRobotDFPlayerMini5beginER6Streamb>
   d4332:	b928      	cbnz	r0, d4340 <setup+0xb4>
    Serial.println("DFPlayer init failed");
   d4334:	f003 ff66 	bl	d8204 <_Z16_fetch_usbserialv>
   d4338:	4916      	ldr	r1, [pc, #88]	; (d4394 <setup+0x108>)
   d433a:	f003 fcda 	bl	d7cf2 <_ZN5Print7printlnEPKc>
   d433e:	e7fe      	b.n	d433e <setup+0xb2>
    while(true);
  } 
  Serial.println("DFPlayer init");
   d4340:	f003 ff60 	bl	d8204 <_Z16_fetch_usbserialv>
   d4344:	4914      	ldr	r1, [pc, #80]	; (d4398 <setup+0x10c>)
   d4346:	f003 fcd4 	bl	d7cf2 <_ZN5Print7printlnEPKc>

/*                          commented this chunk out while i tested the bme and other sensors.
  mqtt.subscribe(&subData);
  */
 Serial.println("Initialization finished");
   d434a:	f003 ff5b 	bl	d8204 <_Z16_fetch_usbserialv>
   d434e:	4913      	ldr	r1, [pc, #76]	; (d439c <setup+0x110>)
   d4350:	f003 fccf 	bl	d7cf2 <_ZN5Print7printlnEPKc>
 attachInterrupt(Bpin, enableButton, RISING);
   d4354:	8830      	ldrh	r0, [r6, #0]
   d4356:	9400      	str	r4, [sp, #0]
   d4358:	f04f 33ff 	mov.w	r3, #4294967295
   d435c:	462a      	mov	r2, r5
   d435e:	4910      	ldr	r1, [pc, #64]	; (d43a0 <setup+0x114>)
   d4360:	f003 ff78 	bl	d8254 <_Z15attachInterrupttPFvvE13InterruptModeah>
}
   d4364:	b006      	add	sp, #24
   d4366:	bd70      	pop	{r4, r5, r6, pc}
   d4368:	2003dcec 	.word	0x2003dcec
   d436c:	2003e350 	.word	0x2003e350
   d4370:	2003dc1c 	.word	0x2003dc1c
   d4374:	2003dcf4 	.word	0x2003dcf4
   d4378:	2003e2c8 	.word	0x2003e2c8
   d437c:	000da050 	.word	0x000da050
   d4380:	02faf080 	.word	0x02faf080
   d4384:	2003de0c 	.word	0x2003de0c
   d4388:	000da0cb 	.word	0x000da0cb
   d438c:	000da0e5 	.word	0x000da0e5
   d4390:	2003e2e8 	.word	0x2003e2e8
   d4394:	000da0f0 	.word	0x000da0f0
   d4398:	000da105 	.word	0x000da105
   d439c:	000da113 	.word	0x000da113
   d43a0:	000d40e5 	.word	0x000d40e5

000d43a4 <_Z13LEDBrightnessv>:
  //myDFP.playMp3Folder(3); //switch all DFP functions to playMP3Folder
  //delay(60000);

}

void LEDBrightness(){ // function for using the photoresistor to adjust the brightness of the NeoPixels to be relative to the lighting of the enviornment.
   d43a4:	b507      	push	{r0, r1, r2, lr}
  int pVal;
  int pPin = A2;
  pVal = analogRead(pPin);  // dont have pinmode in setup but works anyways?
   d43a6:	2011      	movs	r0, #17
   d43a8:	f004 fd63 	bl	d8e72 <analogRead>
  luminoscity = map(pVal,800,4096,10,255);
   d43ac:	23ff      	movs	r3, #255	; 0xff
   d43ae:	9300      	str	r3, [sp, #0]
   d43b0:	f44f 5280 	mov.w	r2, #4096	; 0x1000
   d43b4:	230a      	movs	r3, #10
   d43b6:	f44f 7148 	mov.w	r1, #800	; 0x320
   d43ba:	f003 fd85 	bl	d7ec8 <_Z3mapiiiii>
   d43be:	4b02      	ldr	r3, [pc, #8]	; (d43c8 <_Z13LEDBrightnessv+0x24>)
   d43c0:	6018      	str	r0, [r3, #0]
}  
   d43c2:	b003      	add	sp, #12
   d43c4:	f85d fb04 	ldr.w	pc, [sp], #4
   d43c8:	2003e2e4 	.word	0x2003e2e4

000d43cc <_Z14HighQualityLEDv>:
void HighQualityLED(){
   d43cc:	b508      	push	{r3, lr}
  if(pixelState){
   d43ce:	4b11      	ldr	r3, [pc, #68]	; (d4414 <_Z14HighQualityLEDv+0x48>)
    pixel.clear();
   d43d0:	4811      	ldr	r0, [pc, #68]	; (d4418 <_Z14HighQualityLEDv+0x4c>)
  int pPin = A2;
  pVal = analogRead(pPin);  // dont have pinmode in setup but works anyways?
  luminoscity = map(pVal,800,4096,10,255);
}  
void HighQualityLED(){
  if(pixelState){
   d43d2:	781b      	ldrb	r3, [r3, #0]
   d43d4:	b1bb      	cbz	r3, d4406 <_Z14HighQualityLEDv+0x3a>
    pixel.clear();
   d43d6:	f001 f888 	bl	d54ea <_ZN17Adafruit_NeoPixel5clearEv>
    pixel.setPixelColor(0,green);
   d43da:	f44f 4200 	mov.w	r2, #32768	; 0x8000
   d43de:	2100      	movs	r1, #0
   d43e0:	480d      	ldr	r0, [pc, #52]	; (d4418 <_Z14HighQualityLEDv+0x4c>)
   d43e2:	f001 f811 	bl	d5408 <_ZN17Adafruit_NeoPixel13setPixelColorEtm>
    pixel.setPixelColor(1,green);
   d43e6:	f44f 4200 	mov.w	r2, #32768	; 0x8000
   d43ea:	2101      	movs	r1, #1
   d43ec:	480a      	ldr	r0, [pc, #40]	; (d4418 <_Z14HighQualityLEDv+0x4c>)
   d43ee:	f001 f80b 	bl	d5408 <_ZN17Adafruit_NeoPixel13setPixelColorEtm>
    pixel.setBrightness(luminoscity);  // replace with luminoscity  
   d43f2:	4b0a      	ldr	r3, [pc, #40]	; (d441c <_Z14HighQualityLEDv+0x50>)
   d43f4:	4808      	ldr	r0, [pc, #32]	; (d4418 <_Z14HighQualityLEDv+0x4c>)
   d43f6:	7819      	ldrb	r1, [r3, #0]
   d43f8:	f001 f851 	bl	d549e <_ZN17Adafruit_NeoPixel13setBrightnessEh>
    pixel.show();
   d43fc:	4806      	ldr	r0, [pc, #24]	; (d4418 <_Z14HighQualityLEDv+0x4c>)
  }
  else if(!pixelState){
    pixel.clear();
    pixel.show();
  }
}
   d43fe:	e8bd 4008 	ldmia.w	sp!, {r3, lr}
  if(pixelState){
    pixel.clear();
    pixel.setPixelColor(0,green);
    pixel.setPixelColor(1,green);
    pixel.setBrightness(luminoscity);  // replace with luminoscity  
    pixel.show();
   d4402:	f000 be5f 	b.w	d50c4 <_ZN17Adafruit_NeoPixel4showEv>
  }
  else if(!pixelState){
    pixel.clear();
   d4406:	f001 f870 	bl	d54ea <_ZN17Adafruit_NeoPixel5clearEv>
    pixel.show();
   d440a:	4803      	ldr	r0, [pc, #12]	; (d4418 <_Z14HighQualityLEDv+0x4c>)
  }
}
   d440c:	e8bd 4008 	ldmia.w	sp!, {r3, lr}
    pixel.setBrightness(luminoscity);  // replace with luminoscity  
    pixel.show();
  }
  else if(!pixelState){
    pixel.clear();
    pixel.show();
   d4410:	f000 be58 	b.w	d50c4 <_ZN17Adafruit_NeoPixel4showEv>
   d4414:	2003e34c 	.word	0x2003e34c
   d4418:	2003e350 	.word	0x2003e350
   d441c:	2003e2e4 	.word	0x2003e2e4

000d4420 <_Z13MidQualityLEDv>:
  }
}
void MidQualityLED(){
   d4420:	b508      	push	{r3, lr}
  if(pixelState){
   d4422:	4b10      	ldr	r3, [pc, #64]	; (d4464 <_Z13MidQualityLEDv+0x44>)
    pixel.clear();
   d4424:	4810      	ldr	r0, [pc, #64]	; (d4468 <_Z13MidQualityLEDv+0x48>)
    pixel.clear();
    pixel.show();
  }
}
void MidQualityLED(){
  if(pixelState){
   d4426:	781b      	ldrb	r3, [r3, #0]
   d4428:	b1ab      	cbz	r3, d4456 <_Z13MidQualityLEDv+0x36>
    pixel.clear();
   d442a:	f001 f85e 	bl	d54ea <_ZN17Adafruit_NeoPixel5clearEv>
    pixel.setPixelColor(0, yellow);
   d442e:	4a0f      	ldr	r2, [pc, #60]	; (d446c <_Z13MidQualityLEDv+0x4c>)
   d4430:	480d      	ldr	r0, [pc, #52]	; (d4468 <_Z13MidQualityLEDv+0x48>)
   d4432:	2100      	movs	r1, #0
   d4434:	f000 ffe8 	bl	d5408 <_ZN17Adafruit_NeoPixel13setPixelColorEtm>
    pixel.setPixelColor(1, yellow);
   d4438:	4a0c      	ldr	r2, [pc, #48]	; (d446c <_Z13MidQualityLEDv+0x4c>)
   d443a:	480b      	ldr	r0, [pc, #44]	; (d4468 <_Z13MidQualityLEDv+0x48>)
   d443c:	2101      	movs	r1, #1
   d443e:	f000 ffe3 	bl	d5408 <_ZN17Adafruit_NeoPixel13setPixelColorEtm>
    pixel.setBrightness(luminoscity);
   d4442:	4b0b      	ldr	r3, [pc, #44]	; (d4470 <_Z13MidQualityLEDv+0x50>)
   d4444:	4808      	ldr	r0, [pc, #32]	; (d4468 <_Z13MidQualityLEDv+0x48>)
   d4446:	7819      	ldrb	r1, [r3, #0]
   d4448:	f001 f829 	bl	d549e <_ZN17Adafruit_NeoPixel13setBrightnessEh>
    pixel.show();
   d444c:	4806      	ldr	r0, [pc, #24]	; (d4468 <_Z13MidQualityLEDv+0x48>)
  }
  else if(!pixelState){
    pixel.clear();
    pixel.show();
  }
}
   d444e:	e8bd 4008 	ldmia.w	sp!, {r3, lr}
  if(pixelState){
    pixel.clear();
    pixel.setPixelColor(0, yellow);
    pixel.setPixelColor(1, yellow);
    pixel.setBrightness(luminoscity);
    pixel.show();
   d4452:	f000 be37 	b.w	d50c4 <_ZN17Adafruit_NeoPixel4showEv>
  }
  else if(!pixelState){
    pixel.clear();
   d4456:	f001 f848 	bl	d54ea <_ZN17Adafruit_NeoPixel5clearEv>
    pixel.show();
   d445a:	4803      	ldr	r0, [pc, #12]	; (d4468 <_Z13MidQualityLEDv+0x48>)
  }
}
   d445c:	e8bd 4008 	ldmia.w	sp!, {r3, lr}
    pixel.setBrightness(luminoscity);
    pixel.show();
  }
  else if(!pixelState){
    pixel.clear();
    pixel.show();
   d4460:	f000 be30 	b.w	d50c4 <_ZN17Adafruit_NeoPixel4showEv>
   d4464:	2003e34c 	.word	0x2003e34c
   d4468:	2003e350 	.word	0x2003e350
   d446c:	00ffff00 	.word	0x00ffff00
   d4470:	2003e2e4 	.word	0x2003e2e4

000d4474 <_Z13LowQualityLEDv>:
  }
}
void LowQualityLED(){
   d4474:	b508      	push	{r3, lr}
  if(pixelState){
   d4476:	4b10      	ldr	r3, [pc, #64]	; (d44b8 <_Z13LowQualityLEDv+0x44>)
    pixel.clear();
   d4478:	4810      	ldr	r0, [pc, #64]	; (d44bc <_Z13LowQualityLEDv+0x48>)
    pixel.clear();
    pixel.show();
  }
}
void LowQualityLED(){
  if(pixelState){
   d447a:	781b      	ldrb	r3, [r3, #0]
   d447c:	b1ab      	cbz	r3, d44aa <_Z13LowQualityLEDv+0x36>
    pixel.clear();
   d447e:	f001 f834 	bl	d54ea <_ZN17Adafruit_NeoPixel5clearEv>
    pixel.setPixelColor(0, orange);
   d4482:	4a0f      	ldr	r2, [pc, #60]	; (d44c0 <_Z13LowQualityLEDv+0x4c>)
   d4484:	480d      	ldr	r0, [pc, #52]	; (d44bc <_Z13LowQualityLEDv+0x48>)
   d4486:	2100      	movs	r1, #0
   d4488:	f000 ffbe 	bl	d5408 <_ZN17Adafruit_NeoPixel13setPixelColorEtm>
    pixel.setPixelColor(1, orange);
   d448c:	4a0c      	ldr	r2, [pc, #48]	; (d44c0 <_Z13LowQualityLEDv+0x4c>)
   d448e:	480b      	ldr	r0, [pc, #44]	; (d44bc <_Z13LowQualityLEDv+0x48>)
   d4490:	2101      	movs	r1, #1
   d4492:	f000 ffb9 	bl	d5408 <_ZN17Adafruit_NeoPixel13setPixelColorEtm>
    pixel.setBrightness(luminoscity);
   d4496:	4b0b      	ldr	r3, [pc, #44]	; (d44c4 <_Z13LowQualityLEDv+0x50>)
   d4498:	4808      	ldr	r0, [pc, #32]	; (d44bc <_Z13LowQualityLEDv+0x48>)
   d449a:	7819      	ldrb	r1, [r3, #0]
   d449c:	f000 ffff 	bl	d549e <_ZN17Adafruit_NeoPixel13setBrightnessEh>
    pixel.show();
   d44a0:	4806      	ldr	r0, [pc, #24]	; (d44bc <_Z13LowQualityLEDv+0x48>)
  }
  else if(!pixelState){
    pixel.clear();
    pixel.show();
  }
}
   d44a2:	e8bd 4008 	ldmia.w	sp!, {r3, lr}
  if(pixelState){
    pixel.clear();
    pixel.setPixelColor(0, orange);
    pixel.setPixelColor(1, orange);
    pixel.setBrightness(luminoscity);
    pixel.show();
   d44a6:	f000 be0d 	b.w	d50c4 <_ZN17Adafruit_NeoPixel4showEv>
  }
  else if(!pixelState){
    pixel.clear();
   d44aa:	f001 f81e 	bl	d54ea <_ZN17Adafruit_NeoPixel5clearEv>
    pixel.show();
   d44ae:	4803      	ldr	r0, [pc, #12]	; (d44bc <_Z13LowQualityLEDv+0x48>)
  }
}
   d44b0:	e8bd 4008 	ldmia.w	sp!, {r3, lr}
    pixel.setBrightness(luminoscity);
    pixel.show();
  }
  else if(!pixelState){
    pixel.clear();
    pixel.show();
   d44b4:	f000 be06 	b.w	d50c4 <_ZN17Adafruit_NeoPixel4showEv>
   d44b8:	2003e34c 	.word	0x2003e34c
   d44bc:	2003e350 	.word	0x2003e350
   d44c0:	00ffa500 	.word	0x00ffa500
   d44c4:	2003e2e4 	.word	0x2003e2e4

000d44c8 <_Z9DangerLEDv>:
  }
}
void DangerLED(){
   d44c8:	b508      	push	{r3, lr}
  if(pixelState){
   d44ca:	4b11      	ldr	r3, [pc, #68]	; (d4510 <_Z9DangerLEDv+0x48>)
    pixel.clear();
   d44cc:	4811      	ldr	r0, [pc, #68]	; (d4514 <_Z9DangerLEDv+0x4c>)
    pixel.clear();
    pixel.show();
  }
}
void DangerLED(){
  if(pixelState){
   d44ce:	781b      	ldrb	r3, [r3, #0]
   d44d0:	b1bb      	cbz	r3, d4502 <_Z9DangerLEDv+0x3a>
    pixel.clear();
   d44d2:	f001 f80a 	bl	d54ea <_ZN17Adafruit_NeoPixel5clearEv>
    pixel.setPixelColor(0, red);
   d44d6:	f44f 027f 	mov.w	r2, #16711680	; 0xff0000
   d44da:	2100      	movs	r1, #0
   d44dc:	480d      	ldr	r0, [pc, #52]	; (d4514 <_Z9DangerLEDv+0x4c>)
   d44de:	f000 ff93 	bl	d5408 <_ZN17Adafruit_NeoPixel13setPixelColorEtm>
    pixel.setPixelColor(1, red);
   d44e2:	f44f 027f 	mov.w	r2, #16711680	; 0xff0000
   d44e6:	2101      	movs	r1, #1
   d44e8:	480a      	ldr	r0, [pc, #40]	; (d4514 <_Z9DangerLEDv+0x4c>)
   d44ea:	f000 ff8d 	bl	d5408 <_ZN17Adafruit_NeoPixel13setPixelColorEtm>
    pixel.setBrightness(luminoscity);
   d44ee:	4b0a      	ldr	r3, [pc, #40]	; (d4518 <_Z9DangerLEDv+0x50>)
   d44f0:	4808      	ldr	r0, [pc, #32]	; (d4514 <_Z9DangerLEDv+0x4c>)
   d44f2:	7819      	ldrb	r1, [r3, #0]
   d44f4:	f000 ffd3 	bl	d549e <_ZN17Adafruit_NeoPixel13setBrightnessEh>
    pixel.show();
   d44f8:	4806      	ldr	r0, [pc, #24]	; (d4514 <_Z9DangerLEDv+0x4c>)
  }
  else if(!pixelState){
    pixel.clear();
    pixel.show();
  }
}
   d44fa:	e8bd 4008 	ldmia.w	sp!, {r3, lr}
  if(pixelState){
    pixel.clear();
    pixel.setPixelColor(0, red);
    pixel.setPixelColor(1, red);
    pixel.setBrightness(luminoscity);
    pixel.show();
   d44fe:	f000 bde1 	b.w	d50c4 <_ZN17Adafruit_NeoPixel4showEv>
  }
  else if(!pixelState){
    pixel.clear();
   d4502:	f000 fff2 	bl	d54ea <_ZN17Adafruit_NeoPixel5clearEv>
    pixel.show();
   d4506:	4803      	ldr	r0, [pc, #12]	; (d4514 <_Z9DangerLEDv+0x4c>)
  }
}
   d4508:	e8bd 4008 	ldmia.w	sp!, {r3, lr}
    pixel.setBrightness(luminoscity);
    pixel.show();
  }
  else if(!pixelState){
    pixel.clear();
    pixel.show();
   d450c:	f000 bdda 	b.w	d50c4 <_ZN17Adafruit_NeoPixel4showEv>
   d4510:	2003e34c 	.word	0x2003e34c
   d4514:	2003e350 	.word	0x2003e350
   d4518:	2003e2e4 	.word	0x2003e2e4

000d451c <_Z11MQTTConnectv>:
  }
}

/*      function for starting up the connection to MQTT. dont forget to do IFTTT       */
void MQTTConnect(){
   d451c:	b538      	push	{r3, r4, r5, lr}
  int8_t ret;
  if(mqtt.connected()){ // if mqtt is connected, stop
   d451e:	4817      	ldr	r0, [pc, #92]	; (d457c <_Z11MQTTConnectv+0x60>)
   d4520:	f000 fff6 	bl	d5510 <_ZN19Adafruit_MQTT_SPARK9connectedEv>
   d4524:	bb40      	cbnz	r0, d4578 <_Z11MQTTConnectv+0x5c>
    return;
  }
  Serial.print("connecting to MQTT ...");
   d4526:	f003 fe6d 	bl	d8204 <_Z16_fetch_usbserialv>
   d452a:	4915      	ldr	r1, [pc, #84]	; (d4580 <_Z11MQTTConnectv+0x64>)
   d452c:	f003 fbce 	bl	d7ccc <_ZN5Print5printEPKc>
  while((ret = mqtt.connect()) != 0){ // if connected, will return a 0
   d4530:	4812      	ldr	r0, [pc, #72]	; (d457c <_Z11MQTTConnectv+0x60>)
   d4532:	f001 f99f 	bl	d5874 <_ZN13Adafruit_MQTT7connectEv>
   d4536:	4604      	mov	r4, r0
   d4538:	b1b8      	cbz	r0, d456a <_Z11MQTTConnectv+0x4e>
    Serial.println(mqtt.connectErrorString(ret));
   d453a:	f003 fe63 	bl	d8204 <_Z16_fetch_usbserialv>
   d453e:	4621      	mov	r1, r4
   d4540:	4605      	mov	r5, r0
   d4542:	480e      	ldr	r0, [pc, #56]	; (d457c <_Z11MQTTConnectv+0x60>)
   d4544:	f001 f8fc 	bl	d5740 <_ZN13Adafruit_MQTT18connectErrorStringEa>
   d4548:	4601      	mov	r1, r0
   d454a:	4628      	mov	r0, r5
   d454c:	f003 fbd1 	bl	d7cf2 <_ZN5Print7printlnEPKc>
    Serial.println("retrying MQTT connection in 5 seconds...");
   d4550:	f003 fe58 	bl	d8204 <_Z16_fetch_usbserialv>
   d4554:	490b      	ldr	r1, [pc, #44]	; (d4584 <_Z11MQTTConnectv+0x68>)
   d4556:	f003 fbcc 	bl	d7cf2 <_ZN5Print7printlnEPKc>
    mqtt.disconnect();
   d455a:	4808      	ldr	r0, [pc, #32]	; (d457c <_Z11MQTTConnectv+0x60>)
   d455c:	f001 f8fe 	bl	d575c <_ZN13Adafruit_MQTT10disconnectEv>
    delay(5000);
   d4560:	f241 3088 	movw	r0, #5000	; 0x1388
   d4564:	f003 fcbc 	bl	d7ee0 <delay>
   d4568:	e7e2      	b.n	d4530 <_Z11MQTTConnectv+0x14>
  }
  Serial.println("MQTT connected!");
   d456a:	f003 fe4b 	bl	d8204 <_Z16_fetch_usbserialv>
   d456e:	4906      	ldr	r1, [pc, #24]	; (d4588 <_Z11MQTTConnectv+0x6c>)
}
   d4570:	e8bd 4038 	ldmia.w	sp!, {r3, r4, r5, lr}
    Serial.println(mqtt.connectErrorString(ret));
    Serial.println("retrying MQTT connection in 5 seconds...");
    mqtt.disconnect();
    delay(5000);
  }
  Serial.println("MQTT connected!");
   d4574:	f003 bbbd 	b.w	d7cf2 <_ZN5Print7printlnEPKc>
   d4578:	bd38      	pop	{r3, r4, r5, pc}
   d457a:	bf00      	nop
   d457c:	2003dd38 	.word	0x2003dd38
   d4580:	000da12b 	.word	0x000da12b
   d4584:	000da142 	.word	0x000da142
   d4588:	000da16b 	.word	0x000da16b

000d458c <_Z8SyncTimev>:
  if(file){ // if the files open, close it
    file.close();
    }
}

void SyncTime(){ // syncing particle clock to cloud clock to get accurate time for timestamps
   d458c:	b500      	push	{lr}
   d458e:	b08d      	sub	sp, #52	; 0x34
  String DateTime, TimeOnly;
   d4590:	4924      	ldr	r1, [pc, #144]	; (d4624 <_Z8SyncTimev+0x98>)
   d4592:	4668      	mov	r0, sp
   d4594:	f003 faf7 	bl	d7b86 <_ZN6StringC1EPK19__FlashStringHelper>
   d4598:	4922      	ldr	r1, [pc, #136]	; (d4624 <_Z8SyncTimev+0x98>)
   d459a:	a804      	add	r0, sp, #16
   d459c:	f003 faf3 	bl	d7b86 <_ZN6StringC1EPK19__FlashStringHelper>
  Time.zone(-6);
   d45a0:	eeb9 0a08 	vmov.f32	s0, #152	; 0xc0c00000 -6.0
   d45a4:	f003 fc20 	bl	d7de8 <_ZN9TimeClass4zoneEf>
    static void sleep(Spark_Sleep_TypeDef sleepMode, long seconds=0) __attribute__ ((deprecated("Please use System.sleep() instead.")))
    { SystemClass::sleep(sleepMode, seconds); }
    static void sleep(uint16_t wakeUpPin, InterruptMode edgeTriggerMode, long seconds=0) __attribute__ ((deprecated("Please use System.sleep() instead.")))
    { SystemClass::sleep(wakeUpPin, edgeTriggerMode, seconds); }

    static bool connected(void) { return spark_cloud_flag_connected(); }
   d45a8:	f003 f918 	bl	d77dc <spark_cloud_flag_connected>
        spark_unsubscribe(NULL);
    }

    bool syncTime(void)
    {
        if (!connected()) {
   d45ac:	b110      	cbz	r0, d45b4 <_Z8SyncTimev+0x28>
            return false;
        }
        return spark_sync_time(NULL);
   d45ae:	2000      	movs	r0, #0
   d45b0:	f003 f91c 	bl	d77ec <spark_sync_time>
  Particle.syncTime();
  waitUntil(Particle.syncTimeDone);
   d45b4:	f7ff fdec 	bl	d4190 <_ZN10CloudClass12syncTimeDoneEv.isra.3>


    static uint32_t freeMemory();

    template<typename Condition, typename While> static bool waitConditionWhile(Condition _condition, While _while) {
        while (_while() && !_condition()) {
   d45b8:	b910      	cbnz	r0, d45c0 <_Z8SyncTimev+0x34>
            spark_process();
   d45ba:	f003 f907 	bl	d77cc <spark_process>
   d45be:	e7f9      	b.n	d45b4 <_Z8SyncTimev+0x28>
   d45c0:	f7ff fde6 	bl	d4190 <_ZN10CloudClass12syncTimeDoneEv.isra.3>
  static uint8_t isDST();

        /* return string representation of the current time */
        inline String timeStr()
        {
                return timeStr(now());
   d45c4:	f003 fc6f 	bl	d7ea6 <_ZN9TimeClass3nowEv>
   d45c8:	4601      	mov	r1, r0
   d45ca:	a808      	add	r0, sp, #32
   d45cc:	f003 fc28 	bl	d7e20 <_ZN9TimeClass7timeStrEl>
  DateTime = Time.timeStr();
   d45d0:	a908      	add	r1, sp, #32
   d45d2:	4668      	mov	r0, sp
   d45d4:	f003 fb07 	bl	d7be6 <_ZN6StringaSEOS_>
   d45d8:	a808      	add	r0, sp, #32
   d45da:	f003 fa8d 	bl	d7af8 <_ZN6StringD1Ev>
  TimeOnly = DateTime.substring(11,19);
   d45de:	2313      	movs	r3, #19
   d45e0:	220b      	movs	r2, #11
   d45e2:	4669      	mov	r1, sp
   d45e4:	a808      	add	r0, sp, #32
   d45e6:	f003 fb1f 	bl	d7c28 <_ZNK6String9substringEjj>
   d45ea:	a908      	add	r1, sp, #32
   d45ec:	a804      	add	r0, sp, #16
   d45ee:	f003 fafa 	bl	d7be6 <_ZN6StringaSEOS_>
   d45f2:	a808      	add	r0, sp, #32
   d45f4:	f003 fa80 	bl	d7af8 <_ZN6StringD1Ev>
	void setCharAt(unsigned int index, char c);
	char operator [] (unsigned int index) const;
	char& operator [] (unsigned int index);
	void getBytes(unsigned char *buf, unsigned int bufsize, unsigned int index=0) const;
	void toCharArray(char *buf, unsigned int bufsize, unsigned int index=0) const
		{getBytes((unsigned char *)buf, bufsize, index);}
   d45f8:	4668      	mov	r0, sp
   d45fa:	2300      	movs	r3, #0
   d45fc:	2219      	movs	r2, #25
   d45fe:	490a      	ldr	r1, [pc, #40]	; (d4628 <_Z8SyncTimev+0x9c>)
   d4600:	f003 faf9 	bl	d7bf6 <_ZNK6String8getBytesEPhjj>
   d4604:	2300      	movs	r3, #0
   d4606:	2209      	movs	r2, #9
   d4608:	4908      	ldr	r1, [pc, #32]	; (d462c <_Z8SyncTimev+0xa0>)
   d460a:	a804      	add	r0, sp, #16
   d460c:	f003 faf3 	bl	d7bf6 <_ZNK6String8getBytesEPhjj>
    file.close();
    }
}

void SyncTime(){ // syncing particle clock to cloud clock to get accurate time for timestamps
  String DateTime, TimeOnly;
   d4610:	a804      	add	r0, sp, #16
   d4612:	f003 fa71 	bl	d7af8 <_ZN6StringD1Ev>
   d4616:	4668      	mov	r0, sp
   d4618:	f003 fa6e 	bl	d7af8 <_ZN6StringD1Ev>
  waitUntil(Particle.syncTimeDone);
  DateTime = Time.timeStr();
  TimeOnly = DateTime.substring(11,19);
  DateTime.toCharArray(currentDateTime,25);
  TimeOnly.toCharArray(currentTime,9);
}
   d461c:	b00d      	add	sp, #52	; 0x34
   d461e:	f85d fb04 	ldr.w	pc, [sp], #4
   d4622:	bf00      	nop
   d4624:	000da435 	.word	0x000da435
   d4628:	2003e364 	.word	0x2003e364
   d462c:	2003e38c 	.word	0x2003e38c

000d4630 <_ZN5Print5printIiLi0EEEjT_i>:

};

template <typename T, std::enable_if_t<std::is_integral<T>::value || std::is_convertible<T, unsigned long long>::value ||
    std::is_convertible<T, long long>::value, int>>
size_t Print::print(T n, int base)
   d4630:	e92d 41f0 	stmdb	sp!, {r4, r5, r6, r7, r8, lr}
   d4634:	4607      	mov	r7, r0
   d4636:	460c      	mov	r4, r1
{
    if (base == 0) {
   d4638:	4615      	mov	r5, r2
   d463a:	b92a      	cbnz	r2, d4648 <_ZN5Print5printIiLi0EEEjT_i+0x18>
        return write(n);
   d463c:	6803      	ldr	r3, [r0, #0]
   d463e:	b2c9      	uxtb	r1, r1
   d4640:	689b      	ldr	r3, [r3, #8]
        } else {
            val = n;
        }
        return printNumber(val, base) + t;
    }
}
   d4642:	e8bd 41f0 	ldmia.w	sp!, {r4, r5, r6, r7, r8, lr}
template <typename T, std::enable_if_t<std::is_integral<T>::value || std::is_convertible<T, unsigned long long>::value ||
    std::is_convertible<T, long long>::value, int>>
size_t Print::print(T n, int base)
{
    if (base == 0) {
        return write(n);
   d4646:	4718      	bx	r3
    } else {
        size_t t = 0;
        using PrintNumberType = typename PrintNumberTypeSelector<T>::type;
        PrintNumberType val;
        if (n < 0 && base == 10) {
   d4648:	2900      	cmp	r1, #0
   d464a:	da07      	bge.n	d465c <_ZN5Print5printIiLi0EEEjT_i+0x2c>
   d464c:	2a0a      	cmp	r2, #10
   d464e:	d105      	bne.n	d465c <_ZN5Print5printIiLi0EEEjT_i+0x2c>
            t = print('-');
   d4650:	212d      	movs	r1, #45	; 0x2d
   d4652:	f003 fb3f 	bl	d7cd4 <_ZN5Print5printEc>
            val = -n;
   d4656:	4261      	negs	r1, r4
    } else {
        size_t t = 0;
        using PrintNumberType = typename PrintNumberTypeSelector<T>::type;
        PrintNumberType val;
        if (n < 0 && base == 10) {
            t = print('-');
   d4658:	4606      	mov	r6, r0
            val = -n;
   d465a:	e001      	b.n	d4660 <_ZN5Print5printIiLi0EEEjT_i+0x30>
        } else {
            val = n;
   d465c:	4621      	mov	r1, r4
size_t Print::print(T n, int base)
{
    if (base == 0) {
        return write(n);
    } else {
        size_t t = 0;
   d465e:	2600      	movs	r6, #0
            t = print('-');
            val = -n;
        } else {
            val = n;
        }
        return printNumber(val, base) + t;
   d4660:	b2ea      	uxtb	r2, r5
   d4662:	4638      	mov	r0, r7
   d4664:	f003 fb4f 	bl	d7d06 <_ZN5Print11printNumberEmh>
    }
}
   d4668:	4430      	add	r0, r6
   d466a:	e8bd 81f0 	ldmia.w	sp!, {r4, r5, r6, r7, r8, pc}
	...

000d4670 <_Z14WarningMessagev>:
  hum = bme.readHumidity();
  press = (bme.readPressure() / 100.0F);
  alt = bme.readAltitude(SEALEVELPRESSURE_HPA);
}

void WarningMessage(){ // this function reads the sensory data and outputs a meassage accordingly 
   d4670:	e92d 47f0 	stmdb	sp!, {r4, r5, r6, r7, r8, r9, sl, lr}
   d4674:	b092      	sub	sp, #72	; 0x48
  static int lastQualityValue;
  static int lastMQval;
  Serial.println(qualityValue);
   d4676:	f003 fdc5 	bl	d8204 <_Z16_fetch_usbserialv>
   d467a:	4e83      	ldr	r6, [pc, #524]	; (d4888 <_Z14WarningMessagev+0x218>)
  Serial.print(lastQualityValue);
   d467c:	4d83      	ldr	r5, [pc, #524]	; (d488c <_Z14WarningMessagev+0x21c>)
    size_t println(const char[]);
    size_t println(char);
    template <typename T, std::enable_if_t<std::is_integral<T>::value || std::is_convertible<T, unsigned long long>::value ||
        std::is_convertible<T, long long>::value, int> = 0>
    size_t println(T b, int base = DEC) {
        size_t n = print(b, base);
   d467e:	6831      	ldr	r1, [r6, #0]
   d4680:	220a      	movs	r2, #10
}

void WarningMessage(){ // this function reads the sensory data and outputs a meassage accordingly 
  static int lastQualityValue;
  static int lastMQval;
  Serial.println(qualityValue);
   d4682:	4604      	mov	r4, r0
   d4684:	f7ff ffd4 	bl	d4630 <_ZN5Print5printIiLi0EEEjT_i>
        n += println();
   d4688:	4620      	mov	r0, r4
  Serial.print(lastQualityValue);
  Serial.print(lastMQval);
   d468a:	4c81      	ldr	r4, [pc, #516]	; (d4890 <_Z14WarningMessagev+0x220>)
   d468c:	f003 fb25 	bl	d7cda <_ZN5Print7printlnEv>

void WarningMessage(){ // this function reads the sensory data and outputs a meassage accordingly 
  static int lastQualityValue;
  static int lastMQval;
  Serial.println(qualityValue);
  Serial.print(lastQualityValue);
   d4690:	f003 fdb8 	bl	d8204 <_Z16_fetch_usbserialv>
   d4694:	220a      	movs	r2, #10
   d4696:	6829      	ldr	r1, [r5, #0]
   d4698:	f7ff ffca 	bl	d4630 <_ZN5Print5printIiLi0EEEjT_i>
  Serial.print(lastMQval);
   d469c:	f003 fdb2 	bl	d8204 <_Z16_fetch_usbserialv>
   d46a0:	220a      	movs	r2, #10
   d46a2:	6821      	ldr	r1, [r4, #0]
   d46a4:	f7ff ffc4 	bl	d4630 <_ZN5Print5printIiLi0EEEjT_i>
  if(qualityValue == lastQualityValue && lastMQval == MQval){
   d46a8:	682b      	ldr	r3, [r5, #0]
   d46aa:	6832      	ldr	r2, [r6, #0]
   d46ac:	429a      	cmp	r2, r3
   d46ae:	46b1      	mov	r9, r6
   d46b0:	4b78      	ldr	r3, [pc, #480]	; (d4894 <_Z14WarningMessagev+0x224>)
   d46b2:	d104      	bne.n	d46be <_Z14WarningMessagev+0x4e>
   d46b4:	6820      	ldr	r0, [r4, #0]
   d46b6:	6819      	ldr	r1, [r3, #0]
   d46b8:	4288      	cmp	r0, r1
   d46ba:	f000 80e2 	beq.w	d4882 <_Z14WarningMessagev+0x212>
    lastMQval = MQval;
    return;
    }
  else{
    lastQualityValue = qualityValue;
    lastMQval = MQval;
   d46be:	681b      	ldr	r3, [r3, #0]
   d46c0:	6023      	str	r3, [r4, #0]
    virtual int available() = 0;
    virtual int read() = 0;
    virtual int peek() = 0;
    virtual void flush() = 0;

    Stream() {_timeout=1000;}
   d46c2:	f44f 737a 	mov.w	r3, #1000	; 0x3e8
   d46c6:	9307      	str	r3, [sp, #28]
 * \class File
 * \brief Arduino SD.h style File API
 */
class File : public FatFile, public Stream {
 public:
  File() {}
   d46c8:	4b73      	ldr	r3, [pc, #460]	; (d4898 <_Z14WarningMessagev+0x228>)
    lastQualityValue = qualityValue;
    lastMQval = MQval;
    return;
    }
  else{
    lastQualityValue = qualityValue;
   d46ca:	602a      	str	r2, [r5, #0]
 * \brief Basic file class.
 */
class FatFile {
 public:
  /** Create an instance. */
  FatFile() : m_attr(FILE_ATTR_CLOSED), m_error(0) {}
   d46cc:	2700      	movs	r7, #0
   d46ce:	9305      	str	r3, [sp, #20]
   * \param[in] oflag open flags.
   * \return a File object.
   */
  File open(const char *path, oflag_t oflag = FILE_READ) {
    File tmpFile;
    tmpFile.open(vwd(), path, oflag);
   d46d0:	4a72      	ldr	r2, [pc, #456]	; (d489c <_Z14WarningMessagev+0x22c>)
   d46d2:	4973      	ldr	r1, [pc, #460]	; (d48a0 <_Z14WarningMessagev+0x230>)
   d46d4:	f88d 7024 	strb.w	r7, [sp, #36]	; 0x24
   d46d8:	f244 2302 	movw	r3, #16898	; 0x4202
   d46dc:	a809      	add	r0, sp, #36	; 0x24
//==============================================================================
/**
 * \class File
 * \brief Arduino SD.h style File API
 */
class File : public FatFile, public Stream {
   d46de:	ad09      	add	r5, sp, #36	; 0x24
   d46e0:	f88d 7025 	strb.w	r7, [sp, #37]	; 0x25
  protected:
    void setWriteError(int err = 1) { write_error = err; }
    size_t printf_impl(bool newline, const char* format, ...);

  public:
    Print() : write_error(0) {}
   d46e4:	9706      	str	r7, [sp, #24]
   d46e6:	f001 ffde 	bl	d66a6 <_ZN7FatFile4openEPS_PKci>
   d46ea:	cd0f      	ldmia	r5!, {r0, r1, r2, r3}
   d46ec:	4c6d      	ldr	r4, [pc, #436]	; (d48a4 <_Z14WarningMessagev+0x234>)
    lastMQval = MQval;
   d46ee:	f8df 81a4 	ldr.w	r8, [pc, #420]	; d4894 <_Z14WarningMessagev+0x224>
   d46f2:	f104 0610 	add.w	r6, r4, #16
   d46f6:	c60f      	stmia	r6!, {r0, r1, r2, r3}
   d46f8:	cd0f      	ldmia	r5!, {r0, r1, r2, r3}
   d46fa:	c60f      	stmia	r6!, {r0, r1, r2, r3}
   d46fc:	682b      	ldr	r3, [r5, #0]
   d46fe:	6033      	str	r3, [r6, #0]
const unsigned char BIN = 2;

class String;
class __FlashStringHelper;

class Print
   d4700:	9b06      	ldr	r3, [sp, #24]
   d4702:	6063      	str	r3, [r4, #4]
#define   getFloat(skipChar)  parseFloat(skipChar)
#define   getString( pre_string, post_string, buffer, length)
readBytesBetween( pre_string, terminator, buffer, length)
*/

class Stream : public Print
   d4704:	9b07      	ldr	r3, [sp, #28]
   d4706:	60a3      	str	r3, [r4, #8]
   d4708:	9b08      	ldr	r3, [sp, #32]
   d470a:	60e3      	str	r3, [r4, #12]
  }
  file = SD.open("DataLog.csv", FILE_WRITE);

  if(qualityValue>=3 && MQval<=3){ // statement for high air quality pollution
   d470c:	f8d9 3000 	ldr.w	r3, [r9]
   d4710:	4d5d      	ldr	r5, [pc, #372]	; (d4888 <_Z14WarningMessagev+0x218>)
   d4712:	2b02      	cmp	r3, #2
   d4714:	f8d8 3000 	ldr.w	r3, [r8]
   d4718:	dd1e      	ble.n	d4758 <_Z14WarningMessagev+0xe8>
   d471a:	2b03      	cmp	r3, #3
   d471c:	dc6d      	bgt.n	d47fa <_Z14WarningMessagev+0x18a>
    MidQualityLED();
   d471e:	f7ff fe7f 	bl	d4420 <_Z13MidQualityLEDv>
    if(file){
   d4722:	7c23      	ldrb	r3, [r4, #16]
   d4724:	b173      	cbz	r3, d4744 <_Z14WarningMessagev+0xd4>
      Serial.printf("Air Quality warning. AQ read: %i \n", qualityValue); 
   d4726:	f003 fd6d 	bl	d8204 <_Z16_fetch_usbserialv>
    size_t println(const __FlashStringHelper*);

    template <typename... Args>
    inline size_t printf(const char* format, Args... args)
    {
        return this->printf_impl(false, format, args...);
   d472a:	682b      	ldr	r3, [r5, #0]
   d472c:	4a5e      	ldr	r2, [pc, #376]	; (d48a8 <_Z14WarningMessagev+0x238>)
   d472e:	4639      	mov	r1, r7
   d4730:	f003 fb09 	bl	d7d46 <_ZN5Print11printf_implEbPKcz>
   d4734:	4b5d      	ldr	r3, [pc, #372]	; (d48ac <_Z14WarningMessagev+0x23c>)
   d4736:	9300      	str	r3, [sp, #0]
   d4738:	682b      	ldr	r3, [r5, #0]
   d473a:	4a5d      	ldr	r2, [pc, #372]	; (d48b0 <_Z14WarningMessagev+0x240>)
   d473c:	4639      	mov	r1, r7
   d473e:	4620      	mov	r0, r4
   d4740:	f003 fb01 	bl	d7d46 <_ZN5Print11printf_implEbPKcz>
      file.printf("Air Quality Read: %i timestamp: %s \n", qualityValue,currentDateTime);
      //file.println(currentDateTime);
      //file.close();
    }
    if(!file){ // if theres an error with the file, log it
   d4744:	7c23      	ldrb	r3, [r4, #16]
   d4746:	2b00      	cmp	r3, #0
   d4748:	f040 8098 	bne.w	d487c <_Z14WarningMessagev+0x20c>
      Serial.println("AQ write error");
   d474c:	f003 fd5a 	bl	d8204 <_Z16_fetch_usbserialv>
   d4750:	4958      	ldr	r1, [pc, #352]	; (d48b4 <_Z14WarningMessagev+0x244>)
   d4752:	f003 face 	bl	d7cf2 <_ZN5Print7printlnEPKc>
   d4756:	e08f      	b.n	d4878 <_Z14WarningMessagev+0x208>
    }
  }
  else if(qualityValue<=2&& MQval>=3){ //statement for high MQ-9 pollution
   d4758:	2b02      	cmp	r3, #2
   d475a:	dd23      	ble.n	d47a4 <_Z14WarningMessagev+0x134>
    LowQualityLED();
   d475c:	f7ff fe8a 	bl	d4474 <_Z13LowQualityLEDv>
    if(file){
   d4760:	7c23      	ldrb	r3, [r4, #16]
   d4762:	b1b3      	cbz	r3, d4792 <_Z14WarningMessagev+0x122>
      Serial.printf("MQ-9 warning. MQ-9 read: %i \n", MQval);
   d4764:	f003 fd4e 	bl	d8204 <_Z16_fetch_usbserialv>
   d4768:	f8d8 3000 	ldr.w	r3, [r8]
   d476c:	4a52      	ldr	r2, [pc, #328]	; (d48b8 <_Z14WarningMessagev+0x248>)
   d476e:	4639      	mov	r1, r7
   d4770:	f003 fae9 	bl	d7d46 <_ZN5Print11printf_implEbPKcz>
   d4774:	f8d8 3000 	ldr.w	r3, [r8]
   d4778:	4a50      	ldr	r2, [pc, #320]	; (d48bc <_Z14WarningMessagev+0x24c>)
   d477a:	4639      	mov	r1, r7
   d477c:	4620      	mov	r0, r4
   d477e:	f003 fae2 	bl	d7d46 <_ZN5Print11printf_implEbPKcz>
      file.printf("MQ-9 read: %i \n", MQval);
      file.print(currentDateTime);
   d4782:	494a      	ldr	r1, [pc, #296]	; (d48ac <_Z14WarningMessagev+0x23c>)
   d4784:	4620      	mov	r0, r4
   d4786:	f003 faa1 	bl	d7ccc <_ZN5Print5printEPKc>
      file.close();
   d478a:	f1a6 0020 	sub.w	r0, r6, #32
   d478e:	f001 ff83 	bl	d6698 <_ZN7FatFile5closeEv>
      // myDFP.playFolder(11, ); // switch to the mp3folder function
     // delay( ); // each DFP audio file needs a delay in seconds to let the audio file play
    }
    if(!file){
   d4792:	7c23      	ldrb	r3, [r4, #16]
   d4794:	2b00      	cmp	r3, #0
   d4796:	d171      	bne.n	d487c <_Z14WarningMessagev+0x20c>
      Serial.println("MQ-9 write error");
   d4798:	f003 fd34 	bl	d8204 <_Z16_fetch_usbserialv>
   d479c:	4948      	ldr	r1, [pc, #288]	; (d48c0 <_Z14WarningMessagev+0x250>)
   d479e:	f003 faa8 	bl	d7cf2 <_ZN5Print7printlnEPKc>
   d47a2:	e069      	b.n	d4878 <_Z14WarningMessagev+0x208>
    }
  }
    else if(qualityValue<=2&&MQval<=2){ // function for normal/clean readings
      HighQualityLED();
   d47a4:	f7ff fe12 	bl	d43cc <_Z14HighQualityLEDv>
      if(file){
   d47a8:	7c23      	ldrb	r3, [r4, #16]
   d47aa:	b1eb      	cbz	r3, d47e8 <_Z14WarningMessagev+0x178>
        Serial.printf("nominal reads. MQ9: %i AQ: %i Temperature: \n", MQval, qualityValue,temp);
   d47ac:	f003 fd2a 	bl	d8204 <_Z16_fetch_usbserialv>
   d47b0:	4b44      	ldr	r3, [pc, #272]	; (d48c4 <_Z14WarningMessagev+0x254>)
   d47b2:	4681      	mov	r9, r0
   d47b4:	6818      	ldr	r0, [r3, #0]
   d47b6:	f004 fe81 	bl	d94bc <__aeabi_f2d>
   d47ba:	e9cd 0102 	strd	r0, r1, [sp, #8]
   d47be:	682b      	ldr	r3, [r5, #0]
   d47c0:	4a41      	ldr	r2, [pc, #260]	; (d48c8 <_Z14WarningMessagev+0x258>)
   d47c2:	9300      	str	r3, [sp, #0]
   d47c4:	4639      	mov	r1, r7
   d47c6:	f8d8 3000 	ldr.w	r3, [r8]
   d47ca:	4648      	mov	r0, r9
   d47cc:	f003 fabb 	bl	d7d46 <_ZN5Print11printf_implEbPKcz>
        file.println("nominal readings. nothing to record");
   d47d0:	493e      	ldr	r1, [pc, #248]	; (d48cc <_Z14WarningMessagev+0x25c>)
   d47d2:	4620      	mov	r0, r4
   d47d4:	f003 fa8d 	bl	d7cf2 <_ZN5Print7printlnEPKc>
        file.print(currentDateTime);
   d47d8:	4934      	ldr	r1, [pc, #208]	; (d48ac <_Z14WarningMessagev+0x23c>)
   d47da:	4620      	mov	r0, r4
   d47dc:	f003 fa76 	bl	d7ccc <_ZN5Print5printEPKc>
        file.close();
   d47e0:	f1a6 0020 	sub.w	r0, r6, #32
   d47e4:	f001 ff58 	bl	d6698 <_ZN7FatFile5closeEv>
        // myDFP.playFolder(11, );
        // delay( );
      }
      if(!file){
   d47e8:	7c23      	ldrb	r3, [r4, #16]
   d47ea:	2b00      	cmp	r3, #0
   d47ec:	d146      	bne.n	d487c <_Z14WarningMessagev+0x20c>
        Serial.println("nominal readings write error.");
   d47ee:	f003 fd09 	bl	d8204 <_Z16_fetch_usbserialv>
   d47f2:	4937      	ldr	r1, [pc, #220]	; (d48d0 <_Z14WarningMessagev+0x260>)
   d47f4:	f003 fa7d 	bl	d7cf2 <_ZN5Print7printlnEPKc>
   d47f8:	e03e      	b.n	d4878 <_Z14WarningMessagev+0x208>
      }
    }
  else if(qualityValue>=3 && MQval>=3 && temp>=100){ //statement for high levels of all sensors Ask Brian about the temp with the stuff at the top of this function
   d47fa:	f8df 90c8 	ldr.w	r9, [pc, #200]	; d48c4 <_Z14WarningMessagev+0x254>
   d47fe:	eddf 7a35 	vldr	s15, [pc, #212]	; d48d4 <_Z14WarningMessagev+0x264>
   d4802:	ed99 7a00 	vldr	s14, [r9]
   d4806:	eeb4 7ae7 	vcmpe.f32	s14, s15
   d480a:	eef1 fa10 	vmrs	APSR_nzcv, fpscr
   d480e:	db33      	blt.n	d4878 <_Z14WarningMessagev+0x208>
    DangerLED();
   d4810:	f7ff fe5a 	bl	d44c8 <_Z9DangerLEDv>
    if(file){
   d4814:	7c23      	ldrb	r3, [r4, #16]
   d4816:	b343      	cbz	r3, d486a <_Z14WarningMessagev+0x1fa>
      Serial.printf("DANGER IMMINANT. MQ-9: %i AQ: %i Temp: %i \n", MQval, qualityValue, temp); 
   d4818:	f003 fcf4 	bl	d8204 <_Z16_fetch_usbserialv>
   d481c:	4682      	mov	sl, r0
   d481e:	f8d9 0000 	ldr.w	r0, [r9]
   d4822:	f004 fe4b 	bl	d94bc <__aeabi_f2d>
   d4826:	e9cd 0102 	strd	r0, r1, [sp, #8]
   d482a:	682b      	ldr	r3, [r5, #0]
   d482c:	4a2a      	ldr	r2, [pc, #168]	; (d48d8 <_Z14WarningMessagev+0x268>)
   d482e:	9300      	str	r3, [sp, #0]
   d4830:	4639      	mov	r1, r7
   d4832:	f8d8 3000 	ldr.w	r3, [r8]
   d4836:	4650      	mov	r0, sl
   d4838:	f003 fa85 	bl	d7d46 <_ZN5Print11printf_implEbPKcz>
   d483c:	f8d9 0000 	ldr.w	r0, [r9]
   d4840:	f004 fe3c 	bl	d94bc <__aeabi_f2d>
   d4844:	e9cd 0102 	strd	r0, r1, [sp, #8]
   d4848:	682b      	ldr	r3, [r5, #0]
   d484a:	9300      	str	r3, [sp, #0]
   d484c:	4a23      	ldr	r2, [pc, #140]	; (d48dc <_Z14WarningMessagev+0x26c>)
   d484e:	f8d8 3000 	ldr.w	r3, [r8]
   d4852:	4639      	mov	r1, r7
   d4854:	4620      	mov	r0, r4
   d4856:	f003 fa76 	bl	d7d46 <_ZN5Print11printf_implEbPKcz>
      file.printf("High Danger. MQ-9: %i AQ: %i Temp %i \n", MQval, qualityValue, temp);
      file.print(currentDateTime);
   d485a:	4914      	ldr	r1, [pc, #80]	; (d48ac <_Z14WarningMessagev+0x23c>)
   d485c:	4620      	mov	r0, r4
   d485e:	f003 fa35 	bl	d7ccc <_ZN5Print5printEPKc>
      file.close();
   d4862:	f1a6 0020 	sub.w	r0, r6, #32
   d4866:	f001 ff17 	bl	d6698 <_ZN7FatFile5closeEv>
     // myDFP.playFolder(11, );
     // delay( );
    }
    if(!file){
   d486a:	7c23      	ldrb	r3, [r4, #16]
   d486c:	b933      	cbnz	r3, d487c <_Z14WarningMessagev+0x20c>
      Serial.println("High danger write error.");
   d486e:	f003 fcc9 	bl	d8204 <_Z16_fetch_usbserialv>
   d4872:	491b      	ldr	r1, [pc, #108]	; (d48e0 <_Z14WarningMessagev+0x270>)
   d4874:	f003 fa3d 	bl	d7cf2 <_ZN5Print7printlnEPKc>
    }
  }
  if(file){ // if the files open, close it
   d4878:	7c23      	ldrb	r3, [r4, #16]
   d487a:	b113      	cbz	r3, d4882 <_Z14WarningMessagev+0x212>
    file.close();
   d487c:	4819      	ldr	r0, [pc, #100]	; (d48e4 <_Z14WarningMessagev+0x274>)
   d487e:	f001 ff0b 	bl	d6698 <_ZN7FatFile5closeEv>
    }
}
   d4882:	b012      	add	sp, #72	; 0x48
   d4884:	e8bd 87f0 	ldmia.w	sp!, {r4, r5, r6, r7, r8, r9, sl, pc}
   d4888:	2003dcf0 	.word	0x2003dcf0
   d488c:	2003e348 	.word	0x2003e348
   d4890:	2003dce8 	.word	0x2003dce8
   d4894:	2003e310 	.word	0x2003e310
   d4898:	000da05c 	.word	0x000da05c
   d489c:	000da17b 	.word	0x000da17b
   d48a0:	2003e248 	.word	0x2003e248
   d48a4:	2003e314 	.word	0x2003e314
   d48a8:	000da187 	.word	0x000da187
   d48ac:	2003e364 	.word	0x2003e364
   d48b0:	000da1aa 	.word	0x000da1aa
   d48b4:	000da1cf 	.word	0x000da1cf
   d48b8:	000da1de 	.word	0x000da1de
   d48bc:	000da1ec 	.word	0x000da1ec
   d48c0:	000da1fc 	.word	0x000da1fc
   d48c4:	2003e2c4 	.word	0x2003e2c4
   d48c8:	000da20d 	.word	0x000da20d
   d48cc:	000da23a 	.word	0x000da23a
   d48d0:	000da25e 	.word	0x000da25e
   d48d4:	42c80000 	.word	0x42c80000
   d48d8:	000da27c 	.word	0x000da27c
   d48dc:	000da2a8 	.word	0x000da2a8
   d48e0:	000da2cf 	.word	0x000da2cf
   d48e4:	2003e324 	.word	0x2003e324

000d48e8 <loop>:
 Serial.println("Initialization finished");
 attachInterrupt(Bpin, enableButton, RISING);
}

void loop() {
  qualityValue = 3;
   d48e8:	4a09      	ldr	r2, [pc, #36]	; (d4910 <loop+0x28>)
  */
 Serial.println("Initialization finished");
 attachInterrupt(Bpin, enableButton, RISING);
}

void loop() {
   d48ea:	b508      	push	{r3, lr}
  qualityValue = 3;
   d48ec:	2303      	movs	r3, #3
   d48ee:	6013      	str	r3, [r2, #0]
  MQval = 3;
   d48f0:	4a08      	ldr	r2, [pc, #32]	; (d4914 <loop+0x2c>)
   d48f2:	6013      	str	r3, [r2, #0]
  temp = 110;
   d48f4:	4b08      	ldr	r3, [pc, #32]	; (d4918 <loop+0x30>)
   d48f6:	4a09      	ldr	r2, [pc, #36]	; (d491c <loop+0x34>)
   d48f8:	601a      	str	r2, [r3, #0]
  MQTTConnect();
   d48fa:	f7ff fe0f 	bl	d451c <_Z11MQTTConnectv>
  SyncTime();
   d48fe:	f7ff fe45 	bl	d458c <_Z8SyncTimev>
  LEDBrightness();
   d4902:	f7ff fd4f 	bl	d43a4 <_Z13LEDBrightnessv>
  WarningMessage();
 // MQTTPublish();
  //myDFP.playMp3Folder(3); //switch all DFP functions to playMP3Folder
  //delay(60000);

}
   d4906:	e8bd 4008 	ldmia.w	sp!, {r3, lr}
  MQval = 3;
  temp = 110;
  MQTTConnect();
  SyncTime();
  LEDBrightness();
  WarningMessage();
   d490a:	f7ff beb1 	b.w	d4670 <_Z14WarningMessagev>
   d490e:	bf00      	nop
   d4910:	2003dcf0 	.word	0x2003dcf0
   d4914:	2003e310 	.word	0x2003e310
   d4918:	2003e2c4 	.word	0x2003e2c4
   d491c:	42dc0000 	.word	0x42dc0000

000d4920 <_ZN19Adafruit_MQTT_SPARKD0Ev>:
   d4920:	b510      	push	{r4, lr}
   d4922:	21d4      	movs	r1, #212	; 0xd4
   d4924:	4604      	mov	r4, r0
   d4926:	f004 fb09 	bl	d8f3c <_ZdlPvj>
   d492a:	4620      	mov	r0, r4
   d492c:	bd10      	pop	{r4, pc}
	...

000d4930 <_GLOBAL__sub_I_myDFP>:
}

void enableButton() //ISR for switching the neopixels on or off
{
  pixelState = !pixelState;
   d4930:	b573      	push	{r0, r1, r4, r5, r6, lr}

inline void pinSetFast(pin_t _pin) __attribute__((always_inline));
inline void pinResetFast(pin_t _pin) __attribute__((always_inline));
inline int32_t pinReadFast(pin_t _pin) __attribute__((always_inline));

static Hal_Pin_Info* PIN_MAP = HAL_Pin_Map();
   d4932:	f002 fc9f 	bl	d7274 <HAL_Pin_Map>
#define Stack_ACK 4
#define Stack_Parameter 5
#define Stack_CheckSum 7
#define Stack_End 9

class DFRobotDFPlayerMini {
   d4936:	4b49      	ldr	r3, [pc, #292]	; (d4a5c <_GLOBAL__sub_I_myDFP+0x12c>)

template <HAL_SPI_Interface Interface>
class SpiProxy {
public:
    static SPIClass& instance() {
        static SPIClass instance(Interface);
   d4938:	4e49      	ldr	r6, [pc, #292]	; (d4a60 <_GLOBAL__sub_I_myDFP+0x130>)
   d493a:	f44f 72fa 	mov.w	r2, #500	; 0x1f4
   d493e:	609a      	str	r2, [r3, #8]
   d4940:	4a48      	ldr	r2, [pc, #288]	; (d4a64 <_GLOBAL__sub_I_myDFP+0x134>)
   d4942:	6811      	ldr	r1, [r2, #0]
   d4944:	f8c3 1016 	str.w	r1, [r3, #22]
   d4948:	6851      	ldr	r1, [r2, #4]
   d494a:	8912      	ldrh	r2, [r2, #8]
   d494c:	f8c3 101a 	str.w	r1, [r3, #26]
   d4950:	83da      	strh	r2, [r3, #30]
   d4952:	2102      	movs	r1, #2
   d4954:	2200      	movs	r2, #0
   d4956:	f883 1021 	strb.w	r1, [r3, #33]	; 0x21
   d495a:	f883 2020 	strb.w	r2, [r3, #32]
   d495e:	f883 2026 	strb.w	r2, [r3, #38]	; 0x26
   d4962:	f883 2027 	strb.w	r2, [r3, #39]	; 0x27
 */
class FatVolume {
 public:
  /** Create an instance of FatVolume
   */
  FatVolume() : m_fatType(0) {}
   d4966:	4b40      	ldr	r3, [pc, #256]	; (d4a68 <_GLOBAL__sub_I_myDFP+0x138>)
#else  // ENABLE_EXTENDED_TRANSFER_CLASS || ENABLE_SDIO_CLASS
class SdSpiCard {
#endif  // ENABLE_EXTENDED_TRANSFER_CLASS || ENABLE_SDIO_CLASS
 public:
  /** Construct an instance of SdSpiCard. */
  SdSpiCard() : m_errorCode(SD_CARD_ERROR_INIT_NOT_CALLED), m_type(0) {}
   d4968:	2164      	movs	r1, #100	; 0x64
   d496a:	f883 1460 	strb.w	r1, [r3, #1120]	; 0x460
  {
  }

  __SPISettings()
  {
   d496e:	493f      	ldr	r1, [pc, #252]	; (d4a6c <_GLOBAL__sub_I_myDFP+0x13c>)
   d4970:	f8c3 1470 	str.w	r1, [r3, #1136]	; 0x470
   d4974:	2101      	movs	r1, #1
   d4976:	f883 1474 	strb.w	r1, [r3, #1140]	; 0x474
   d497a:	6831      	ldr	r1, [r6, #0]
   d497c:	71da      	strb	r2, [r3, #7]
   d497e:	f011 0501 	ands.w	r5, r1, #1
   d4982:	f883 243c 	strb.w	r2, [r3, #1084]	; 0x43c
   d4986:	f883 243d 	strb.w	r2, [r3, #1085]	; 0x43d
   d498a:	f883 246a 	strb.w	r2, [r3, #1130]	; 0x46a
   d498e:	f8c3 2478 	str.w	r2, [r3, #1144]	; 0x478
   d4992:	f883 247c 	strb.w	r2, [r3, #1148]	; 0x47c
   d4996:	f883 247d 	strb.w	r2, [r3, #1149]	; 0x47d
   d499a:	461c      	mov	r4, r3
   d499c:	d10a      	bne.n	d49b4 <_GLOBAL__sub_I_myDFP+0x84>
   d499e:	4630      	mov	r0, r6
   d49a0:	f7ff fb8a 	bl	d40b8 <__cxa_guard_acquire>
   d49a4:	b130      	cbz	r0, d49b4 <_GLOBAL__sub_I_myDFP+0x84>
   d49a6:	4629      	mov	r1, r5
   d49a8:	4831      	ldr	r0, [pc, #196]	; (d4a70 <_GLOBAL__sub_I_myDFP+0x140>)
   d49aa:	f002 ffbb 	bl	d7924 <_ZN8SPIClassC1E17HAL_SPI_Interface>
   d49ae:	4630      	mov	r0, r6
   d49b0:	f7ff fb87 	bl	d40c2 <__cxa_guard_release>
   d49b4:	482f      	ldr	r0, [pc, #188]	; (d4a74 <_GLOBAL__sub_I_myDFP+0x144>)
#if IMPLEMENT_SPI_PORT_SELECTION || defined(DOXYGEN)
  /** Set SPI port number.
   * \param[in] spiPort Hardware SPI port.
   */
  void setPort(SPIClass* spiPort) {
    m_spi = spiPort ? spiPort : &SDCARD_SPI;
   d49b6:	4b2e      	ldr	r3, [pc, #184]	; (d4a70 <_GLOBAL__sub_I_myDFP+0x140>)
File file;
  #define SD_CS_PIN SS
  #define error(msg) sd.errorHalt(msg)

/*      for subscribing | publishing        */
TCPClient TheClient;
   d49b8:	4e2f      	ldr	r6, [pc, #188]	; (d4a78 <_GLOBAL__sub_I_myDFP+0x148>)
   d49ba:	f8c4 346c 	str.w	r3, [r4, #1132]	; 0x46c
   d49be:	2500      	movs	r5, #0
    virtual int available() = 0;
    virtual int read() = 0;
    virtual int peek() = 0;
    virtual void flush() = 0;

    Stream() {_timeout=1000;}
   d49c0:	f44f 737a 	mov.w	r3, #1000	; 0x3e8
/*      for DFRobot mp3 player      */
DFRobotDFPlayerMini myDFP;

/*      for SD logging        */
SdFat SD;
File file;
   d49c4:	4a2d      	ldr	r2, [pc, #180]	; (d4a7c <_GLOBAL__sub_I_myDFP+0x14c>)
   d49c6:	492e      	ldr	r1, [pc, #184]	; (d4a80 <_GLOBAL__sub_I_myDFP+0x150>)
   d49c8:	7405      	strb	r5, [r0, #16]
   d49ca:	7445      	strb	r5, [r0, #17]
  protected:
    void setWriteError(int err = 1) { write_error = err; }
    size_t printf_impl(bool newline, const char* format, ...);

  public:
    Print() : write_error(0) {}
   d49cc:	6045      	str	r5, [r0, #4]
   d49ce:	6083      	str	r3, [r0, #8]
 public:
  File() {}
   d49d0:	4b2c      	ldr	r3, [pc, #176]	; (d4a84 <_GLOBAL__sub_I_myDFP+0x154>)
   d49d2:	6003      	str	r3, [r0, #0]
   d49d4:	f004 faa4 	bl	d8f20 <__aeabi_atexit>
  #define SD_CS_PIN SS
  #define error(msg) sd.errorHalt(msg)

/*      for subscribing | publishing        */
TCPClient TheClient;
   d49d8:	4630      	mov	r0, r6
  {}

  Adafruit_MQTT_SPARK(TCPClient *client, const char *server, uint16_t port,
                       const char *user="", const char *pass=""):
    Adafruit_MQTT(server, port, user, pass),
    client(client)
   d49da:	4c2b      	ldr	r4, [pc, #172]	; (d4a88 <_GLOBAL__sub_I_myDFP+0x158>)
   d49dc:	f004 f8d6 	bl	d8b8c <_ZN9TCPClientC1Ev>
   d49e0:	4a26      	ldr	r2, [pc, #152]	; (d4a7c <_GLOBAL__sub_I_myDFP+0x14c>)
   d49e2:	492a      	ldr	r1, [pc, #168]	; (d4a8c <_GLOBAL__sub_I_myDFP+0x15c>)
   d49e4:	4630      	mov	r0, r6
   d49e6:	f004 fa9b 	bl	d8f20 <__aeabi_atexit>
   d49ea:	4b29      	ldr	r3, [pc, #164]	; (d4a90 <_GLOBAL__sub_I_myDFP+0x160>)
   d49ec:	9300      	str	r3, [sp, #0]
   d49ee:	f240 725b 	movw	r2, #1883	; 0x75b
   d49f2:	4b28      	ldr	r3, [pc, #160]	; (d4a94 <_GLOBAL__sub_I_myDFP+0x164>)
   d49f4:	4928      	ldr	r1, [pc, #160]	; (d4a98 <_GLOBAL__sub_I_myDFP+0x168>)
   d49f6:	4620      	mov	r0, r4
   d49f8:	f000 fe1c 	bl	d5634 <_ZN13Adafruit_MQTTC1EPKctS1_S1_>
   d49fc:	4b27      	ldr	r3, [pc, #156]	; (d4a9c <_GLOBAL__sub_I_myDFP+0x16c>)
Adafruit_MQTT_SPARK mqtt(&TheClient,AIO_SERVER,AIO_SERVERPORT,AIO_USERNAME,AIO_KEY);
   d49fe:	4a1f      	ldr	r2, [pc, #124]	; (d4a7c <_GLOBAL__sub_I_myDFP+0x14c>)
   d4a00:	4927      	ldr	r1, [pc, #156]	; (d4aa0 <_GLOBAL__sub_I_myDFP+0x170>)
   d4a02:	6023      	str	r3, [r4, #0]
   d4a04:	4620      	mov	r0, r4
   d4a06:	f8c4 60d0 	str.w	r6, [r4, #208]	; 0xd0
   d4a0a:	f004 fa89 	bl	d8f20 <__aeabi_atexit>
//Adafruit_MQTT_Subscribe subData = Adafruit_MQTT_Subscribe(&mqtt, AIO_USERNAME "/feeds/ "); // put feed if any subscription needed
Adafruit_MQTT_Publish PubBME = Adafruit_MQTT_Publish(&mqtt, AIO_USERNAME "/feeds/Smart_Helmet_BME");
   d4a0e:	462b      	mov	r3, r5
   d4a10:	4621      	mov	r1, r4
   d4a12:	4a24      	ldr	r2, [pc, #144]	; (d4aa4 <_GLOBAL__sub_I_myDFP+0x174>)
   d4a14:	4824      	ldr	r0, [pc, #144]	; (d4aa8 <_GLOBAL__sub_I_myDFP+0x178>)
   d4a16:	f000 ff86 	bl	d5926 <_ZN21Adafruit_MQTT_PublishC1EP13Adafruit_MQTTPKch>
Adafruit_MQTT_Publish PubMQ9 = Adafruit_MQTT_Publish(&mqtt, AIO_USERNAME "/feeds/Smart_Helmet_MQ-9");
   d4a1a:	462b      	mov	r3, r5
   d4a1c:	4621      	mov	r1, r4
   d4a1e:	4a23      	ldr	r2, [pc, #140]	; (d4aac <_GLOBAL__sub_I_myDFP+0x17c>)
   d4a20:	4823      	ldr	r0, [pc, #140]	; (d4ab0 <_GLOBAL__sub_I_myDFP+0x180>)
   d4a22:	f000 ff80 	bl	d5926 <_ZN21Adafruit_MQTT_PublishC1EP13Adafruit_MQTTPKch>
Adafruit_MQTT_Publish PubAQ = Adafruit_MQTT_Publish(&mqtt, AIO_USERNAME "/feeds/Smart_Helmet_AirQuality");
   d4a26:	462b      	mov	r3, r5
   d4a28:	4621      	mov	r1, r4
   d4a2a:	4a22      	ldr	r2, [pc, #136]	; (d4ab4 <_GLOBAL__sub_I_myDFP+0x184>)
   d4a2c:	4822      	ldr	r0, [pc, #136]	; (d4ab8 <_GLOBAL__sub_I_myDFP+0x188>)
   d4a2e:	f000 ff7a 	bl	d5926 <_ZN21Adafruit_MQTT_PublishC1EP13Adafruit_MQTTPKch>

/*    for NeoPixels       */
  #define PIXEL_PIN A1
  #define PIXEL_COUNT 2
  #define PIXEL_TYPE WS2812B
Adafruit_NeoPixel pixel(PIXEL_COUNT,PIXEL_PIN,PIXEL_TYPE);
   d4a32:	2302      	movs	r3, #2
   d4a34:	4619      	mov	r1, r3
   d4a36:	2212      	movs	r2, #18
   d4a38:	4820      	ldr	r0, [pc, #128]	; (d4abc <_GLOBAL__sub_I_myDFP+0x18c>)
   d4a3a:	f000 fb32 	bl	d50a2 <_ZN17Adafruit_NeoPixelC1Ethh>
   d4a3e:	4a0f      	ldr	r2, [pc, #60]	; (d4a7c <_GLOBAL__sub_I_myDFP+0x14c>)
   d4a40:	491f      	ldr	r1, [pc, #124]	; (d4ac0 <_GLOBAL__sub_I_myDFP+0x190>)
   d4a42:	481e      	ldr	r0, [pc, #120]	; (d4abc <_GLOBAL__sub_I_myDFP+0x18c>)
   d4a44:	f004 fa6c 	bl	d8f20 <__aeabi_atexit>
bool buttonState = false;
bool pixelState = false;
int Bpin = D2;

/*    for AirQualitySensor use    */
AirQualitySensor senseAQ(A3);
   d4a48:	2110      	movs	r1, #16
   d4a4a:	481e      	ldr	r0, [pc, #120]	; (d4ac4 <_GLOBAL__sub_I_myDFP+0x194>)
   d4a4c:	f002 fbe6 	bl	d721c <_ZN16AirQualitySensorC1Ei>
int quality;
int AQvalue;
int qualityValue;

/*    for BME use     */
Adafruit_BME280 bme;
   d4a50:	481d      	ldr	r0, [pc, #116]	; (d4ac8 <_GLOBAL__sub_I_myDFP+0x198>)
}

void enableButton() //ISR for switching the neopixels on or off
{
  pixelState = !pixelState;
   d4a52:	b002      	add	sp, #8
   d4a54:	e8bd 4070 	ldmia.w	sp!, {r4, r5, r6, lr}
int quality;
int AQvalue;
int qualityValue;

/*    for BME use     */
Adafruit_BME280 bme;
   d4a58:	f000 b838 	b.w	d4acc <_ZN15Adafruit_BME280C1Ev>
   d4a5c:	2003e2e8 	.word	0x2003e2e8
   d4a60:	2003dcdc 	.word	0x2003dcdc
   d4a64:	000da07c 	.word	0x000da07c
   d4a68:	2003de0c 	.word	0x2003de0c
   d4a6c:	000da050 	.word	0x000da050
   d4a70:	2003dce0 	.word	0x2003dce0
   d4a74:	2003e314 	.word	0x2003e314
   d4a78:	2003e29c 	.word	0x2003e29c
   d4a7c:	2003dcd8 	.word	0x2003dcd8
   d4a80:	000d40f5 	.word	0x000d40f5
   d4a84:	000da05c 	.word	0x000da05c
   d4a88:	2003dd38 	.word	0x2003dd38
   d4a8c:	000d41ad 	.word	0x000d41ad
   d4a90:	000da304 	.word	0x000da304
   d4a94:	000da2e8 	.word	0x000da2e8
   d4a98:	000da2f4 	.word	0x000da2f4
   d4a9c:	000da3c0 	.word	0x000da3c0
   d4aa0:	000d40f7 	.word	0x000d40f7
   d4aa4:	000da325 	.word	0x000da325
   d4aa8:	2003e380 	.word	0x2003e380
   d4aac:	000da348 	.word	0x000da348
   d4ab0:	2003e290 	.word	0x2003e290
   d4ab4:	000da36c 	.word	0x000da36c
   d4ab8:	2003e2b8 	.word	0x2003e2b8
   d4abc:	2003e350 	.word	0x2003e350
   d4ac0:	000d5003 	.word	0x000d5003
   d4ac4:	2003e2c8 	.word	0x2003e2c8
   d4ac8:	2003dcf4 	.word	0x2003dcf4

000d4acc <_ZN15Adafruit_BME280C1Ev>:
/*! 
    @brief  class constructor
*/
/**************************************************************************/
Adafruit_BME280::Adafruit_BME280()
    : _cs(-1), _mosi(-1), _miso(-1), _sck(-1)
   d4acc:	22ff      	movs	r2, #255	; 0xff
   d4ace:	7402      	strb	r2, [r0, #16]
   d4ad0:	7442      	strb	r2, [r0, #17]
   d4ad2:	7482      	strb	r2, [r0, #18]
   d4ad4:	74c2      	strb	r2, [r0, #19]
{ }
   d4ad6:	4770      	bx	lr

000d4ad8 <_ZN8particle8SpiProxyIL17HAL_SPI_Interface0EE8instanceEv>:
namespace particle {

template <HAL_SPI_Interface Interface>
class SpiProxy {
public:
    static SPIClass& instance() {
   d4ad8:	b538      	push	{r3, r4, r5, lr}
        static SPIClass instance(Interface);
   d4ada:	4d09      	ldr	r5, [pc, #36]	; (d4b00 <_ZN8particle8SpiProxyIL17HAL_SPI_Interface0EE8instanceEv+0x28>)
   d4adc:	6829      	ldr	r1, [r5, #0]
   d4ade:	f011 0401 	ands.w	r4, r1, #1
   d4ae2:	d10a      	bne.n	d4afa <_ZN8particle8SpiProxyIL17HAL_SPI_Interface0EE8instanceEv+0x22>
   d4ae4:	4628      	mov	r0, r5
   d4ae6:	f7ff fae7 	bl	d40b8 <__cxa_guard_acquire>
   d4aea:	b130      	cbz	r0, d4afa <_ZN8particle8SpiProxyIL17HAL_SPI_Interface0EE8instanceEv+0x22>
   d4aec:	4621      	mov	r1, r4
   d4aee:	4805      	ldr	r0, [pc, #20]	; (d4b04 <_ZN8particle8SpiProxyIL17HAL_SPI_Interface0EE8instanceEv+0x2c>)
   d4af0:	f002 ff18 	bl	d7924 <_ZN8SPIClassC1E17HAL_SPI_Interface>
   d4af4:	4628      	mov	r0, r5
   d4af6:	f7ff fae4 	bl	d40c2 <__cxa_guard_release>
        return instance;
    }
   d4afa:	4802      	ldr	r0, [pc, #8]	; (d4b04 <_ZN8particle8SpiProxyIL17HAL_SPI_Interface0EE8instanceEv+0x2c>)
   d4afc:	bd38      	pop	{r3, r4, r5, pc}
   d4afe:	bf00      	nop
   d4b00:	2003dcdc 	.word	0x2003dcdc
   d4b04:	2003dce0 	.word	0x2003dce0

000d4b08 <_ZN15Adafruit_BME2807spixferEh>:
    @brief  Encapsulate hardware and software SPI transfer into one function
    @param x the data byte to transfer
    @returns the data byte read from the device
*/
/**************************************************************************/
uint8_t Adafruit_BME280::spixfer(uint8_t x) {
   d4b08:	e92d 41f0 	stmdb	sp!, {r4, r5, r6, r7, r8, lr}
    // hardware SPI
    if (_sck == -1)
   d4b0c:	f990 3013 	ldrsb.w	r3, [r0, #19]
   d4b10:	3301      	adds	r3, #1
    @brief  Encapsulate hardware and software SPI transfer into one function
    @param x the data byte to transfer
    @returns the data byte read from the device
*/
/**************************************************************************/
uint8_t Adafruit_BME280::spixfer(uint8_t x) {
   d4b12:	4605      	mov	r5, r0
   d4b14:	460f      	mov	r7, r1
    // hardware SPI
    if (_sck == -1)
   d4b16:	d106      	bne.n	d4b26 <_ZN15Adafruit_BME2807spixferEh+0x1e>
    }
    static void computeClockDivider(unsigned reference, unsigned targetSpeed, uint8_t& divider, unsigned& clock) {
        instance().computeClockDivider(reference, targetSpeed, divider, clock);
    }
    byte transfer(byte data) {
        return instance().transfer(data);
   d4b18:	f7ff ffde 	bl	d4ad8 <_ZN8particle8SpiProxyIL17HAL_SPI_Interface0EE8instanceEv>
   d4b1c:	4639      	mov	r1, r7
        digitalWrite(_sck, HIGH);
        if (digitalRead(_miso))
            reply |= 1;
        }
    return reply;
}
   d4b1e:	e8bd 41f0 	ldmia.w	sp!, {r4, r5, r6, r7, r8, lr}
   d4b22:	f002 bfa3 	b.w	d7a6c <_ZN8SPIClass8transferEh>
   d4b26:	2607      	movs	r6, #7
   d4b28:	2400      	movs	r4, #0
    // software SPI
    uint8_t reply = 0;
    for (int i=7; i>=0; i--) {
        reply <<= 1;
        digitalWrite(_sck, LOW);
        digitalWrite(_mosi, x & (1<<i));
   d4b2a:	f04f 0801 	mov.w	r8, #1

    // software SPI
    uint8_t reply = 0;
    for (int i=7; i>=0; i--) {
        reply <<= 1;
        digitalWrite(_sck, LOW);
   d4b2e:	f995 0013 	ldrsb.w	r0, [r5, #19]
   d4b32:	2100      	movs	r1, #0
   d4b34:	b280      	uxth	r0, r0
   d4b36:	f004 f970 	bl	d8e1a <digitalWrite>
        digitalWrite(_mosi, x & (1<<i));
   d4b3a:	f995 0011 	ldrsb.w	r0, [r5, #17]
   d4b3e:	fa08 f106 	lsl.w	r1, r8, r6
   d4b42:	4039      	ands	r1, r7
   d4b44:	b280      	uxth	r0, r0
   d4b46:	f004 f968 	bl	d8e1a <digitalWrite>
        digitalWrite(_sck, HIGH);
   d4b4a:	f995 0013 	ldrsb.w	r0, [r5, #19]
   d4b4e:	2101      	movs	r1, #1
   d4b50:	b280      	uxth	r0, r0
   d4b52:	f004 f962 	bl	d8e1a <digitalWrite>
        if (digitalRead(_miso))
   d4b56:	f995 0012 	ldrsb.w	r0, [r5, #18]
        return SPI.transfer(x);

    // software SPI
    uint8_t reply = 0;
    for (int i=7; i>=0; i--) {
        reply <<= 1;
   d4b5a:	0064      	lsls	r4, r4, #1
        digitalWrite(_sck, LOW);
        digitalWrite(_mosi, x & (1<<i));
        digitalWrite(_sck, HIGH);
        if (digitalRead(_miso))
   d4b5c:	b280      	uxth	r0, r0
        return SPI.transfer(x);

    // software SPI
    uint8_t reply = 0;
    for (int i=7; i>=0; i--) {
        reply <<= 1;
   d4b5e:	b2e4      	uxtb	r4, r4
        digitalWrite(_sck, LOW);
        digitalWrite(_mosi, x & (1<<i));
        digitalWrite(_sck, HIGH);
        if (digitalRead(_miso))
   d4b60:	f004 f974 	bl	d8e4c <digitalRead>
   d4b64:	b108      	cbz	r0, d4b6a <_ZN15Adafruit_BME2807spixferEh+0x62>
            reply |= 1;
   d4b66:	f044 0401 	orr.w	r4, r4, #1
    if (_sck == -1)
        return SPI.transfer(x);

    // software SPI
    uint8_t reply = 0;
    for (int i=7; i>=0; i--) {
   d4b6a:	f116 36ff 	adds.w	r6, r6, #4294967295
   d4b6e:	d2de      	bcs.n	d4b2e <_ZN15Adafruit_BME2807spixferEh+0x26>
        digitalWrite(_sck, HIGH);
        if (digitalRead(_miso))
            reply |= 1;
        }
    return reply;
}
   d4b70:	4620      	mov	r0, r4
   d4b72:	e8bd 81f0 	ldmia.w	sp!, {r4, r5, r6, r7, r8, pc}

000d4b76 <_ZN8particle8SpiProxyIL17HAL_SPI_Interface0EE14endTransactionEv.isra.4>:
        return instance().beginTransaction();
    }
    int32_t beginTransaction(const particle::__SPISettings& settings) {
        return instance().beginTransaction(settings);
    }
    void endTransaction() {
   d4b76:	b508      	push	{r3, lr}
        instance().endTransaction();
   d4b78:	f7ff ffae 	bl	d4ad8 <_ZN8particle8SpiProxyIL17HAL_SPI_Interface0EE8instanceEv>
    }
   d4b7c:	e8bd 4008 	ldmia.w	sp!, {r3, lr}
    }
    int32_t beginTransaction(const particle::__SPISettings& settings) {
        return instance().beginTransaction(settings);
    }
    void endTransaction() {
        instance().endTransaction();
   d4b80:	f002 beeb 	b.w	d795a <_ZN8SPIClass14endTransactionEv>

000d4b84 <_ZN8particle8SpiProxyIL17HAL_SPI_Interface0EE16beginTransactionERKNS_13__SPISettingsE.isra.3.constprop.9>:
        instance().usingInterrupt(arg);
    }
    int32_t beginTransaction() {
        return instance().beginTransaction();
    }
    int32_t beginTransaction(const particle::__SPISettings& settings) {
   d4b84:	b510      	push	{r4, lr}
   d4b86:	4604      	mov	r4, r0
        return instance().beginTransaction(settings);
   d4b88:	f7ff ffa6 	bl	d4ad8 <_ZN8particle8SpiProxyIL17HAL_SPI_Interface0EE8instanceEv>
   d4b8c:	4621      	mov	r1, r4
    }
   d4b8e:	e8bd 4010 	ldmia.w	sp!, {r4, lr}
    }
    int32_t beginTransaction() {
        return instance().beginTransaction();
    }
    int32_t beginTransaction(const particle::__SPISettings& settings) {
        return instance().beginTransaction(settings);
   d4b92:	f002 befb 	b.w	d798c <_ZN8SPIClass16beginTransactionERKN8particle13__SPISettingsE>
	...

000d4b98 <_ZN15Adafruit_BME2806read16Eh>:
    @param reg the register address to read from
    @returns the 16 bit data value read from the device
*/
/**************************************************************************/
uint16_t Adafruit_BME280::read16(byte reg)
{
   d4b98:	b530      	push	{r4, r5, lr}
    uint16_t value;

    if (_cs == -1) {
   d4b9a:	f990 3010 	ldrsb.w	r3, [r0, #16]
   d4b9e:	3301      	adds	r3, #1
    @param reg the register address to read from
    @returns the 16 bit data value read from the device
*/
/**************************************************************************/
uint16_t Adafruit_BME280::read16(byte reg)
{
   d4ba0:	b085      	sub	sp, #20
   d4ba2:	4604      	mov	r4, r0
   d4ba4:	460d      	mov	r5, r1
    uint16_t value;

    if (_cs == -1) {
   d4ba6:	d11d      	bne.n	d4be4 <_ZN15Adafruit_BME2806read16Eh+0x4c>
        _wire -> beginTransmission((uint8_t)_i2caddr);
   d4ba8:	7901      	ldrb	r1, [r0, #4]
   d4baa:	6800      	ldr	r0, [r0, #0]
   d4bac:	f003 fc77 	bl	d849e <_ZN7TwoWire17beginTransmissionEh>
        _wire -> write((uint8_t)reg);
   d4bb0:	6820      	ldr	r0, [r4, #0]
   d4bb2:	6803      	ldr	r3, [r0, #0]
   d4bb4:	4629      	mov	r1, r5
   d4bb6:	689b      	ldr	r3, [r3, #8]
   d4bb8:	4798      	blx	r3
        _wire -> endTransmission();
   d4bba:	6820      	ldr	r0, [r4, #0]
   d4bbc:	f003 fc77 	bl	d84ae <_ZN7TwoWire15endTransmissionEv>
        _wire -> requestFrom((uint8_t)_i2caddr, (byte)2);
   d4bc0:	2202      	movs	r2, #2
   d4bc2:	7921      	ldrb	r1, [r4, #4]
   d4bc4:	6820      	ldr	r0, [r4, #0]
   d4bc6:	f003 fc67 	bl	d8498 <_ZN7TwoWire11requestFromEhj>
        value = (_wire -> read() << 8) | _wire -> read();
   d4bca:	6820      	ldr	r0, [r4, #0]
   d4bcc:	6803      	ldr	r3, [r0, #0]
   d4bce:	695b      	ldr	r3, [r3, #20]
   d4bd0:	4798      	blx	r3
   d4bd2:	4605      	mov	r5, r0
   d4bd4:	6820      	ldr	r0, [r4, #0]
   d4bd6:	6803      	ldr	r3, [r0, #0]
   d4bd8:	695b      	ldr	r3, [r3, #20]
   d4bda:	4798      	blx	r3
   d4bdc:	ea40 2005 	orr.w	r0, r0, r5, lsl #8
   d4be0:	b285      	uxth	r5, r0
   d4be2:	e035      	b.n	d4c50 <_ZN15Adafruit_BME2806read16Eh+0xb8>
    } else {
        if (_sck == -1)
   d4be4:	f990 3013 	ldrsb.w	r3, [r0, #19]
   d4be8:	3301      	adds	r3, #1
   d4bea:	d10e      	bne.n	d4c0a <_ZN15Adafruit_BME2806read16Eh+0x72>
public:
  __SPISettings(uint32_t clock, uint8_t bitOrder, uint8_t dataMode)
    : default_{false},
      clock_{clock},
      bitOrder_{bitOrder},
      dataMode_{dataMode}
   d4bec:	4b1a      	ldr	r3, [pc, #104]	; (d4c58 <_ZN15Adafruit_BME2806read16Eh+0xc0>)
   d4bee:	4a1b      	ldr	r2, [pc, #108]	; (d4c5c <_ZN15Adafruit_BME2806read16Eh+0xc4>)
   d4bf0:	9300      	str	r3, [sp, #0]
   d4bf2:	9202      	str	r2, [sp, #8]
   d4bf4:	2300      	movs	r3, #0
   d4bf6:	2201      	movs	r2, #1
            SPI.beginTransaction(SPISettings(500000, MSBFIRST, SPI_MODE0));
   d4bf8:	4668      	mov	r0, sp
   d4bfa:	f88d 3004 	strb.w	r3, [sp, #4]
   d4bfe:	f88d 200c 	strb.w	r2, [sp, #12]
   d4c02:	f88d 300d 	strb.w	r3, [sp, #13]
   d4c06:	f7ff ffbd 	bl	d4b84 <_ZN8particle8SpiProxyIL17HAL_SPI_Interface0EE16beginTransactionERKNS_13__SPISettingsE.isra.3.constprop.9>
        digitalWrite(_cs, LOW);
   d4c0a:	f994 0010 	ldrsb.w	r0, [r4, #16]
   d4c0e:	2100      	movs	r1, #0
   d4c10:	b280      	uxth	r0, r0
   d4c12:	f004 f902 	bl	d8e1a <digitalWrite>
        spixfer(reg | 0x80); // read, bit 7 high
   d4c16:	f045 0180 	orr.w	r1, r5, #128	; 0x80
   d4c1a:	4620      	mov	r0, r4
   d4c1c:	f7ff ff74 	bl	d4b08 <_ZN15Adafruit_BME2807spixferEh>
        value = (spixfer(0) << 8) | spixfer(0);
   d4c20:	2100      	movs	r1, #0
   d4c22:	4620      	mov	r0, r4
   d4c24:	f7ff ff70 	bl	d4b08 <_ZN15Adafruit_BME2807spixferEh>
   d4c28:	2100      	movs	r1, #0
   d4c2a:	4605      	mov	r5, r0
   d4c2c:	4620      	mov	r0, r4
   d4c2e:	f7ff ff6b 	bl	d4b08 <_ZN15Adafruit_BME2807spixferEh>
   d4c32:	ea40 2005 	orr.w	r0, r0, r5, lsl #8
   d4c36:	b285      	uxth	r5, r0
        digitalWrite(_cs, HIGH);
   d4c38:	f994 0010 	ldrsb.w	r0, [r4, #16]
   d4c3c:	2101      	movs	r1, #1
   d4c3e:	b280      	uxth	r0, r0
   d4c40:	f004 f8eb 	bl	d8e1a <digitalWrite>
        if (_sck == -1)
   d4c44:	f994 3013 	ldrsb.w	r3, [r4, #19]
   d4c48:	3301      	adds	r3, #1
   d4c4a:	d101      	bne.n	d4c50 <_ZN15Adafruit_BME2806read16Eh+0xb8>
            SPI.endTransaction(); // release the SPI bus
   d4c4c:	f7ff ff93 	bl	d4b76 <_ZN8particle8SpiProxyIL17HAL_SPI_Interface0EE14endTransactionEv.isra.4>
    }

    return value;
}
   d4c50:	4628      	mov	r0, r5
   d4c52:	b005      	add	sp, #20
   d4c54:	bd30      	pop	{r4, r5, pc}
   d4c56:	bf00      	nop
   d4c58:	000da050 	.word	0x000da050
   d4c5c:	0007a120 	.word	0x0007a120

000d4c60 <_ZN15Adafruit_BME2809read16_LEEh>:
    @brief  Reads a signed 16 bit little endian value over I2C or SPI
    @param reg the register address to read from
    @returns the 16 bit data value read from the device
*/
/**************************************************************************/
uint16_t Adafruit_BME280::read16_LE(byte reg) {
   d4c60:	b508      	push	{r3, lr}
    uint16_t temp = read16(reg);
   d4c62:	f7ff ff99 	bl	d4b98 <_ZN15Adafruit_BME2806read16Eh>
    return (temp >> 8) | (temp << 8);
   d4c66:	ba40      	rev16	r0, r0
}
   d4c68:	b280      	uxth	r0, r0
   d4c6a:	bd08      	pop	{r3, pc}

000d4c6c <_ZN15Adafruit_BME2805read8Eh>:
    @brief  Reads an 8 bit value over I2C or SPI
    @param reg the register address to read from
    @returns the data byte read from the device
*/
/**************************************************************************/
uint8_t Adafruit_BME280::read8(byte reg) {
   d4c6c:	b530      	push	{r4, r5, lr}
    uint8_t value;
    
    if (_cs == -1) {
   d4c6e:	f990 3010 	ldrsb.w	r3, [r0, #16]
   d4c72:	3301      	adds	r3, #1
    @brief  Reads an 8 bit value over I2C or SPI
    @param reg the register address to read from
    @returns the data byte read from the device
*/
/**************************************************************************/
uint8_t Adafruit_BME280::read8(byte reg) {
   d4c74:	b085      	sub	sp, #20
   d4c76:	4604      	mov	r4, r0
   d4c78:	460d      	mov	r5, r1
    uint8_t value;
    
    if (_cs == -1) {
   d4c7a:	d116      	bne.n	d4caa <_ZN15Adafruit_BME2805read8Eh+0x3e>
        _wire -> beginTransmission((uint8_t)_i2caddr);
   d4c7c:	7901      	ldrb	r1, [r0, #4]
   d4c7e:	6800      	ldr	r0, [r0, #0]
   d4c80:	f003 fc0d 	bl	d849e <_ZN7TwoWire17beginTransmissionEh>
        _wire -> write((uint8_t)reg);
   d4c84:	6820      	ldr	r0, [r4, #0]
   d4c86:	6803      	ldr	r3, [r0, #0]
   d4c88:	4629      	mov	r1, r5
   d4c8a:	689b      	ldr	r3, [r3, #8]
   d4c8c:	4798      	blx	r3
        _wire -> endTransmission();
   d4c8e:	6820      	ldr	r0, [r4, #0]
   d4c90:	f003 fc0d 	bl	d84ae <_ZN7TwoWire15endTransmissionEv>
        _wire -> requestFrom((uint8_t)_i2caddr, (byte)1);
   d4c94:	2201      	movs	r2, #1
   d4c96:	7921      	ldrb	r1, [r4, #4]
   d4c98:	6820      	ldr	r0, [r4, #0]
   d4c9a:	f003 fbfd 	bl	d8498 <_ZN7TwoWire11requestFromEhj>
        value = _wire -> read();
   d4c9e:	6820      	ldr	r0, [r4, #0]
   d4ca0:	6803      	ldr	r3, [r0, #0]
   d4ca2:	695b      	ldr	r3, [r3, #20]
   d4ca4:	4798      	blx	r3
   d4ca6:	b2c5      	uxtb	r5, r0
   d4ca8:	e02e      	b.n	d4d08 <_ZN15Adafruit_BME2805read8Eh+0x9c>
    } else {
        if (_sck == -1)
   d4caa:	f990 3013 	ldrsb.w	r3, [r0, #19]
   d4cae:	3301      	adds	r3, #1
   d4cb0:	d10e      	bne.n	d4cd0 <_ZN15Adafruit_BME2805read8Eh+0x64>
   d4cb2:	4b17      	ldr	r3, [pc, #92]	; (d4d10 <_ZN15Adafruit_BME2805read8Eh+0xa4>)
   d4cb4:	4a17      	ldr	r2, [pc, #92]	; (d4d14 <_ZN15Adafruit_BME2805read8Eh+0xa8>)
   d4cb6:	9300      	str	r3, [sp, #0]
   d4cb8:	9202      	str	r2, [sp, #8]
   d4cba:	2300      	movs	r3, #0
   d4cbc:	2201      	movs	r2, #1
            SPI.beginTransaction(SPISettings(500000, MSBFIRST, SPI_MODE0));
   d4cbe:	4668      	mov	r0, sp
   d4cc0:	f88d 3004 	strb.w	r3, [sp, #4]
   d4cc4:	f88d 200c 	strb.w	r2, [sp, #12]
   d4cc8:	f88d 300d 	strb.w	r3, [sp, #13]
   d4ccc:	f7ff ff5a 	bl	d4b84 <_ZN8particle8SpiProxyIL17HAL_SPI_Interface0EE16beginTransactionERKNS_13__SPISettingsE.isra.3.constprop.9>
        digitalWrite(_cs, LOW);
   d4cd0:	f994 0010 	ldrsb.w	r0, [r4, #16]
   d4cd4:	2100      	movs	r1, #0
   d4cd6:	b280      	uxth	r0, r0
   d4cd8:	f004 f89f 	bl	d8e1a <digitalWrite>
        spixfer(reg | 0x80); // read, bit 7 high
   d4cdc:	f045 0180 	orr.w	r1, r5, #128	; 0x80
   d4ce0:	4620      	mov	r0, r4
   d4ce2:	f7ff ff11 	bl	d4b08 <_ZN15Adafruit_BME2807spixferEh>
        value = spixfer(0);
   d4ce6:	2100      	movs	r1, #0
   d4ce8:	4620      	mov	r0, r4
   d4cea:	f7ff ff0d 	bl	d4b08 <_ZN15Adafruit_BME2807spixferEh>
   d4cee:	4605      	mov	r5, r0
        digitalWrite(_cs, HIGH);
   d4cf0:	f994 0010 	ldrsb.w	r0, [r4, #16]
   d4cf4:	2101      	movs	r1, #1
   d4cf6:	b280      	uxth	r0, r0
   d4cf8:	f004 f88f 	bl	d8e1a <digitalWrite>
        if (_sck == -1)
   d4cfc:	f994 3013 	ldrsb.w	r3, [r4, #19]
   d4d00:	3301      	adds	r3, #1
   d4d02:	d101      	bne.n	d4d08 <_ZN15Adafruit_BME2805read8Eh+0x9c>
            SPI.endTransaction(); // release the SPI bus
   d4d04:	f7ff ff37 	bl	d4b76 <_ZN8particle8SpiProxyIL17HAL_SPI_Interface0EE14endTransactionEv.isra.4>
    }
    return value;
}
   d4d08:	4628      	mov	r0, r5
   d4d0a:	b005      	add	sp, #20
   d4d0c:	bd30      	pop	{r4, r5, pc}
   d4d0e:	bf00      	nop
   d4d10:	000da050 	.word	0x000da050
   d4d14:	0007a120 	.word	0x0007a120

000d4d18 <_ZN15Adafruit_BME28020isReadingCalibrationEv>:
    @brief return true if chip is busy reading cal data
    @returns true if reading calibration, false otherwise
*/
/**************************************************************************/
bool Adafruit_BME280::isReadingCalibration(void)
{
   d4d18:	b508      	push	{r3, lr}
  uint8_t const rStatus = read8(BME280_REGISTER_STATUS);
   d4d1a:	21f3      	movs	r1, #243	; 0xf3
   d4d1c:	f7ff ffa6 	bl	d4c6c <_ZN15Adafruit_BME2805read8Eh>

  return (rStatus & (1 << 0)) != 0;
}
   d4d20:	f000 0001 	and.w	r0, r0, #1
   d4d24:	bd08      	pop	{r3, pc}

000d4d26 <_ZN15Adafruit_BME28016readCoefficientsEv>:
/*!
    @brief  Reads the factory-set coefficients
*/
/**************************************************************************/
void Adafruit_BME280::readCoefficients(void)
{
   d4d26:	b538      	push	{r3, r4, r5, lr}
    _bme280_calib.dig_T1 = read16_LE(BME280_REGISTER_DIG_T1);
   d4d28:	2188      	movs	r1, #136	; 0x88
/*!
    @brief  Reads the factory-set coefficients
*/
/**************************************************************************/
void Adafruit_BME280::readCoefficients(void)
{
   d4d2a:	4604      	mov	r4, r0
    _bme280_calib.dig_T1 = read16_LE(BME280_REGISTER_DIG_T1);
   d4d2c:	f7ff ff98 	bl	d4c60 <_ZN15Adafruit_BME2809read16_LEEh>
    @returns the 16 bit data value read from the device
*/
/**************************************************************************/
int16_t Adafruit_BME280::readS16_LE(byte reg)
{
    return (int16_t)read16_LE(reg);
   d4d30:	218a      	movs	r1, #138	; 0x8a
    @brief  Reads the factory-set coefficients
*/
/**************************************************************************/
void Adafruit_BME280::readCoefficients(void)
{
    _bme280_calib.dig_T1 = read16_LE(BME280_REGISTER_DIG_T1);
   d4d32:	82a0      	strh	r0, [r4, #20]
    @returns the 16 bit data value read from the device
*/
/**************************************************************************/
int16_t Adafruit_BME280::readS16_LE(byte reg)
{
    return (int16_t)read16_LE(reg);
   d4d34:	4620      	mov	r0, r4
   d4d36:	f7ff ff93 	bl	d4c60 <_ZN15Adafruit_BME2809read16_LEEh>
   d4d3a:	218c      	movs	r1, #140	; 0x8c
*/
/**************************************************************************/
void Adafruit_BME280::readCoefficients(void)
{
    _bme280_calib.dig_T1 = read16_LE(BME280_REGISTER_DIG_T1);
    _bme280_calib.dig_T2 = readS16_LE(BME280_REGISTER_DIG_T2);
   d4d3c:	82e0      	strh	r0, [r4, #22]
    @returns the 16 bit data value read from the device
*/
/**************************************************************************/
int16_t Adafruit_BME280::readS16_LE(byte reg)
{
    return (int16_t)read16_LE(reg);
   d4d3e:	4620      	mov	r0, r4
   d4d40:	f7ff ff8e 	bl	d4c60 <_ZN15Adafruit_BME2809read16_LEEh>
{
    _bme280_calib.dig_T1 = read16_LE(BME280_REGISTER_DIG_T1);
    _bme280_calib.dig_T2 = readS16_LE(BME280_REGISTER_DIG_T2);
    _bme280_calib.dig_T3 = readS16_LE(BME280_REGISTER_DIG_T3);

    _bme280_calib.dig_P1 = read16_LE(BME280_REGISTER_DIG_P1);
   d4d44:	218e      	movs	r1, #142	; 0x8e
/**************************************************************************/
void Adafruit_BME280::readCoefficients(void)
{
    _bme280_calib.dig_T1 = read16_LE(BME280_REGISTER_DIG_T1);
    _bme280_calib.dig_T2 = readS16_LE(BME280_REGISTER_DIG_T2);
    _bme280_calib.dig_T3 = readS16_LE(BME280_REGISTER_DIG_T3);
   d4d46:	8320      	strh	r0, [r4, #24]

    _bme280_calib.dig_P1 = read16_LE(BME280_REGISTER_DIG_P1);
   d4d48:	4620      	mov	r0, r4
   d4d4a:	f7ff ff89 	bl	d4c60 <_ZN15Adafruit_BME2809read16_LEEh>
    @returns the 16 bit data value read from the device
*/
/**************************************************************************/
int16_t Adafruit_BME280::readS16_LE(byte reg)
{
    return (int16_t)read16_LE(reg);
   d4d4e:	2190      	movs	r1, #144	; 0x90
{
    _bme280_calib.dig_T1 = read16_LE(BME280_REGISTER_DIG_T1);
    _bme280_calib.dig_T2 = readS16_LE(BME280_REGISTER_DIG_T2);
    _bme280_calib.dig_T3 = readS16_LE(BME280_REGISTER_DIG_T3);

    _bme280_calib.dig_P1 = read16_LE(BME280_REGISTER_DIG_P1);
   d4d50:	8360      	strh	r0, [r4, #26]
    @returns the 16 bit data value read from the device
*/
/**************************************************************************/
int16_t Adafruit_BME280::readS16_LE(byte reg)
{
    return (int16_t)read16_LE(reg);
   d4d52:	4620      	mov	r0, r4
   d4d54:	f7ff ff84 	bl	d4c60 <_ZN15Adafruit_BME2809read16_LEEh>
   d4d58:	2192      	movs	r1, #146	; 0x92
    _bme280_calib.dig_T1 = read16_LE(BME280_REGISTER_DIG_T1);
    _bme280_calib.dig_T2 = readS16_LE(BME280_REGISTER_DIG_T2);
    _bme280_calib.dig_T3 = readS16_LE(BME280_REGISTER_DIG_T3);

    _bme280_calib.dig_P1 = read16_LE(BME280_REGISTER_DIG_P1);
    _bme280_calib.dig_P2 = readS16_LE(BME280_REGISTER_DIG_P2);
   d4d5a:	83a0      	strh	r0, [r4, #28]
    @returns the 16 bit data value read from the device
*/
/**************************************************************************/
int16_t Adafruit_BME280::readS16_LE(byte reg)
{
    return (int16_t)read16_LE(reg);
   d4d5c:	4620      	mov	r0, r4
   d4d5e:	f7ff ff7f 	bl	d4c60 <_ZN15Adafruit_BME2809read16_LEEh>
   d4d62:	2194      	movs	r1, #148	; 0x94
    _bme280_calib.dig_T2 = readS16_LE(BME280_REGISTER_DIG_T2);
    _bme280_calib.dig_T3 = readS16_LE(BME280_REGISTER_DIG_T3);

    _bme280_calib.dig_P1 = read16_LE(BME280_REGISTER_DIG_P1);
    _bme280_calib.dig_P2 = readS16_LE(BME280_REGISTER_DIG_P2);
    _bme280_calib.dig_P3 = readS16_LE(BME280_REGISTER_DIG_P3);
   d4d64:	83e0      	strh	r0, [r4, #30]
    @returns the 16 bit data value read from the device
*/
/**************************************************************************/
int16_t Adafruit_BME280::readS16_LE(byte reg)
{
    return (int16_t)read16_LE(reg);
   d4d66:	4620      	mov	r0, r4
   d4d68:	f7ff ff7a 	bl	d4c60 <_ZN15Adafruit_BME2809read16_LEEh>
   d4d6c:	2196      	movs	r1, #150	; 0x96
    _bme280_calib.dig_T3 = readS16_LE(BME280_REGISTER_DIG_T3);

    _bme280_calib.dig_P1 = read16_LE(BME280_REGISTER_DIG_P1);
    _bme280_calib.dig_P2 = readS16_LE(BME280_REGISTER_DIG_P2);
    _bme280_calib.dig_P3 = readS16_LE(BME280_REGISTER_DIG_P3);
    _bme280_calib.dig_P4 = readS16_LE(BME280_REGISTER_DIG_P4);
   d4d6e:	8420      	strh	r0, [r4, #32]
    @returns the 16 bit data value read from the device
*/
/**************************************************************************/
int16_t Adafruit_BME280::readS16_LE(byte reg)
{
    return (int16_t)read16_LE(reg);
   d4d70:	4620      	mov	r0, r4
   d4d72:	f7ff ff75 	bl	d4c60 <_ZN15Adafruit_BME2809read16_LEEh>
   d4d76:	2198      	movs	r1, #152	; 0x98

    _bme280_calib.dig_P1 = read16_LE(BME280_REGISTER_DIG_P1);
    _bme280_calib.dig_P2 = readS16_LE(BME280_REGISTER_DIG_P2);
    _bme280_calib.dig_P3 = readS16_LE(BME280_REGISTER_DIG_P3);
    _bme280_calib.dig_P4 = readS16_LE(BME280_REGISTER_DIG_P4);
    _bme280_calib.dig_P5 = readS16_LE(BME280_REGISTER_DIG_P5);
   d4d78:	8460      	strh	r0, [r4, #34]	; 0x22
    @returns the 16 bit data value read from the device
*/
/**************************************************************************/
int16_t Adafruit_BME280::readS16_LE(byte reg)
{
    return (int16_t)read16_LE(reg);
   d4d7a:	4620      	mov	r0, r4
   d4d7c:	f7ff ff70 	bl	d4c60 <_ZN15Adafruit_BME2809read16_LEEh>
   d4d80:	219a      	movs	r1, #154	; 0x9a
    _bme280_calib.dig_P1 = read16_LE(BME280_REGISTER_DIG_P1);
    _bme280_calib.dig_P2 = readS16_LE(BME280_REGISTER_DIG_P2);
    _bme280_calib.dig_P3 = readS16_LE(BME280_REGISTER_DIG_P3);
    _bme280_calib.dig_P4 = readS16_LE(BME280_REGISTER_DIG_P4);
    _bme280_calib.dig_P5 = readS16_LE(BME280_REGISTER_DIG_P5);
    _bme280_calib.dig_P6 = readS16_LE(BME280_REGISTER_DIG_P6);
   d4d82:	84a0      	strh	r0, [r4, #36]	; 0x24
    @returns the 16 bit data value read from the device
*/
/**************************************************************************/
int16_t Adafruit_BME280::readS16_LE(byte reg)
{
    return (int16_t)read16_LE(reg);
   d4d84:	4620      	mov	r0, r4
   d4d86:	f7ff ff6b 	bl	d4c60 <_ZN15Adafruit_BME2809read16_LEEh>
   d4d8a:	219c      	movs	r1, #156	; 0x9c
    _bme280_calib.dig_P2 = readS16_LE(BME280_REGISTER_DIG_P2);
    _bme280_calib.dig_P3 = readS16_LE(BME280_REGISTER_DIG_P3);
    _bme280_calib.dig_P4 = readS16_LE(BME280_REGISTER_DIG_P4);
    _bme280_calib.dig_P5 = readS16_LE(BME280_REGISTER_DIG_P5);
    _bme280_calib.dig_P6 = readS16_LE(BME280_REGISTER_DIG_P6);
    _bme280_calib.dig_P7 = readS16_LE(BME280_REGISTER_DIG_P7);
   d4d8c:	84e0      	strh	r0, [r4, #38]	; 0x26
    @returns the 16 bit data value read from the device
*/
/**************************************************************************/
int16_t Adafruit_BME280::readS16_LE(byte reg)
{
    return (int16_t)read16_LE(reg);
   d4d8e:	4620      	mov	r0, r4
   d4d90:	f7ff ff66 	bl	d4c60 <_ZN15Adafruit_BME2809read16_LEEh>
   d4d94:	219e      	movs	r1, #158	; 0x9e
    _bme280_calib.dig_P3 = readS16_LE(BME280_REGISTER_DIG_P3);
    _bme280_calib.dig_P4 = readS16_LE(BME280_REGISTER_DIG_P4);
    _bme280_calib.dig_P5 = readS16_LE(BME280_REGISTER_DIG_P5);
    _bme280_calib.dig_P6 = readS16_LE(BME280_REGISTER_DIG_P6);
    _bme280_calib.dig_P7 = readS16_LE(BME280_REGISTER_DIG_P7);
    _bme280_calib.dig_P8 = readS16_LE(BME280_REGISTER_DIG_P8);
   d4d96:	8520      	strh	r0, [r4, #40]	; 0x28
    @returns the 16 bit data value read from the device
*/
/**************************************************************************/
int16_t Adafruit_BME280::readS16_LE(byte reg)
{
    return (int16_t)read16_LE(reg);
   d4d98:	4620      	mov	r0, r4
   d4d9a:	f7ff ff61 	bl	d4c60 <_ZN15Adafruit_BME2809read16_LEEh>
    _bme280_calib.dig_P6 = readS16_LE(BME280_REGISTER_DIG_P6);
    _bme280_calib.dig_P7 = readS16_LE(BME280_REGISTER_DIG_P7);
    _bme280_calib.dig_P8 = readS16_LE(BME280_REGISTER_DIG_P8);
    _bme280_calib.dig_P9 = readS16_LE(BME280_REGISTER_DIG_P9);

    _bme280_calib.dig_H1 = read8(BME280_REGISTER_DIG_H1);
   d4d9e:	21a1      	movs	r1, #161	; 0xa1
    _bme280_calib.dig_P4 = readS16_LE(BME280_REGISTER_DIG_P4);
    _bme280_calib.dig_P5 = readS16_LE(BME280_REGISTER_DIG_P5);
    _bme280_calib.dig_P6 = readS16_LE(BME280_REGISTER_DIG_P6);
    _bme280_calib.dig_P7 = readS16_LE(BME280_REGISTER_DIG_P7);
    _bme280_calib.dig_P8 = readS16_LE(BME280_REGISTER_DIG_P8);
    _bme280_calib.dig_P9 = readS16_LE(BME280_REGISTER_DIG_P9);
   d4da0:	8560      	strh	r0, [r4, #42]	; 0x2a

    _bme280_calib.dig_H1 = read8(BME280_REGISTER_DIG_H1);
   d4da2:	4620      	mov	r0, r4
   d4da4:	f7ff ff62 	bl	d4c6c <_ZN15Adafruit_BME2805read8Eh>
    @returns the 16 bit data value read from the device
*/
/**************************************************************************/
int16_t Adafruit_BME280::readS16_LE(byte reg)
{
    return (int16_t)read16_LE(reg);
   d4da8:	21e1      	movs	r1, #225	; 0xe1
    _bme280_calib.dig_P6 = readS16_LE(BME280_REGISTER_DIG_P6);
    _bme280_calib.dig_P7 = readS16_LE(BME280_REGISTER_DIG_P7);
    _bme280_calib.dig_P8 = readS16_LE(BME280_REGISTER_DIG_P8);
    _bme280_calib.dig_P9 = readS16_LE(BME280_REGISTER_DIG_P9);

    _bme280_calib.dig_H1 = read8(BME280_REGISTER_DIG_H1);
   d4daa:	f884 002c 	strb.w	r0, [r4, #44]	; 0x2c
    @returns the 16 bit data value read from the device
*/
/**************************************************************************/
int16_t Adafruit_BME280::readS16_LE(byte reg)
{
    return (int16_t)read16_LE(reg);
   d4dae:	4620      	mov	r0, r4
   d4db0:	f7ff ff56 	bl	d4c60 <_ZN15Adafruit_BME2809read16_LEEh>
    _bme280_calib.dig_P8 = readS16_LE(BME280_REGISTER_DIG_P8);
    _bme280_calib.dig_P9 = readS16_LE(BME280_REGISTER_DIG_P9);

    _bme280_calib.dig_H1 = read8(BME280_REGISTER_DIG_H1);
    _bme280_calib.dig_H2 = readS16_LE(BME280_REGISTER_DIG_H2);
    _bme280_calib.dig_H3 = read8(BME280_REGISTER_DIG_H3);
   d4db4:	21e3      	movs	r1, #227	; 0xe3
    _bme280_calib.dig_P7 = readS16_LE(BME280_REGISTER_DIG_P7);
    _bme280_calib.dig_P8 = readS16_LE(BME280_REGISTER_DIG_P8);
    _bme280_calib.dig_P9 = readS16_LE(BME280_REGISTER_DIG_P9);

    _bme280_calib.dig_H1 = read8(BME280_REGISTER_DIG_H1);
    _bme280_calib.dig_H2 = readS16_LE(BME280_REGISTER_DIG_H2);
   d4db6:	85e0      	strh	r0, [r4, #46]	; 0x2e
    _bme280_calib.dig_H3 = read8(BME280_REGISTER_DIG_H3);
   d4db8:	4620      	mov	r0, r4
   d4dba:	f7ff ff57 	bl	d4c6c <_ZN15Adafruit_BME2805read8Eh>
    _bme280_calib.dig_H4 = (read8(BME280_REGISTER_DIG_H4) << 4) | (read8(BME280_REGISTER_DIG_H4+1) & 0xF);
   d4dbe:	21e4      	movs	r1, #228	; 0xe4
    _bme280_calib.dig_P8 = readS16_LE(BME280_REGISTER_DIG_P8);
    _bme280_calib.dig_P9 = readS16_LE(BME280_REGISTER_DIG_P9);

    _bme280_calib.dig_H1 = read8(BME280_REGISTER_DIG_H1);
    _bme280_calib.dig_H2 = readS16_LE(BME280_REGISTER_DIG_H2);
    _bme280_calib.dig_H3 = read8(BME280_REGISTER_DIG_H3);
   d4dc0:	f884 0030 	strb.w	r0, [r4, #48]	; 0x30
    _bme280_calib.dig_H4 = (read8(BME280_REGISTER_DIG_H4) << 4) | (read8(BME280_REGISTER_DIG_H4+1) & 0xF);
   d4dc4:	4620      	mov	r0, r4
   d4dc6:	f7ff ff51 	bl	d4c6c <_ZN15Adafruit_BME2805read8Eh>
   d4dca:	21e5      	movs	r1, #229	; 0xe5
   d4dcc:	4605      	mov	r5, r0
   d4dce:	4620      	mov	r0, r4
   d4dd0:	f7ff ff4c 	bl	d4c6c <_ZN15Adafruit_BME2805read8Eh>
   d4dd4:	f000 000f 	and.w	r0, r0, #15
   d4dd8:	ea40 1005 	orr.w	r0, r0, r5, lsl #4
   d4ddc:	8660      	strh	r0, [r4, #50]	; 0x32
    _bme280_calib.dig_H5 = (read8(BME280_REGISTER_DIG_H5+1) << 4) | (read8(BME280_REGISTER_DIG_H5) >> 4);
   d4dde:	21e6      	movs	r1, #230	; 0xe6
   d4de0:	4620      	mov	r0, r4
   d4de2:	f7ff ff43 	bl	d4c6c <_ZN15Adafruit_BME2805read8Eh>
   d4de6:	21e5      	movs	r1, #229	; 0xe5
   d4de8:	4605      	mov	r5, r0
   d4dea:	4620      	mov	r0, r4
   d4dec:	f7ff ff3e 	bl	d4c6c <_ZN15Adafruit_BME2805read8Eh>
   d4df0:	1100      	asrs	r0, r0, #4
   d4df2:	ea40 1005 	orr.w	r0, r0, r5, lsl #4
   d4df6:	86a0      	strh	r0, [r4, #52]	; 0x34
    _bme280_calib.dig_H6 = (int8_t)read8(BME280_REGISTER_DIG_H6);
   d4df8:	21e7      	movs	r1, #231	; 0xe7
   d4dfa:	4620      	mov	r0, r4
   d4dfc:	f7ff ff36 	bl	d4c6c <_ZN15Adafruit_BME2805read8Eh>
   d4e00:	f884 0036 	strb.w	r0, [r4, #54]	; 0x36
   d4e04:	bd38      	pop	{r3, r4, r5, pc}
	...

000d4e08 <_ZN15Adafruit_BME2806write8Ehh>:
    @brief  Writes an 8 bit value over I2C or SPI
    @param reg the register address to write to
    @param value the value to write to the register
*/
/**************************************************************************/
void Adafruit_BME280::write8(byte reg, byte value) {
   d4e08:	b57f      	push	{r0, r1, r2, r3, r4, r5, r6, lr}
    if (_cs == -1) {
   d4e0a:	f990 3010 	ldrsb.w	r3, [r0, #16]
   d4e0e:	3301      	adds	r3, #1
    @brief  Writes an 8 bit value over I2C or SPI
    @param reg the register address to write to
    @param value the value to write to the register
*/
/**************************************************************************/
void Adafruit_BME280::write8(byte reg, byte value) {
   d4e10:	4604      	mov	r4, r0
   d4e12:	460e      	mov	r6, r1
   d4e14:	4615      	mov	r5, r2
    if (_cs == -1) {
   d4e16:	d111      	bne.n	d4e3c <_ZN15Adafruit_BME2806write8Ehh+0x34>
        _wire -> beginTransmission((uint8_t)_i2caddr);
   d4e18:	7901      	ldrb	r1, [r0, #4]
   d4e1a:	6800      	ldr	r0, [r0, #0]
   d4e1c:	f003 fb3f 	bl	d849e <_ZN7TwoWire17beginTransmissionEh>
        _wire -> write((uint8_t)reg);
   d4e20:	6820      	ldr	r0, [r4, #0]
   d4e22:	6803      	ldr	r3, [r0, #0]
   d4e24:	4631      	mov	r1, r6
   d4e26:	689b      	ldr	r3, [r3, #8]
   d4e28:	4798      	blx	r3
        _wire -> write((uint8_t)value);
   d4e2a:	6820      	ldr	r0, [r4, #0]
   d4e2c:	6803      	ldr	r3, [r0, #0]
   d4e2e:	4629      	mov	r1, r5
   d4e30:	689b      	ldr	r3, [r3, #8]
   d4e32:	4798      	blx	r3
        _wire -> endTransmission();
   d4e34:	6820      	ldr	r0, [r4, #0]
   d4e36:	f003 fb3a 	bl	d84ae <_ZN7TwoWire15endTransmissionEv>
   d4e3a:	e02d      	b.n	d4e98 <_ZN15Adafruit_BME2806write8Ehh+0x90>
    } else {
        if (_sck == -1)
   d4e3c:	f990 3013 	ldrsb.w	r3, [r0, #19]
   d4e40:	3301      	adds	r3, #1
   d4e42:	d10e      	bne.n	d4e62 <_ZN15Adafruit_BME2806write8Ehh+0x5a>
   d4e44:	4b15      	ldr	r3, [pc, #84]	; (d4e9c <_ZN15Adafruit_BME2806write8Ehh+0x94>)
   d4e46:	4a16      	ldr	r2, [pc, #88]	; (d4ea0 <_ZN15Adafruit_BME2806write8Ehh+0x98>)
   d4e48:	9300      	str	r3, [sp, #0]
   d4e4a:	9202      	str	r2, [sp, #8]
   d4e4c:	2300      	movs	r3, #0
   d4e4e:	2201      	movs	r2, #1
            SPI.beginTransaction(SPISettings(500000, MSBFIRST, SPI_MODE0));
   d4e50:	4668      	mov	r0, sp
   d4e52:	f88d 3004 	strb.w	r3, [sp, #4]
   d4e56:	f88d 200c 	strb.w	r2, [sp, #12]
   d4e5a:	f88d 300d 	strb.w	r3, [sp, #13]
   d4e5e:	f7ff fe91 	bl	d4b84 <_ZN8particle8SpiProxyIL17HAL_SPI_Interface0EE16beginTransactionERKNS_13__SPISettingsE.isra.3.constprop.9>
        digitalWrite(_cs, LOW);
   d4e62:	f994 0010 	ldrsb.w	r0, [r4, #16]
   d4e66:	2100      	movs	r1, #0
   d4e68:	b280      	uxth	r0, r0
   d4e6a:	f003 ffd6 	bl	d8e1a <digitalWrite>
        spixfer(reg & ~0x80); // write, bit 7 low
   d4e6e:	f006 017f 	and.w	r1, r6, #127	; 0x7f
   d4e72:	4620      	mov	r0, r4
   d4e74:	f7ff fe48 	bl	d4b08 <_ZN15Adafruit_BME2807spixferEh>
        spixfer(value);
   d4e78:	4629      	mov	r1, r5
   d4e7a:	4620      	mov	r0, r4
   d4e7c:	f7ff fe44 	bl	d4b08 <_ZN15Adafruit_BME2807spixferEh>
        digitalWrite(_cs, HIGH);
   d4e80:	f994 0010 	ldrsb.w	r0, [r4, #16]
   d4e84:	2101      	movs	r1, #1
   d4e86:	b280      	uxth	r0, r0
   d4e88:	f003 ffc7 	bl	d8e1a <digitalWrite>
    if (_sck == -1)
   d4e8c:	f994 3013 	ldrsb.w	r3, [r4, #19]
   d4e90:	3301      	adds	r3, #1
   d4e92:	d101      	bne.n	d4e98 <_ZN15Adafruit_BME2806write8Ehh+0x90>
        SPI.endTransaction(); // release the SPI bus
   d4e94:	f7ff fe6f 	bl	d4b76 <_ZN8particle8SpiProxyIL17HAL_SPI_Interface0EE14endTransactionEv.isra.4>
    }
}
   d4e98:	b004      	add	sp, #16
   d4e9a:	bd70      	pop	{r4, r5, r6, pc}
   d4e9c:	000da050 	.word	0x000da050
   d4ea0:	0007a120 	.word	0x0007a120

000d4ea4 <_ZN15Adafruit_BME28011setSamplingENS_11sensor_modeENS_15sensor_samplingES1_S1_NS_13sensor_filterENS_16standby_durationE>:
void Adafruit_BME280::setSampling(sensor_mode       mode,
		 sensor_sampling   tempSampling,
		 sensor_sampling   pressSampling,
		 sensor_sampling   humSampling,
		 sensor_filter     filter,
		 standby_duration  duration) {
   d4ea4:	b5f8      	push	{r3, r4, r5, r6, r7, lr}
    _measReg.mode     = mode;
   d4ea6:	f890 503c 	ldrb.w	r5, [r0, #60]	; 0x3c
void Adafruit_BME280::setSampling(sensor_mode       mode,
		 sensor_sampling   tempSampling,
		 sensor_sampling   pressSampling,
		 sensor_sampling   humSampling,
		 sensor_filter     filter,
		 standby_duration  duration) {
   d4eaa:	f89d 6018 	ldrb.w	r6, [sp, #24]
   d4eae:	f89d e01c 	ldrb.w	lr, [sp, #28]
   d4eb2:	f89d 7020 	ldrb.w	r7, [sp, #32]
    _measReg.mode     = mode;
   d4eb6:	f361 1587 	bfi	r5, r1, #6, #2
    _measReg.osrs_t   = tempSampling;
   d4eba:	f362 0502 	bfi	r5, r2, #0, #3
    _measReg.osrs_p   = pressSampling;
   d4ebe:	f363 05c5 	bfi	r5, r3, #3, #3
        
    
    _humReg.osrs_h    = humSampling;
   d4ec2:	f890 3040 	ldrb.w	r3, [r0, #64]	; 0x40
		 sensor_sampling   humSampling,
		 sensor_filter     filter,
		 standby_duration  duration) {
    _measReg.mode     = mode;
    _measReg.osrs_t   = tempSampling;
    _measReg.osrs_p   = pressSampling;
   d4ec6:	f880 503c 	strb.w	r5, [r0, #60]	; 0x3c
        
    
    _humReg.osrs_h    = humSampling;
   d4eca:	f366 1347 	bfi	r3, r6, #5, #3
   d4ece:	f880 3040 	strb.w	r3, [r0, #64]	; 0x40
    _configReg.filter = filter;
   d4ed2:	f890 3038 	ldrb.w	r3, [r0, #56]	; 0x38
   d4ed6:	f36e 03c5 	bfi	r3, lr, #3, #3
void Adafruit_BME280::setSampling(sensor_mode       mode,
		 sensor_sampling   tempSampling,
		 sensor_sampling   pressSampling,
		 sensor_sampling   humSampling,
		 sensor_filter     filter,
		 standby_duration  duration) {
   d4eda:	4604      	mov	r4, r0
    _measReg.osrs_p   = pressSampling;
        
    
    _humReg.osrs_h    = humSampling;
    _configReg.filter = filter;
    _configReg.t_sb   = duration;
   d4edc:	f367 0302 	bfi	r3, r7, #0, #3
   d4ee0:	f880 3038 	strb.w	r3, [r0, #56]	; 0x38

    
    // you must make sure to also set REGISTER_CONTROL after setting the
    // CONTROLHUMID register, otherwise the values won't be applied (see DS 5.4.3)
    write8(BME280_REGISTER_CONTROLHUMID, _humReg.get());
   d4ee4:	f006 0207 	and.w	r2, r6, #7
   d4ee8:	21f2      	movs	r1, #242	; 0xf2
   d4eea:	f7ff ff8d 	bl	d4e08 <_ZN15Adafruit_BME2806write8Ehh>
            unsigned int none : 1;  ///< unused - don't set
            unsigned int spi3w_en : 1; ///< unused - don't set

            /// @return combined config register
            unsigned int get() {
                return (t_sb << 5) | (filter << 2) | spi3w_en;
   d4eee:	f894 2038 	ldrb.w	r2, [r4, #56]	; 0x38
    write8(BME280_REGISTER_CONFIG, _configReg.get());
   d4ef2:	f3c2 03c2 	ubfx	r3, r2, #3, #3
   d4ef6:	f002 0107 	and.w	r1, r2, #7
   d4efa:	009b      	lsls	r3, r3, #2
   d4efc:	ea43 1341 	orr.w	r3, r3, r1, lsl #5
   d4f00:	ea43 12d2 	orr.w	r2, r3, r2, lsr #7
   d4f04:	4620      	mov	r0, r4
   d4f06:	21f5      	movs	r1, #245	; 0xf5
   d4f08:	f7ff ff7e 	bl	d4e08 <_ZN15Adafruit_BME2806write8Ehh>
            // 11       = normal
            unsigned int mode : 2; ///< device mode

            /// @return combined ctrl register
            unsigned int get() {
                return (osrs_t << 5) | (osrs_p << 2) | mode;
   d4f0c:	f894 203c 	ldrb.w	r2, [r4, #60]	; 0x3c
    write8(BME280_REGISTER_CONTROL, _measReg.get());
   d4f10:	f3c2 03c2 	ubfx	r3, r2, #3, #3
   d4f14:	f002 0107 	and.w	r1, r2, #7
   d4f18:	009b      	lsls	r3, r3, #2
   d4f1a:	ea43 1341 	orr.w	r3, r3, r1, lsl #5
   d4f1e:	ea43 1292 	orr.w	r2, r3, r2, lsr #6
   d4f22:	4620      	mov	r0, r4
   d4f24:	21f4      	movs	r1, #244	; 0xf4
}
   d4f26:	e8bd 40f8 	ldmia.w	sp!, {r3, r4, r5, r6, r7, lr}
    
    // you must make sure to also set REGISTER_CONTROL after setting the
    // CONTROLHUMID register, otherwise the values won't be applied (see DS 5.4.3)
    write8(BME280_REGISTER_CONTROLHUMID, _humReg.get());
    write8(BME280_REGISTER_CONFIG, _configReg.get());
    write8(BME280_REGISTER_CONTROL, _measReg.get());
   d4f2a:	f7ff bf6d 	b.w	d4e08 <_ZN15Adafruit_BME2806write8Ehh>

000d4f2e <_ZN15Adafruit_BME2804initEv>:
    @brief  Initialise sensor with given parameters / settings
    @returns true on success, false otherwise
*/
/**************************************************************************/
bool Adafruit_BME280::init()
{
   d4f2e:	b530      	push	{r4, r5, lr}
   d4f30:	4604      	mov	r4, r0
    // init I2C or SPI sensor interface
    if (_cs == -1) {
   d4f32:	f990 0010 	ldrsb.w	r0, [r0, #16]
   d4f36:	1c42      	adds	r2, r0, #1
    @brief  Initialise sensor with given parameters / settings
    @returns true on success, false otherwise
*/
/**************************************************************************/
bool Adafruit_BME280::init()
{
   d4f38:	b085      	sub	sp, #20
    // init I2C or SPI sensor interface
    if (_cs == -1) {
   d4f3a:	d103      	bne.n	d4f44 <_ZN15Adafruit_BME2804initEv+0x16>
        // I2C
        _wire -> begin();
   d4f3c:	6820      	ldr	r0, [r4, #0]
   d4f3e:	f003 fa77 	bl	d8430 <_ZN7TwoWire5beginEv>
   d4f42:	e022      	b.n	d4f8a <_ZN15Adafruit_BME2804initEv+0x5c>
    } else {
        digitalWrite(_cs, HIGH);
   d4f44:	2101      	movs	r1, #1
   d4f46:	b280      	uxth	r0, r0
   d4f48:	f003 ff67 	bl	d8e1a <digitalWrite>
        pinMode(_cs, OUTPUT);
   d4f4c:	f994 0010 	ldrsb.w	r0, [r4, #16]
   d4f50:	2101      	movs	r1, #1
   d4f52:	b280      	uxth	r0, r0
   d4f54:	f003 ff50 	bl	d8df8 <pinMode>
        if (_sck == -1) {
   d4f58:	f994 0013 	ldrsb.w	r0, [r4, #19]
   d4f5c:	1c43      	adds	r3, r0, #1
   d4f5e:	d104      	bne.n	d4f6a <_ZN15Adafruit_BME2804initEv+0x3c>
        static SPIClass instance(Interface);
        return instance;
    }

    void begin() {
        instance().begin();
   d4f60:	f7ff fdba 	bl	d4ad8 <_ZN8particle8SpiProxyIL17HAL_SPI_Interface0EE8instanceEv>
   d4f64:	f002 fce8 	bl	d7938 <_ZN8SPIClass5beginEv>
   d4f68:	e00f      	b.n	d4f8a <_ZN15Adafruit_BME2804initEv+0x5c>
            // hardware SPI
            SPI.begin();
        } else {
            // software SPI
            pinMode(_sck, OUTPUT);
   d4f6a:	2101      	movs	r1, #1
   d4f6c:	b280      	uxth	r0, r0
   d4f6e:	f003 ff43 	bl	d8df8 <pinMode>
            pinMode(_mosi, OUTPUT);
   d4f72:	f994 0011 	ldrsb.w	r0, [r4, #17]
   d4f76:	2101      	movs	r1, #1
   d4f78:	b280      	uxth	r0, r0
   d4f7a:	f003 ff3d 	bl	d8df8 <pinMode>
            pinMode(_miso, INPUT);
   d4f7e:	f994 0012 	ldrsb.w	r0, [r4, #18]
   d4f82:	2100      	movs	r1, #0
   d4f84:	b280      	uxth	r0, r0
   d4f86:	f003 ff37 	bl	d8df8 <pinMode>
        }
    }

    // check if sensor, i.e. the chip ID is correct
    _sensorID = read8(BME280_REGISTER_CHIPID);
   d4f8a:	21d0      	movs	r1, #208	; 0xd0
   d4f8c:	4620      	mov	r0, r4
   d4f8e:	f7ff fe6d 	bl	d4c6c <_ZN15Adafruit_BME2805read8Eh>
    if (_sensorID != 0x60)
   d4f92:	2860      	cmp	r0, #96	; 0x60
            pinMode(_miso, INPUT);
        }
    }

    // check if sensor, i.e. the chip ID is correct
    _sensorID = read8(BME280_REGISTER_CHIPID);
   d4f94:	60a0      	str	r0, [r4, #8]
    if (_sensorID != 0x60)
   d4f96:	d120      	bne.n	d4fda <_ZN15Adafruit_BME2804initEv+0xac>
        return false;

    // reset the device using soft-reset
    // this makes sure the IIR is off, etc.
    write8(BME280_REGISTER_SOFTRESET, 0xB6);
   d4f98:	4620      	mov	r0, r4
   d4f9a:	22b6      	movs	r2, #182	; 0xb6
   d4f9c:	21e0      	movs	r1, #224	; 0xe0
   d4f9e:	f7ff ff33 	bl	d4e08 <_ZN15Adafruit_BME2806write8Ehh>

    // wait for chip to wake up.
    delay(300);
   d4fa2:	f44f 7096 	mov.w	r0, #300	; 0x12c
   d4fa6:	f002 ff9b 	bl	d7ee0 <delay>

    // if chip is still reading calibration, delay
    while (isReadingCalibration())
   d4faa:	4620      	mov	r0, r4
   d4fac:	f7ff feb4 	bl	d4d18 <_ZN15Adafruit_BME28020isReadingCalibrationEv>
   d4fb0:	4605      	mov	r5, r0
   d4fb2:	b108      	cbz	r0, d4fb8 <_ZN15Adafruit_BME2804initEv+0x8a>
          delay(100);
   d4fb4:	2064      	movs	r0, #100	; 0x64
   d4fb6:	e7f6      	b.n	d4fa6 <_ZN15Adafruit_BME2804initEv+0x78>

    readCoefficients(); // read trimming parameters, see DS 4.2.2
   d4fb8:	4620      	mov	r0, r4
   d4fba:	f7ff feb4 	bl	d4d26 <_ZN15Adafruit_BME28016readCoefficientsEv>

    setSampling(); // use defaults
   d4fbe:	2305      	movs	r3, #5
   d4fc0:	9300      	str	r3, [sp, #0]
   d4fc2:	461a      	mov	r2, r3
   d4fc4:	2103      	movs	r1, #3
   d4fc6:	4620      	mov	r0, r4
   d4fc8:	9502      	str	r5, [sp, #8]
   d4fca:	9501      	str	r5, [sp, #4]
   d4fcc:	f7ff ff6a 	bl	d4ea4 <_ZN15Adafruit_BME28011setSamplingENS_11sensor_modeENS_15sensor_samplingES1_S1_NS_13sensor_filterENS_16standby_durationE>

    delay(100);
   d4fd0:	2064      	movs	r0, #100	; 0x64
   d4fd2:	f002 ff85 	bl	d7ee0 <delay>
   d4fd6:	2001      	movs	r0, #1
   d4fd8:	e000      	b.n	d4fdc <_ZN15Adafruit_BME2804initEv+0xae>
    }

    // check if sensor, i.e. the chip ID is correct
    _sensorID = read8(BME280_REGISTER_CHIPID);
    if (_sensorID != 0x60)
        return false;
   d4fda:	2000      	movs	r0, #0
    setSampling(); // use defaults

    delay(100);

    return true;
}
   d4fdc:	b005      	add	sp, #20
   d4fde:	bd30      	pop	{r4, r5, pc}

000d4fe0 <_ZN15Adafruit_BME2805beginEh>:
    @param addr the I2C address the device can be found on
    @returns true on success, false otherwise
*/
/**************************************************************************/
bool Adafruit_BME280::begin(uint8_t addr)
{
   d4fe0:	b510      	push	{r4, lr}
	_i2caddr = addr;
   d4fe2:	7101      	strb	r1, [r0, #4]
    @param addr the I2C address the device can be found on
    @returns true on success, false otherwise
*/
/**************************************************************************/
bool Adafruit_BME280::begin(uint8_t addr)
{
   d4fe4:	4604      	mov	r4, r0
	_i2caddr = addr;
	_wire = &Wire;
   d4fe6:	f003 ff75 	bl	d8ed4 <_Z19__fetch_global_Wirev>
   d4fea:	6020      	str	r0, [r4, #0]
	return init();
   d4fec:	4620      	mov	r0, r4
}
   d4fee:	e8bd 4010 	ldmia.w	sp!, {r4, lr}
/**************************************************************************/
bool Adafruit_BME280::begin(uint8_t addr)
{
	_i2caddr = addr;
	_wire = &Wire;
	return init();
   d4ff2:	f7ff bf9c 	b.w	d4f2e <_ZN15Adafruit_BME2804initEv>

000d4ff6 <_GLOBAL__sub_I__ZN15Adafruit_BME280C2Ev>:
   d4ff6:	f002 b93d 	b.w	d7274 <HAL_Pin_Map>

000d4ffa <micros>:
#ifdef __cplusplus
extern "C" {
#endif

inline system_tick_t millis(void) { return HAL_Timer_Get_Milli_Seconds(); }
inline unsigned long micros(void) { return HAL_Timer_Get_Micro_Seconds(); }
   d4ffa:	f002 b9eb 	b.w	d73d4 <HAL_Timer_Get_Micro_Seconds>

000d4ffe <delayMicroseconds>:
void delay(unsigned long ms);
inline void delayMicroseconds(unsigned int us) { HAL_Delay_Microseconds(us); }
   d4ffe:	f002 b9e1 	b.w	d73c4 <HAL_Delay_Microseconds>

000d5002 <_ZN17Adafruit_NeoPixelD1Ev>:
{
  updateLength(n);
  setPin(p);
}

Adafruit_NeoPixel::~Adafruit_NeoPixel() {
   d5002:	b510      	push	{r4, lr}
   d5004:	4604      	mov	r4, r0
  if (pixels) free(pixels);
   d5006:	68c0      	ldr	r0, [r0, #12]
   d5008:	b108      	cbz	r0, d500e <_ZN17Adafruit_NeoPixelD1Ev+0xc>
   d500a:	f002 fc0f 	bl	d782c <free>
  if (begun) pinMode(pin, INPUT);
   d500e:	7823      	ldrb	r3, [r4, #0]
   d5010:	b11b      	cbz	r3, d501a <_ZN17Adafruit_NeoPixelD1Ev+0x18>
   d5012:	2100      	movs	r1, #0
   d5014:	79e0      	ldrb	r0, [r4, #7]
   d5016:	f003 feef 	bl	d8df8 <pinMode>
}
   d501a:	4620      	mov	r0, r4
   d501c:	bd10      	pop	{r4, pc}

000d501e <_ZN17Adafruit_NeoPixel12updateLengthEt>:

void Adafruit_NeoPixel::updateLength(uint16_t n) {
   d501e:	b538      	push	{r3, r4, r5, lr}
   d5020:	4604      	mov	r4, r0
  if (pixels) free(pixels); // Free existing data (if any)
   d5022:	68c0      	ldr	r0, [r0, #12]
Adafruit_NeoPixel::~Adafruit_NeoPixel() {
  if (pixels) free(pixels);
  if (begun) pinMode(pin, INPUT);
}

void Adafruit_NeoPixel::updateLength(uint16_t n) {
   d5024:	460d      	mov	r5, r1
  if (pixels) free(pixels); // Free existing data (if any)
   d5026:	b108      	cbz	r0, d502c <_ZN17Adafruit_NeoPixel12updateLengthEt+0xe>
   d5028:	f002 fc00 	bl	d782c <free>

  // Allocate new data -- note: ALL PIXELS ARE CLEARED
  numBytes = n * ((type == SK6812RGBW) ? 4 : 3);
   d502c:	79a3      	ldrb	r3, [r4, #6]
   d502e:	2b06      	cmp	r3, #6
   d5030:	bf0c      	ite	eq
   d5032:	2004      	moveq	r0, #4
   d5034:	2003      	movne	r0, #3
   d5036:	fb10 f005 	smulbb	r0, r0, r5
   d503a:	b280      	uxth	r0, r0
   d503c:	80a0      	strh	r0, [r4, #4]
  if ((pixels = (uint8_t *)malloc(numBytes))) {
   d503e:	f002 fbed 	bl	d781c <malloc>
   d5042:	60e0      	str	r0, [r4, #12]
   d5044:	b128      	cbz	r0, d5052 <_ZN17Adafruit_NeoPixel12updateLengthEt+0x34>
    memset(pixels, 0, numBytes);
   d5046:	88a2      	ldrh	r2, [r4, #4]
   d5048:	2100      	movs	r1, #0
   d504a:	f004 fbe7 	bl	d981c <memset>
    numLEDs = n;
   d504e:	8065      	strh	r5, [r4, #2]
   d5050:	bd38      	pop	{r3, r4, r5, pc}
  } else {
    numLEDs = numBytes = 0;
   d5052:	80a0      	strh	r0, [r4, #4]
   d5054:	8060      	strh	r0, [r4, #2]
   d5056:	bd38      	pop	{r3, r4, r5, pc}

000d5058 <_ZN17Adafruit_NeoPixel5beginEv>:
  }
}

void Adafruit_NeoPixel::begin(void) {
   d5058:	b510      	push	{r4, lr}
   d505a:	4604      	mov	r4, r0
  pinMode(pin, OUTPUT);
   d505c:	2101      	movs	r1, #1
   d505e:	79c0      	ldrb	r0, [r0, #7]
   d5060:	f003 feca 	bl	d8df8 <pinMode>
  digitalWrite(pin, LOW);
   d5064:	2100      	movs	r1, #0
   d5066:	79e0      	ldrb	r0, [r4, #7]
   d5068:	f003 fed7 	bl	d8e1a <digitalWrite>
  begun = true;
   d506c:	2301      	movs	r3, #1
   d506e:	7023      	strb	r3, [r4, #0]
   d5070:	bd10      	pop	{r4, pc}

000d5072 <_ZN17Adafruit_NeoPixel6setPinEh>:
}

// Set the output pin number
void Adafruit_NeoPixel::setPin(uint8_t p) {
   d5072:	b538      	push	{r3, r4, r5, lr}
    if (begun) {
   d5074:	7803      	ldrb	r3, [r0, #0]
  digitalWrite(pin, LOW);
  begun = true;
}

// Set the output pin number
void Adafruit_NeoPixel::setPin(uint8_t p) {
   d5076:	4605      	mov	r5, r0
   d5078:	460c      	mov	r4, r1
    if (begun) {
   d507a:	b11b      	cbz	r3, d5084 <_ZN17Adafruit_NeoPixel6setPinEh+0x12>
        pinMode(pin, INPUT);
   d507c:	2100      	movs	r1, #0
   d507e:	79c0      	ldrb	r0, [r0, #7]
   d5080:	f003 feba 	bl	d8df8 <pinMode>
    }
    pin = p;
    if (begun) {
   d5084:	782b      	ldrb	r3, [r5, #0]
// Set the output pin number
void Adafruit_NeoPixel::setPin(uint8_t p) {
    if (begun) {
        pinMode(pin, INPUT);
    }
    pin = p;
   d5086:	71ec      	strb	r4, [r5, #7]
    if (begun) {
   d5088:	b153      	cbz	r3, d50a0 <_ZN17Adafruit_NeoPixel6setPinEh+0x2e>
        pinMode(p, OUTPUT);
   d508a:	b2a4      	uxth	r4, r4
   d508c:	4620      	mov	r0, r4
   d508e:	2101      	movs	r1, #1
   d5090:	f003 feb2 	bl	d8df8 <pinMode>
        digitalWrite(p, LOW);
   d5094:	4620      	mov	r0, r4
   d5096:	2100      	movs	r1, #0
    }
}
   d5098:	e8bd 4038 	ldmia.w	sp!, {r3, r4, r5, lr}
        pinMode(pin, INPUT);
    }
    pin = p;
    if (begun) {
        pinMode(p, OUTPUT);
        digitalWrite(p, LOW);
   d509c:	f003 bebd 	b.w	d8e1a <digitalWrite>
   d50a0:	bd38      	pop	{r3, r4, r5, pc}

000d50a2 <_ZN17Adafruit_NeoPixelC1Ethh>:
  #error "*** PLATFORM_ID not supported by this library. PLATFORM should be Particle Core, Photon, Electron, Argon, Boron, Xenon and RedBear Duo ***"
#endif
// fast pin access
#define pinSet(_pin, _hilo) (_hilo ? pinHI(_pin) : pinLO(_pin))

Adafruit_NeoPixel::Adafruit_NeoPixel(uint16_t n, uint8_t p, uint8_t t) :
   d50a2:	b570      	push	{r4, r5, r6, lr}
  begun(false), type(t), brightness(0), pixels(NULL), endTime(0)
   d50a4:	2500      	movs	r5, #0
  #error "*** PLATFORM_ID not supported by this library. PLATFORM should be Particle Core, Photon, Electron, Argon, Boron, Xenon and RedBear Duo ***"
#endif
// fast pin access
#define pinSet(_pin, _hilo) (_hilo ? pinHI(_pin) : pinLO(_pin))

Adafruit_NeoPixel::Adafruit_NeoPixel(uint16_t n, uint8_t p, uint8_t t) :
   d50a6:	4604      	mov	r4, r0
   d50a8:	4616      	mov	r6, r2
  begun(false), type(t), brightness(0), pixels(NULL), endTime(0)
   d50aa:	7183      	strb	r3, [r0, #6]
   d50ac:	7005      	strb	r5, [r0, #0]
   d50ae:	7205      	strb	r5, [r0, #8]
   d50b0:	60c5      	str	r5, [r0, #12]
   d50b2:	6105      	str	r5, [r0, #16]
{
  updateLength(n);
   d50b4:	f7ff ffb3 	bl	d501e <_ZN17Adafruit_NeoPixel12updateLengthEt>
  setPin(p);
   d50b8:	4620      	mov	r0, r4
   d50ba:	4631      	mov	r1, r6
   d50bc:	f7ff ffd9 	bl	d5072 <_ZN17Adafruit_NeoPixel6setPinEh>
}
   d50c0:	4620      	mov	r0, r4
   d50c2:	bd70      	pop	{r4, r5, r6, pc}

000d50c4 <_ZN17Adafruit_NeoPixel4showEv>:
        digitalWrite(p, LOW);
    }
}

void Adafruit_NeoPixel::show(void) {
  if(!pixels) return;
   d50c4:	68c3      	ldr	r3, [r0, #12]
   d50c6:	2b00      	cmp	r3, #0
   d50c8:	f000 818b 	beq.w	d53e2 <_ZN17Adafruit_NeoPixel4showEv+0x31e>
        pinMode(p, OUTPUT);
        digitalWrite(p, LOW);
    }
}

void Adafruit_NeoPixel::show(void) {
   d50cc:	e92d 4ff0 	stmdb	sp!, {r4, r5, r6, r7, r8, r9, sl, fp, lr}
   d50d0:	7983      	ldrb	r3, [r0, #6]
   d50d2:	3b02      	subs	r3, #2
   d50d4:	b2db      	uxtb	r3, r3
   d50d6:	2b04      	cmp	r3, #4
   d50d8:	bf9c      	itt	ls
   d50da:	4ac4      	ldrls	r2, [pc, #784]	; (d53ec <_ZN17Adafruit_NeoPixel4showEv+0x328>)
   d50dc:	f852 4023 	ldrls.w	r4, [r2, r3, lsl #2]
   d50e0:	b087      	sub	sp, #28
   d50e2:	4605      	mov	r5, r0
  // the function will simply hold off (if needed) on issuing the
  // subsequent round of data until the latch time has elapsed.  This
  // allows the mainline code to start generating the next frame of data
  // rather than stalling for the latch.
  uint32_t wait_time; // wait time in microseconds.
  switch(type) {
   d50e4:	bf88      	it	hi
   d50e6:	2432      	movhi	r4, #50	; 0x32
    case WS2812B2_FAST:
    default: {   // default = 50us reset pulse
        wait_time = 50L;
      } break;
  }
  while((micros() - endTime) < wait_time);
   d50e8:	f7ff ff87 	bl	d4ffa <micros>
   d50ec:	692b      	ldr	r3, [r5, #16]
   d50ee:	1ac0      	subs	r0, r0, r3
   d50f0:	42a0      	cmp	r0, r4
   d50f2:	d3f9      	bcc.n	d50e8 <_ZN17Adafruit_NeoPixel4showEv+0x24>

  NRF_PWM_Type* pwm = NULL;

  // Try to find a free PWM device, which is not enabled
  // and has no connected pins
  NRF_PWM_Type* PWM[3] = {NRF_PWM0, NRF_PWM1, NRF_PWM2};
   d50f4:	4abe      	ldr	r2, [pc, #760]	; (d53f0 <_ZN17Adafruit_NeoPixel4showEv+0x32c>)
  // The two additional bytes at the end are needed to reset the
  // sequence.
  //
  // If there is not enough memory, we will fall back to cycle counter
  // using DWT
  uint32_t  pattern_size   = numBytes*8*sizeof(uint16_t)+2*sizeof(uint16_t);
   d50f6:	88ab      	ldrh	r3, [r5, #4]

  NRF_PWM_Type* pwm = NULL;

  // Try to find a free PWM device, which is not enabled
  // and has no connected pins
  NRF_PWM_Type* PWM[3] = {NRF_PWM0, NRF_PWM1, NRF_PWM2};
   d50f8:	ca07      	ldmia	r2, {r0, r1, r2}
   d50fa:	ac06      	add	r4, sp, #24
   d50fc:	e904 0007 	stmdb	r4, {r0, r1, r2}
  for(int device = 0; device<3; device++) {
    if( (PWM[device]->ENABLE == 0)                            &&
   d5100:	9c03      	ldr	r4, [sp, #12]
  // The two additional bytes at the end are needed to reset the
  // sequence.
  //
  // If there is not enough memory, we will fall back to cycle counter
  // using DWT
  uint32_t  pattern_size   = numBytes*8*sizeof(uint16_t)+2*sizeof(uint16_t);
   d5102:	011b      	lsls	r3, r3, #4

  // Try to find a free PWM device, which is not enabled
  // and has no connected pins
  NRF_PWM_Type* PWM[3] = {NRF_PWM0, NRF_PWM1, NRF_PWM2};
  for(int device = 0; device<3; device++) {
    if( (PWM[device]->ENABLE == 0)                            &&
   d5104:	f8d4 2500 	ldr.w	r2, [r4, #1280]	; 0x500
  // The two additional bytes at the end are needed to reset the
  // sequence.
  //
  // If there is not enough memory, we will fall back to cycle counter
  // using DWT
  uint32_t  pattern_size   = numBytes*8*sizeof(uint16_t)+2*sizeof(uint16_t);
   d5108:	3304      	adds	r3, #4
   d510a:	9301      	str	r3, [sp, #4]
  NRF_PWM_Type* PWM[3] = {NRF_PWM0, NRF_PWM1, NRF_PWM2};
  for(int device = 0; device<3; device++) {
    if( (PWM[device]->ENABLE == 0)                            &&
        (PWM[device]->PSEL.OUT[0] & PWM_PSEL_OUT_CONNECT_Msk) &&
        (PWM[device]->PSEL.OUT[1] & PWM_PSEL_OUT_CONNECT_Msk) &&
        (PWM[device]->PSEL.OUT[2] & PWM_PSEL_OUT_CONNECT_Msk) &&
   d510c:	b922      	cbnz	r2, d5118 <_ZN17Adafruit_NeoPixel4showEv+0x54>
  // Try to find a free PWM device, which is not enabled
  // and has no connected pins
  NRF_PWM_Type* PWM[3] = {NRF_PWM0, NRF_PWM1, NRF_PWM2};
  for(int device = 0; device<3; device++) {
    if( (PWM[device]->ENABLE == 0)                            &&
        (PWM[device]->PSEL.OUT[0] & PWM_PSEL_OUT_CONNECT_Msk) &&
   d510e:	f8d4 3560 	ldr.w	r3, [r4, #1376]	; 0x560

  // Try to find a free PWM device, which is not enabled
  // and has no connected pins
  NRF_PWM_Type* PWM[3] = {NRF_PWM0, NRF_PWM1, NRF_PWM2};
  for(int device = 0; device<3; device++) {
    if( (PWM[device]->ENABLE == 0)                            &&
   d5112:	2b00      	cmp	r3, #0
   d5114:	f2c0 8155 	blt.w	d53c2 <_ZN17Adafruit_NeoPixel4showEv+0x2fe>
   d5118:	9c04      	ldr	r4, [sp, #16]
   d511a:	f8d4 3500 	ldr.w	r3, [r4, #1280]	; 0x500
        (PWM[device]->PSEL.OUT[0] & PWM_PSEL_OUT_CONNECT_Msk) &&
        (PWM[device]->PSEL.OUT[1] & PWM_PSEL_OUT_CONNECT_Msk) &&
        (PWM[device]->PSEL.OUT[2] & PWM_PSEL_OUT_CONNECT_Msk) &&
   d511e:	b923      	cbnz	r3, d512a <_ZN17Adafruit_NeoPixel4showEv+0x66>
  // Try to find a free PWM device, which is not enabled
  // and has no connected pins
  NRF_PWM_Type* PWM[3] = {NRF_PWM0, NRF_PWM1, NRF_PWM2};
  for(int device = 0; device<3; device++) {
    if( (PWM[device]->ENABLE == 0)                            &&
        (PWM[device]->PSEL.OUT[0] & PWM_PSEL_OUT_CONNECT_Msk) &&
   d5120:	f8d4 3560 	ldr.w	r3, [r4, #1376]	; 0x560

  // Try to find a free PWM device, which is not enabled
  // and has no connected pins
  NRF_PWM_Type* PWM[3] = {NRF_PWM0, NRF_PWM1, NRF_PWM2};
  for(int device = 0; device<3; device++) {
    if( (PWM[device]->ENABLE == 0)                            &&
   d5124:	2b00      	cmp	r3, #0
   d5126:	f2c0 813c 	blt.w	d53a2 <_ZN17Adafruit_NeoPixel4showEv+0x2de>
   d512a:	9c05      	ldr	r4, [sp, #20]
   d512c:	f8d4 3500 	ldr.w	r3, [r4, #1280]	; 0x500
        (PWM[device]->PSEL.OUT[0] & PWM_PSEL_OUT_CONNECT_Msk) &&
        (PWM[device]->PSEL.OUT[1] & PWM_PSEL_OUT_CONNECT_Msk) &&
        (PWM[device]->PSEL.OUT[2] & PWM_PSEL_OUT_CONNECT_Msk) &&
   d5130:	b91b      	cbnz	r3, d513a <_ZN17Adafruit_NeoPixel4showEv+0x76>
  // Try to find a free PWM device, which is not enabled
  // and has no connected pins
  NRF_PWM_Type* PWM[3] = {NRF_PWM0, NRF_PWM1, NRF_PWM2};
  for(int device = 0; device<3; device++) {
    if( (PWM[device]->ENABLE == 0)                            &&
        (PWM[device]->PSEL.OUT[0] & PWM_PSEL_OUT_CONNECT_Msk) &&
   d5132:	f8d4 3560 	ldr.w	r3, [r4, #1376]	; 0x560

  // Try to find a free PWM device, which is not enabled
  // and has no connected pins
  NRF_PWM_Type* PWM[3] = {NRF_PWM0, NRF_PWM1, NRF_PWM2};
  for(int device = 0; device<3; device++) {
    if( (PWM[device]->ENABLE == 0)                            &&
   d5136:	2b00      	cmp	r3, #0
   d5138:	db6e      	blt.n	d5218 <_ZN17Adafruit_NeoPixel4showEv+0x154>
      // Disable the interrupts only in cases where you need high performance for
      // the LEDs and if you are not using the EasyDMA feature.
      __disable_irq();
    #endif

    uint32_t pinMask = 1UL << NRF_GPIO_PIN_MAP(PIN_MAP2[pin].gpio_port, PIN_MAP2[pin].gpio_pin);
   d513a:	4bae      	ldr	r3, [pc, #696]	; (d53f4 <_ZN17Adafruit_NeoPixel4showEv+0x330>)
   d513c:	79ea      	ldrb	r2, [r5, #7]
   d513e:	681e      	ldr	r6, [r3, #0]
      CYCLES_X00_T0H = CYCLES_400_T0H;
    }
#endif

    // Enable DWT in debug core
    CoreDebug->DEMCR |= CoreDebug_DEMCR_TRCENA_Msk;
   d5140:	4cad      	ldr	r4, [pc, #692]	; (d53f8 <_ZN17Adafruit_NeoPixel4showEv+0x334>)
    DWT->CTRL |= DWT_CTRL_CYCCNTENA_Msk;
   d5142:	49ae      	ldr	r1, [pc, #696]	; (d53fc <_ZN17Adafruit_NeoPixel4showEv+0x338>)
      CYCLES_X00_T0H = CYCLES_400_T0H;
    }
#endif

    // Enable DWT in debug core
    CoreDebug->DEMCR |= CoreDebug_DEMCR_TRCENA_Msk;
   d5144:	68e0      	ldr	r0, [r4, #12]
      // Disable the interrupts only in cases where you need high performance for
      // the LEDs and if you are not using the EasyDMA feature.
      __disable_irq();
    #endif

    uint32_t pinMask = 1UL << NRF_GPIO_PIN_MAP(PIN_MAP2[pin].gpio_port, PIN_MAP2[pin].gpio_pin);
   d5146:	0112      	lsls	r2, r2, #4
   d5148:	18b3      	adds	r3, r6, r2
      CYCLES_X00_T0H = CYCLES_400_T0H;
    }
#endif

    // Enable DWT in debug core
    CoreDebug->DEMCR |= CoreDebug_DEMCR_TRCENA_Msk;
   d514a:	f040 7080 	orr.w	r0, r0, #16777216	; 0x1000000
      // Disable the interrupts only in cases where you need high performance for
      // the LEDs and if you are not using the EasyDMA feature.
      __disable_irq();
    #endif

    uint32_t pinMask = 1UL << NRF_GPIO_PIN_MAP(PIN_MAP2[pin].gpio_port, PIN_MAP2[pin].gpio_pin);
   d514e:	785b      	ldrb	r3, [r3, #1]
   d5150:	5cb7      	ldrb	r7, [r6, r2]
      CYCLES_X00_T0H = CYCLES_400_T0H;
    }
#endif

    // Enable DWT in debug core
    CoreDebug->DEMCR |= CoreDebug_DEMCR_TRCENA_Msk;
   d5152:	60e0      	str	r0, [r4, #12]
    DWT->CTRL |= DWT_CTRL_CYCCNTENA_Msk;
   d5154:	680a      	ldr	r2, [r1, #0]
      // Disable the interrupts only in cases where you need high performance for
      // the LEDs and if you are not using the EasyDMA feature.
      __disable_irq();
    #endif

    uint32_t pinMask = 1UL << NRF_GPIO_PIN_MAP(PIN_MAP2[pin].gpio_port, PIN_MAP2[pin].gpio_pin);
   d5156:	f003 031f 	and.w	r3, r3, #31
   d515a:	ea43 1347 	orr.w	r3, r3, r7, lsl #5
   d515e:	2701      	movs	r7, #1
    }
#endif

    // Enable DWT in debug core
    CoreDebug->DEMCR |= CoreDebug_DEMCR_TRCENA_Msk;
    DWT->CTRL |= DWT_CTRL_CYCCNTENA_Msk;
   d5160:	433a      	orrs	r2, r7
   d5162:	600a      	str	r2, [r1, #0]

    // Tries to re-send the frame if is interrupted by the SoftDevice.
    while(1) {
      uint8_t *p = pixels;

      uint32_t cycStart = DWT->CYCCNT;
   d5164:	460c      	mov	r4, r1
      uint32_t cyc = 0;

      for(uint16_t n=0; n<numBytes; n++) {
   d5166:	88a8      	ldrh	r0, [r5, #4]
    CoreDebug->DEMCR |= CoreDebug_DEMCR_TRCENA_Msk;
    DWT->CTRL |= DWT_CTRL_CYCCNTENA_Msk;

    // Tries to re-send the frame if is interrupted by the SoftDevice.
    while(1) {
      uint8_t *p = pixels;
   d5168:	f8d5 900c 	ldr.w	r9, [r5, #12]

      uint32_t cycStart = DWT->CYCCNT;
   d516c:	f8d4 a004 	ldr.w	sl, [r4, #4]
      // Disable the interrupts only in cases where you need high performance for
      // the LEDs and if you are not using the EasyDMA feature.
      __disable_irq();
    #endif

    uint32_t pinMask = 1UL << NRF_GPIO_PIN_MAP(PIN_MAP2[pin].gpio_port, PIN_MAP2[pin].gpio_pin);
   d5170:	409f      	lsls	r7, r3

      for(uint16_t n=0; n<numBytes; n++) {
        uint8_t pix = *p++;

        for(uint8_t mask = 0x80; mask; mask >>= 1) {
          while(DWT->CYCCNT - cyc < CYCLES_X00);
   d5172:	4688      	mov	r8, r1
      uint8_t *p = pixels;

      uint32_t cycStart = DWT->CYCCNT;
      uint32_t cyc = 0;

      for(uint16_t n=0; n<numBytes; n++) {
   d5174:	2800      	cmp	r0, #0
   d5176:	d044      	beq.n	d5202 <_ZN17Adafruit_NeoPixel4showEv+0x13e>
   d5178:	46cc      	mov	ip, r9
   d517a:	2200      	movs	r2, #0

        for(uint8_t mask = 0x80; mask; mask >>= 1) {
          while(DWT->CYCCNT - cyc < CYCLES_X00);
          cyc  = DWT->CYCCNT;

          NRF_GPIO->OUTSET |= pinMask;
   d517c:	f04f 41a0 	mov.w	r1, #1342177280	; 0x50000000

      uint32_t cycStart = DWT->CYCCNT;
      uint32_t cyc = 0;

      for(uint16_t n=0; n<numBytes; n++) {
        uint8_t pix = *p++;
   d5180:	f81c eb01 	ldrb.w	lr, [ip], #1
   d5184:	2008      	movs	r0, #8

        for(uint8_t mask = 0x80; mask; mask >>= 1) {
   d5186:	2680      	movs	r6, #128	; 0x80
          while(DWT->CYCCNT - cyc < CYCLES_X00);
   d5188:	6863      	ldr	r3, [r4, #4]
   d518a:	1a9b      	subs	r3, r3, r2
   d518c:	2b46      	cmp	r3, #70	; 0x46
   d518e:	d9fb      	bls.n	d5188 <_ZN17Adafruit_NeoPixel4showEv+0xc4>
          cyc  = DWT->CYCCNT;
   d5190:	f8d8 2004 	ldr.w	r2, [r8, #4]

          NRF_GPIO->OUTSET |= pinMask;
   d5194:	f8d1 3508 	ldr.w	r3, [r1, #1288]	; 0x508

          if(pix & mask) {
   d5198:	ea1e 0f06 	tst.w	lr, r6

        for(uint8_t mask = 0x80; mask; mask >>= 1) {
          while(DWT->CYCCNT - cyc < CYCLES_X00);
          cyc  = DWT->CYCCNT;

          NRF_GPIO->OUTSET |= pinMask;
   d519c:	ea43 0307 	orr.w	r3, r3, r7
   d51a0:	f8c1 3508 	str.w	r3, [r1, #1288]	; 0x508

          if(pix & mask) {
   d51a4:	d02f      	beq.n	d5206 <_ZN17Adafruit_NeoPixel4showEv+0x142>
            while(DWT->CYCCNT - cyc < CYCLES_X00_T1H);
   d51a6:	6863      	ldr	r3, [r4, #4]
   d51a8:	1a9b      	subs	r3, r3, r2
   d51aa:	2b28      	cmp	r3, #40	; 0x28
   d51ac:	d9fb      	bls.n	d51a6 <_ZN17Adafruit_NeoPixel4showEv+0xe2>
          } else {
            while(DWT->CYCCNT - cyc < CYCLES_X00_T0H);
          }

          NRF_GPIO->OUTCLR |= pinMask;
   d51ae:	f8d1 350c 	ldr.w	r3, [r1, #1292]	; 0x50c
      uint32_t cyc = 0;

      for(uint16_t n=0; n<numBytes; n++) {
        uint8_t pix = *p++;

        for(uint8_t mask = 0x80; mask; mask >>= 1) {
   d51b2:	3801      	subs	r0, #1
            while(DWT->CYCCNT - cyc < CYCLES_X00_T1H);
          } else {
            while(DWT->CYCCNT - cyc < CYCLES_X00_T0H);
          }

          NRF_GPIO->OUTCLR |= pinMask;
   d51b4:	ea43 0307 	orr.w	r3, r3, r7
      uint32_t cyc = 0;

      for(uint16_t n=0; n<numBytes; n++) {
        uint8_t pix = *p++;

        for(uint8_t mask = 0x80; mask; mask >>= 1) {
   d51b8:	ea4f 0656 	mov.w	r6, r6, lsr #1
            while(DWT->CYCCNT - cyc < CYCLES_X00_T1H);
          } else {
            while(DWT->CYCCNT - cyc < CYCLES_X00_T0H);
          }

          NRF_GPIO->OUTCLR |= pinMask;
   d51bc:	f8c1 350c 	str.w	r3, [r1, #1292]	; 0x50c
      uint32_t cyc = 0;

      for(uint16_t n=0; n<numBytes; n++) {
        uint8_t pix = *p++;

        for(uint8_t mask = 0x80; mask; mask >>= 1) {
   d51c0:	d1e2      	bne.n	d5188 <_ZN17Adafruit_NeoPixel4showEv+0xc4>
      uint8_t *p = pixels;

      uint32_t cycStart = DWT->CYCCNT;
      uint32_t cyc = 0;

      for(uint16_t n=0; n<numBytes; n++) {
   d51c2:	ebc9 030c 	rsb	r3, r9, ip
   d51c6:	88a8      	ldrh	r0, [r5, #4]
   d51c8:	b29b      	uxth	r3, r3
   d51ca:	4298      	cmp	r0, r3
   d51cc:	d8d8      	bhi.n	d5180 <_ZN17Adafruit_NeoPixel4showEv+0xbc>
   d51ce:	f44f 7330 	mov.w	r3, #704	; 0x2c0
   d51d2:	fb03 f000 	mul.w	r0, r3, r0
          }

          NRF_GPIO->OUTCLR |= pinMask;
        }
      }
      while(DWT->CYCCNT - cyc < CYCLES_X00);
   d51d6:	6863      	ldr	r3, [r4, #4]
   d51d8:	1a9b      	subs	r3, r3, r2
   d51da:	2b46      	cmp	r3, #70	; 0x46
   d51dc:	d9fb      	bls.n	d51d6 <_ZN17Adafruit_NeoPixel4showEv+0x112>


      // If total time longer than 25%, resend the whole data.
      // Since we are likely to be interrupted by SoftDevice
      if ( (DWT->CYCCNT - cycStart) < ( 8*numBytes*((CYCLES_X00*5)/4) ) ) {
   d51de:	f8d8 3004 	ldr.w	r3, [r8, #4]
   d51e2:	ebca 0a03 	rsb	sl, sl, r3
   d51e6:	4582      	cmp	sl, r0
   d51e8:	f0c0 80d5 	bcc.w	d5396 <_ZN17Adafruit_NeoPixel4showEv+0x2d2>
        break;
      }

      // re-send need 300us delay
      delayMicroseconds(300);
   d51ec:	f44f 7096 	mov.w	r0, #300	; 0x12c
   d51f0:	f7ff ff05 	bl	d4ffe <delayMicroseconds>
      uint8_t *p = pixels;

      uint32_t cycStart = DWT->CYCCNT;
      uint32_t cyc = 0;

      for(uint16_t n=0; n<numBytes; n++) {
   d51f4:	88a8      	ldrh	r0, [r5, #4]
    CoreDebug->DEMCR |= CoreDebug_DEMCR_TRCENA_Msk;
    DWT->CTRL |= DWT_CTRL_CYCCNTENA_Msk;

    // Tries to re-send the frame if is interrupted by the SoftDevice.
    while(1) {
      uint8_t *p = pixels;
   d51f6:	f8d5 900c 	ldr.w	r9, [r5, #12]

      uint32_t cycStart = DWT->CYCCNT;
   d51fa:	f8d4 a004 	ldr.w	sl, [r4, #4]
      uint32_t cyc = 0;

      for(uint16_t n=0; n<numBytes; n++) {
   d51fe:	2800      	cmp	r0, #0
   d5200:	d1ba      	bne.n	d5178 <_ZN17Adafruit_NeoPixel4showEv+0xb4>
    // Tries to re-send the frame if is interrupted by the SoftDevice.
    while(1) {
      uint8_t *p = pixels;

      uint32_t cycStart = DWT->CYCCNT;
      uint32_t cyc = 0;
   d5202:	4602      	mov	r2, r0
   d5204:	e7e7      	b.n	d51d6 <_ZN17Adafruit_NeoPixel4showEv+0x112>
          NRF_GPIO->OUTSET |= pinMask;

          if(pix & mask) {
            while(DWT->CYCCNT - cyc < CYCLES_X00_T1H);
          } else {
            while(DWT->CYCCNT - cyc < CYCLES_X00_T0H);
   d5206:	6863      	ldr	r3, [r4, #4]
   d5208:	1a9b      	subs	r3, r3, r2
   d520a:	2b11      	cmp	r3, #17
   d520c:	d8cf      	bhi.n	d51ae <_ZN17Adafruit_NeoPixel4showEv+0xea>
   d520e:	6863      	ldr	r3, [r4, #4]
   d5210:	1a9b      	subs	r3, r3, r2
   d5212:	2b11      	cmp	r3, #17
   d5214:	d9f7      	bls.n	d5206 <_ZN17Adafruit_NeoPixel4showEv+0x142>
   d5216:	e7ca      	b.n	d51ae <_ZN17Adafruit_NeoPixel4showEv+0xea>
  // and has no connected pins
  NRF_PWM_Type* PWM[3] = {NRF_PWM0, NRF_PWM1, NRF_PWM2};
  for(int device = 0; device<3; device++) {
    if( (PWM[device]->ENABLE == 0)                            &&
        (PWM[device]->PSEL.OUT[0] & PWM_PSEL_OUT_CONNECT_Msk) &&
        (PWM[device]->PSEL.OUT[1] & PWM_PSEL_OUT_CONNECT_Msk) &&
   d5218:	f8d4 3564 	ldr.w	r3, [r4, #1380]	; 0x564
  // Try to find a free PWM device, which is not enabled
  // and has no connected pins
  NRF_PWM_Type* PWM[3] = {NRF_PWM0, NRF_PWM1, NRF_PWM2};
  for(int device = 0; device<3; device++) {
    if( (PWM[device]->ENABLE == 0)                            &&
        (PWM[device]->PSEL.OUT[0] & PWM_PSEL_OUT_CONNECT_Msk) &&
   d521c:	2b00      	cmp	r3, #0
   d521e:	da8c      	bge.n	d513a <_ZN17Adafruit_NeoPixel4showEv+0x76>
        (PWM[device]->PSEL.OUT[1] & PWM_PSEL_OUT_CONNECT_Msk) &&
        (PWM[device]->PSEL.OUT[2] & PWM_PSEL_OUT_CONNECT_Msk) &&
   d5220:	f8d4 3568 	ldr.w	r3, [r4, #1384]	; 0x568
  // and has no connected pins
  NRF_PWM_Type* PWM[3] = {NRF_PWM0, NRF_PWM1, NRF_PWM2};
  for(int device = 0; device<3; device++) {
    if( (PWM[device]->ENABLE == 0)                            &&
        (PWM[device]->PSEL.OUT[0] & PWM_PSEL_OUT_CONNECT_Msk) &&
        (PWM[device]->PSEL.OUT[1] & PWM_PSEL_OUT_CONNECT_Msk) &&
   d5224:	2b00      	cmp	r3, #0
   d5226:	da88      	bge.n	d513a <_ZN17Adafruit_NeoPixel4showEv+0x76>
        (PWM[device]->PSEL.OUT[2] & PWM_PSEL_OUT_CONNECT_Msk) &&
        (PWM[device]->PSEL.OUT[3] & PWM_PSEL_OUT_CONNECT_Msk)
   d5228:	f8d4 356c 	ldr.w	r3, [r4, #1388]	; 0x56c
  NRF_PWM_Type* PWM[3] = {NRF_PWM0, NRF_PWM1, NRF_PWM2};
  for(int device = 0; device<3; device++) {
    if( (PWM[device]->ENABLE == 0)                            &&
        (PWM[device]->PSEL.OUT[0] & PWM_PSEL_OUT_CONNECT_Msk) &&
        (PWM[device]->PSEL.OUT[1] & PWM_PSEL_OUT_CONNECT_Msk) &&
        (PWM[device]->PSEL.OUT[2] & PWM_PSEL_OUT_CONNECT_Msk) &&
   d522c:	2b00      	cmp	r3, #0
   d522e:	da84      	bge.n	d513a <_ZN17Adafruit_NeoPixel4showEv+0x76>
  // only malloc if there is PWM device available
  if ( pwm != NULL ) {
    #ifdef ARDUINO_FEATHER52 // use thread-safe malloc
      pixels_pattern = (uint16_t *) rtos_malloc(pattern_size);
    #else
      pixels_pattern = (uint16_t *) malloc(pattern_size);
   d5230:	9801      	ldr	r0, [sp, #4]
   d5232:	f002 faf3 	bl	d781c <malloc>
    #endif
  }

  // Use the identified device to choose the implementation
  // If a PWM device is available use DMA
  if( (pixels_pattern != NULL) && (pwm != NULL) ) {
   d5236:	2800      	cmp	r0, #0
   d5238:	f43f af7f 	beq.w	d513a <_ZN17Adafruit_NeoPixel4showEv+0x76>
    uint16_t pos = 0; // bit position

    for(uint16_t n=0; n<numBytes; n++) {
   d523c:	88ab      	ldrh	r3, [r5, #4]
   d523e:	2b00      	cmp	r3, #0
   d5240:	f000 80d0 	beq.w	d53e4 <_ZN17Adafruit_NeoPixel4showEv+0x320>
   d5244:	2700      	movs	r7, #0
   d5246:	463b      	mov	r3, r7
        if( !is800KHz ) {
          pixels_pattern[pos] = (pix & mask) ? MAGIC_T1H_400KHz : MAGIC_T0H_400KHz;
        }else
        #endif
        {
          pixels_pattern[pos] = (pix & mask) ? MAGIC_T1H : MAGIC_T0H;
   d5248:	4e6d      	ldr	r6, [pc, #436]	; (d5400 <_ZN17Adafruit_NeoPixel4showEv+0x33c>)
   d524a:	496e      	ldr	r1, [pc, #440]	; (d5404 <_ZN17Adafruit_NeoPixel4showEv+0x340>)
   d524c:	e000      	b.n	d5250 <_ZN17Adafruit_NeoPixel4showEv+0x18c>
        }

        pos++;
   d524e:	4613      	mov	r3, r2
  // If a PWM device is available use DMA
  if( (pixels_pattern != NULL) && (pwm != NULL) ) {
    uint16_t pos = 0; // bit position

    for(uint16_t n=0; n<numBytes; n++) {
      uint8_t pix = pixels[n];
   d5250:	68ea      	ldr	r2, [r5, #12]
   d5252:	5dd2      	ldrb	r2, [r2, r7]
        if( !is800KHz ) {
          pixels_pattern[pos] = (pix & mask) ? MAGIC_T1H_400KHz : MAGIC_T0H_400KHz;
        }else
        #endif
        {
          pixels_pattern[pos] = (pix & mask) ? MAGIC_T1H : MAGIC_T0H;
   d5254:	f103 0e01 	add.w	lr, r3, #1
   d5258:	f012 0f80 	tst.w	r2, #128	; 0x80
   d525c:	bf14      	ite	ne
   d525e:	46b0      	movne	r8, r6
   d5260:	4688      	moveq	r8, r1
   d5262:	fa1f fe8e 	uxth.w	lr, lr
   d5266:	f012 0f40 	tst.w	r2, #64	; 0x40
   d526a:	bf14      	ite	ne
   d526c:	46b1      	movne	r9, r6
   d526e:	4689      	moveq	r9, r1
   d5270:	f012 0f20 	tst.w	r2, #32
   d5274:	f820 8013 	strh.w	r8, [r0, r3, lsl #1]
   d5278:	bf18      	it	ne
   d527a:	46b2      	movne	sl, r6
   d527c:	f820 901e 	strh.w	r9, [r0, lr, lsl #1]
   d5280:	bf08      	it	eq
   d5282:	468a      	moveq	sl, r1
   d5284:	f103 0802 	add.w	r8, r3, #2
   d5288:	f012 0f10 	tst.w	r2, #16
   d528c:	f103 0e03 	add.w	lr, r3, #3
   d5290:	bf14      	ite	ne
   d5292:	46b4      	movne	ip, r6
   d5294:	468c      	moveq	ip, r1
   d5296:	fa1f f888 	uxth.w	r8, r8
   d529a:	f012 0f08 	tst.w	r2, #8
   d529e:	fa1f fe8e 	uxth.w	lr, lr
   d52a2:	f103 0904 	add.w	r9, r3, #4
   d52a6:	fa1f f989 	uxth.w	r9, r9
   d52aa:	bf14      	ite	ne
   d52ac:	46b3      	movne	fp, r6
   d52ae:	468b      	moveq	fp, r1
   d52b0:	f012 0f04 	tst.w	r2, #4
   d52b4:	f820 a018 	strh.w	sl, [r0, r8, lsl #1]
   d52b8:	f820 c01e 	strh.w	ip, [r0, lr, lsl #1]
   d52bc:	bf14      	ite	ne
   d52be:	46b2      	movne	sl, r6
   d52c0:	468a      	moveq	sl, r1
   d52c2:	f103 0805 	add.w	r8, r3, #5
   d52c6:	f012 0f02 	tst.w	r2, #2
   d52ca:	f103 0c06 	add.w	ip, r3, #6
   d52ce:	f103 0e07 	add.w	lr, r3, #7
   d52d2:	f820 b019 	strh.w	fp, [r0, r9, lsl #1]
   d52d6:	fa1f fe8e 	uxth.w	lr, lr
   d52da:	bf14      	ite	ne
   d52dc:	46b1      	movne	r9, r6
   d52de:	4689      	moveq	r9, r1
   d52e0:	fa1f f888 	uxth.w	r8, r8
   d52e4:	f012 0f01 	tst.w	r2, #1
   d52e8:	fa1f fc8c 	uxth.w	ip, ip
   d52ec:	bf14      	ite	ne
   d52ee:	4632      	movne	r2, r6
   d52f0:	460a      	moveq	r2, r1
   d52f2:	f820 a018 	strh.w	sl, [r0, r8, lsl #1]
   d52f6:	f820 901c 	strh.w	r9, [r0, ip, lsl #1]
   d52fa:	f820 201e 	strh.w	r2, [r0, lr, lsl #1]
  // Use the identified device to choose the implementation
  // If a PWM device is available use DMA
  if( (pixels_pattern != NULL) && (pwm != NULL) ) {
    uint16_t pos = 0; // bit position

    for(uint16_t n=0; n<numBytes; n++) {
   d52fe:	3701      	adds	r7, #1
   d5300:	f8b5 e004 	ldrh.w	lr, [r5, #4]
   d5304:	b2bf      	uxth	r7, r7
        #endif
        {
          pixels_pattern[pos] = (pix & mask) ? MAGIC_T1H : MAGIC_T0H;
        }

        pos++;
   d5306:	f103 0208 	add.w	r2, r3, #8
  // Use the identified device to choose the implementation
  // If a PWM device is available use DMA
  if( (pixels_pattern != NULL) && (pwm != NULL) ) {
    uint16_t pos = 0; // bit position

    for(uint16_t n=0; n<numBytes; n++) {
   d530a:	45be      	cmp	lr, r7
        #endif
        {
          pixels_pattern[pos] = (pix & mask) ? MAGIC_T1H : MAGIC_T0H;
        }

        pos++;
   d530c:	b292      	uxth	r2, r2
  // Use the identified device to choose the implementation
  // If a PWM device is available use DMA
  if( (pixels_pattern != NULL) && (pwm != NULL) ) {
    uint16_t pos = 0; // bit position

    for(uint16_t n=0; n<numBytes; n++) {
   d530e:	d89e      	bhi.n	d524e <_ZN17Adafruit_NeoPixel4showEv+0x18a>
   d5310:	f103 0209 	add.w	r2, r3, #9
   d5314:	330a      	adds	r3, #10
   d5316:	b292      	uxth	r2, r2
   d5318:	b29b      	uxth	r3, r3
   d531a:	0052      	lsls	r2, r2, #1
   d531c:	005b      	lsls	r3, r3, #1

    // Pointer to the memory storing the patter
    pwm->SEQ[0].PTR = (uint32_t)(pixels_pattern) << PWM_SEQ_PTR_PTR_Pos;

    // Calculation of the number of steps loaded from memory.
    pwm->SEQ[0].CNT = (pattern_size/sizeof(uint16_t)) << PWM_SEQ_CNT_CNT_Pos;
   d531e:	9901      	ldr	r1, [sp, #4]
        pos++;
      }
    }

    // Zero padding to indicate the end of que sequence
    pixels_pattern[++pos] = 0 | (0x8000); // Seq end
   d5320:	f44f 4600 	mov.w	r6, #32768	; 0x8000
   d5324:	5286      	strh	r6, [r0, r2]

    // Pointer to the memory storing the patter
    pwm->SEQ[0].PTR = (uint32_t)(pixels_pattern) << PWM_SEQ_PTR_PTR_Pos;

    // Calculation of the number of steps loaded from memory.
    pwm->SEQ[0].CNT = (pattern_size/sizeof(uint16_t)) << PWM_SEQ_CNT_CNT_Pos;
   d5326:	0849      	lsrs	r1, r1, #1
      }
    }

    // Zero padding to indicate the end of que sequence
    pixels_pattern[++pos] = 0 | (0x8000); // Seq end
    pixels_pattern[++pos] = 0 | (0x8000); // Seq end
   d5328:	52c6      	strh	r6, [r0, r3]

    // Set the wave mode to count UP
    pwm->MODE = (PWM_MODE_UPDOWN_Up << PWM_MODE_UPDOWN_Pos);
   d532a:	2200      	movs	r2, #0
    if( !is800KHz ) {
      pwm->COUNTERTOP = (CTOPVAL_400KHz << PWM_COUNTERTOP_COUNTERTOP_Pos);
    }else
#endif
    {
      pwm->COUNTERTOP = (CTOPVAL << PWM_COUNTERTOP_COUNTERTOP_Pos);
   d532c:	2314      	movs	r3, #20
    // Zero padding to indicate the end of que sequence
    pixels_pattern[++pos] = 0 | (0x8000); // Seq end
    pixels_pattern[++pos] = 0 | (0x8000); // Seq end

    // Set the wave mode to count UP
    pwm->MODE = (PWM_MODE_UPDOWN_Up << PWM_MODE_UPDOWN_Pos);
   d532e:	f8c4 2504 	str.w	r2, [r4, #1284]	; 0x504
    // and block the execution thread until the event flag is set by
    // the peripheral.
//    pwm->INTEN |= (PWM_INTEN_SEQEND0_Enabled<<PWM_INTEN_SEQEND0_Pos);

    // PSEL must be configured before enabling PWM
    pwm->PSEL.OUT[0] = NRF_GPIO_PIN_MAP(PIN_MAP2[pin].gpio_port, PIN_MAP2[pin].gpio_pin);
   d5332:	4e30      	ldr	r6, [pc, #192]	; (d53f4 <_ZN17Adafruit_NeoPixel4showEv+0x330>)

    // Set the wave mode to count UP
    pwm->MODE = (PWM_MODE_UPDOWN_Up << PWM_MODE_UPDOWN_Pos);

    // Set the PWM to use the 16MHz clock
    pwm->PRESCALER = (PWM_PRESCALER_PRESCALER_DIV_1 << PWM_PRESCALER_PRESCALER_Pos);
   d5334:	f8c4 250c 	str.w	r2, [r4, #1292]	; 0x50c
    if( !is800KHz ) {
      pwm->COUNTERTOP = (CTOPVAL_400KHz << PWM_COUNTERTOP_COUNTERTOP_Pos);
    }else
#endif
    {
      pwm->COUNTERTOP = (CTOPVAL << PWM_COUNTERTOP_COUNTERTOP_Pos);
   d5338:	f8c4 3508 	str.w	r3, [r4, #1288]	; 0x508
    }

    // Disable loops, we want the sequence to repeat only once
    pwm->LOOP = (PWM_LOOP_CNT_Disabled << PWM_LOOP_CNT_Pos);
   d533c:	f8c4 2514 	str.w	r2, [r4, #1300]	; 0x514

    // On the "Common" setting the PWM uses the same pattern for the
    // for supported sequences. The pattern is stored on half-word
    // of 16bits
    pwm->DECODER = (PWM_DECODER_LOAD_Common << PWM_DECODER_LOAD_Pos) |
                   (PWM_DECODER_MODE_RefreshCount << PWM_DECODER_MODE_Pos);
   d5340:	f8c4 2510 	str.w	r2, [r4, #1296]	; 0x510

    // Pointer to the memory storing the patter
    pwm->SEQ[0].PTR = (uint32_t)(pixels_pattern) << PWM_SEQ_PTR_PTR_Pos;
   d5344:	f8c4 0520 	str.w	r0, [r4, #1312]	; 0x520

    // Calculation of the number of steps loaded from memory.
    pwm->SEQ[0].CNT = (pattern_size/sizeof(uint16_t)) << PWM_SEQ_CNT_CNT_Pos;
   d5348:	f8c4 1524 	str.w	r1, [r4, #1316]	; 0x524

    // The following settings are ignored with the current config.
    pwm->SEQ[0].REFRESH  = 0;
   d534c:	f8c4 2528 	str.w	r2, [r4, #1320]	; 0x528
    pwm->SEQ[0].ENDDELAY = 0;
   d5350:	f8c4 252c 	str.w	r2, [r4, #1324]	; 0x52c
    // and block the execution thread until the event flag is set by
    // the peripheral.
//    pwm->INTEN |= (PWM_INTEN_SEQEND0_Enabled<<PWM_INTEN_SEQEND0_Pos);

    // PSEL must be configured before enabling PWM
    pwm->PSEL.OUT[0] = NRF_GPIO_PIN_MAP(PIN_MAP2[pin].gpio_port, PIN_MAP2[pin].gpio_pin);
   d5354:	79eb      	ldrb	r3, [r5, #7]
   d5356:	6831      	ldr	r1, [r6, #0]
   d5358:	011b      	lsls	r3, r3, #4
   d535a:	18ce      	adds	r6, r1, r3
   d535c:	5cc9      	ldrb	r1, [r1, r3]
   d535e:	7873      	ldrb	r3, [r6, #1]
   d5360:	f003 031f 	and.w	r3, r3, #31
   d5364:	ea43 1341 	orr.w	r3, r3, r1, lsl #5

    // Enable the PWM
    pwm->ENABLE = 1;
   d5368:	2101      	movs	r1, #1
    // and block the execution thread until the event flag is set by
    // the peripheral.
//    pwm->INTEN |= (PWM_INTEN_SEQEND0_Enabled<<PWM_INTEN_SEQEND0_Pos);

    // PSEL must be configured before enabling PWM
    pwm->PSEL.OUT[0] = NRF_GPIO_PIN_MAP(PIN_MAP2[pin].gpio_port, PIN_MAP2[pin].gpio_pin);
   d536a:	f8c4 3560 	str.w	r3, [r4, #1376]	; 0x560

    // Enable the PWM
    pwm->ENABLE = 1;
   d536e:	f8c4 1500 	str.w	r1, [r4, #1280]	; 0x500

    // After all of this and many hours of reading the documentation
    // we are ready to start the sequence...
    pwm->EVENTS_SEQEND[0]  = 0;
   d5372:	f8c4 2110 	str.w	r2, [r4, #272]	; 0x110
    pwm->TASKS_SEQSTART[0] = 1;
   d5376:	60a1      	str	r1, [r4, #8]

    // But we have to wait for the flag to be set.
    while(!pwm->EVENTS_SEQEND[0])
   d5378:	f8d4 3110 	ldr.w	r3, [r4, #272]	; 0x110
   d537c:	2b00      	cmp	r3, #0
   d537e:	d0fb      	beq.n	d5378 <_ZN17Adafruit_NeoPixel4showEv+0x2b4>
      yield();
      #endif
    }

    // Before leave we clear the flag for the event.
    pwm->EVENTS_SEQEND[0] = 0;
   d5380:	2300      	movs	r3, #0
    // all the outputs before leave or the device will not
    // be selected on the next call.
    // TODO: Check if disabling the device causes performance issues.
    pwm->ENABLE = 0;

    pwm->PSEL.OUT[0] = 0xFFFFFFFFUL;
   d5382:	f04f 32ff 	mov.w	r2, #4294967295
      yield();
      #endif
    }

    // Before leave we clear the flag for the event.
    pwm->EVENTS_SEQEND[0] = 0;
   d5386:	f8c4 3110 	str.w	r3, [r4, #272]	; 0x110

    // We need to disable the device and disconnect
    // all the outputs before leave or the device will not
    // be selected on the next call.
    // TODO: Check if disabling the device causes performance issues.
    pwm->ENABLE = 0;
   d538a:	f8c4 3500 	str.w	r3, [r4, #1280]	; 0x500

    pwm->PSEL.OUT[0] = 0xFFFFFFFFUL;
   d538e:	f8c4 2560 	str.w	r2, [r4, #1376]	; 0x560

    #ifdef ARDUINO_FEATHER52  // use thread-safe free
      rtos_free(pixels_pattern);
    #else
      free(pixels_pattern);
   d5392:	f002 fa4b 	bl	d782c <free>
  }
// END of NRF52 implementation


#endif
  endTime = micros(); // Save EOD time for latch on next call
   d5396:	f7ff fe30 	bl	d4ffa <micros>
   d539a:	6128      	str	r0, [r5, #16]
}
   d539c:	b007      	add	sp, #28
   d539e:	e8bd 8ff0 	ldmia.w	sp!, {r4, r5, r6, r7, r8, r9, sl, fp, pc}
  // and has no connected pins
  NRF_PWM_Type* PWM[3] = {NRF_PWM0, NRF_PWM1, NRF_PWM2};
  for(int device = 0; device<3; device++) {
    if( (PWM[device]->ENABLE == 0)                            &&
        (PWM[device]->PSEL.OUT[0] & PWM_PSEL_OUT_CONNECT_Msk) &&
        (PWM[device]->PSEL.OUT[1] & PWM_PSEL_OUT_CONNECT_Msk) &&
   d53a2:	f8d4 3564 	ldr.w	r3, [r4, #1380]	; 0x564
  // Try to find a free PWM device, which is not enabled
  // and has no connected pins
  NRF_PWM_Type* PWM[3] = {NRF_PWM0, NRF_PWM1, NRF_PWM2};
  for(int device = 0; device<3; device++) {
    if( (PWM[device]->ENABLE == 0)                            &&
        (PWM[device]->PSEL.OUT[0] & PWM_PSEL_OUT_CONNECT_Msk) &&
   d53a6:	2b00      	cmp	r3, #0
   d53a8:	f6bf aebf 	bge.w	d512a <_ZN17Adafruit_NeoPixel4showEv+0x66>
        (PWM[device]->PSEL.OUT[1] & PWM_PSEL_OUT_CONNECT_Msk) &&
        (PWM[device]->PSEL.OUT[2] & PWM_PSEL_OUT_CONNECT_Msk) &&
   d53ac:	f8d4 3568 	ldr.w	r3, [r4, #1384]	; 0x568
  // and has no connected pins
  NRF_PWM_Type* PWM[3] = {NRF_PWM0, NRF_PWM1, NRF_PWM2};
  for(int device = 0; device<3; device++) {
    if( (PWM[device]->ENABLE == 0)                            &&
        (PWM[device]->PSEL.OUT[0] & PWM_PSEL_OUT_CONNECT_Msk) &&
        (PWM[device]->PSEL.OUT[1] & PWM_PSEL_OUT_CONNECT_Msk) &&
   d53b0:	2b00      	cmp	r3, #0
   d53b2:	f6bf aeba 	bge.w	d512a <_ZN17Adafruit_NeoPixel4showEv+0x66>
        (PWM[device]->PSEL.OUT[2] & PWM_PSEL_OUT_CONNECT_Msk) &&
        (PWM[device]->PSEL.OUT[3] & PWM_PSEL_OUT_CONNECT_Msk)
   d53b6:	f8d4 356c 	ldr.w	r3, [r4, #1388]	; 0x56c
  NRF_PWM_Type* PWM[3] = {NRF_PWM0, NRF_PWM1, NRF_PWM2};
  for(int device = 0; device<3; device++) {
    if( (PWM[device]->ENABLE == 0)                            &&
        (PWM[device]->PSEL.OUT[0] & PWM_PSEL_OUT_CONNECT_Msk) &&
        (PWM[device]->PSEL.OUT[1] & PWM_PSEL_OUT_CONNECT_Msk) &&
        (PWM[device]->PSEL.OUT[2] & PWM_PSEL_OUT_CONNECT_Msk) &&
   d53ba:	2b00      	cmp	r3, #0
   d53bc:	f6bf aeb5 	bge.w	d512a <_ZN17Adafruit_NeoPixel4showEv+0x66>
   d53c0:	e736      	b.n	d5230 <_ZN17Adafruit_NeoPixel4showEv+0x16c>
  // and has no connected pins
  NRF_PWM_Type* PWM[3] = {NRF_PWM0, NRF_PWM1, NRF_PWM2};
  for(int device = 0; device<3; device++) {
    if( (PWM[device]->ENABLE == 0)                            &&
        (PWM[device]->PSEL.OUT[0] & PWM_PSEL_OUT_CONNECT_Msk) &&
        (PWM[device]->PSEL.OUT[1] & PWM_PSEL_OUT_CONNECT_Msk) &&
   d53c2:	f8d4 3564 	ldr.w	r3, [r4, #1380]	; 0x564
  // Try to find a free PWM device, which is not enabled
  // and has no connected pins
  NRF_PWM_Type* PWM[3] = {NRF_PWM0, NRF_PWM1, NRF_PWM2};
  for(int device = 0; device<3; device++) {
    if( (PWM[device]->ENABLE == 0)                            &&
        (PWM[device]->PSEL.OUT[0] & PWM_PSEL_OUT_CONNECT_Msk) &&
   d53c6:	2b00      	cmp	r3, #0
   d53c8:	f6bf aea6 	bge.w	d5118 <_ZN17Adafruit_NeoPixel4showEv+0x54>
        (PWM[device]->PSEL.OUT[1] & PWM_PSEL_OUT_CONNECT_Msk) &&
        (PWM[device]->PSEL.OUT[2] & PWM_PSEL_OUT_CONNECT_Msk) &&
   d53cc:	f8d4 3568 	ldr.w	r3, [r4, #1384]	; 0x568
  // and has no connected pins
  NRF_PWM_Type* PWM[3] = {NRF_PWM0, NRF_PWM1, NRF_PWM2};
  for(int device = 0; device<3; device++) {
    if( (PWM[device]->ENABLE == 0)                            &&
        (PWM[device]->PSEL.OUT[0] & PWM_PSEL_OUT_CONNECT_Msk) &&
        (PWM[device]->PSEL.OUT[1] & PWM_PSEL_OUT_CONNECT_Msk) &&
   d53d0:	2b00      	cmp	r3, #0
   d53d2:	f6bf aea1 	bge.w	d5118 <_ZN17Adafruit_NeoPixel4showEv+0x54>
        (PWM[device]->PSEL.OUT[2] & PWM_PSEL_OUT_CONNECT_Msk) &&
        (PWM[device]->PSEL.OUT[3] & PWM_PSEL_OUT_CONNECT_Msk)
   d53d6:	f8d4 356c 	ldr.w	r3, [r4, #1388]	; 0x56c
  NRF_PWM_Type* PWM[3] = {NRF_PWM0, NRF_PWM1, NRF_PWM2};
  for(int device = 0; device<3; device++) {
    if( (PWM[device]->ENABLE == 0)                            &&
        (PWM[device]->PSEL.OUT[0] & PWM_PSEL_OUT_CONNECT_Msk) &&
        (PWM[device]->PSEL.OUT[1] & PWM_PSEL_OUT_CONNECT_Msk) &&
        (PWM[device]->PSEL.OUT[2] & PWM_PSEL_OUT_CONNECT_Msk) &&
   d53da:	2b00      	cmp	r3, #0
   d53dc:	f6bf ae9c 	bge.w	d5118 <_ZN17Adafruit_NeoPixel4showEv+0x54>
   d53e0:	e726      	b.n	d5230 <_ZN17Adafruit_NeoPixel4showEv+0x16c>
   d53e2:	4770      	bx	lr
  // Use the identified device to choose the implementation
  // If a PWM device is available use DMA
  if( (pixels_pattern != NULL) && (pwm != NULL) ) {
    uint16_t pos = 0; // bit position

    for(uint16_t n=0; n<numBytes; n++) {
   d53e4:	2304      	movs	r3, #4
   d53e6:	2202      	movs	r2, #2
   d53e8:	e799      	b.n	d531e <_ZN17Adafruit_NeoPixel4showEv+0x25a>
   d53ea:	bf00      	nop
   d53ec:	000da3a4 	.word	0x000da3a4
   d53f0:	000da398 	.word	0x000da398
   d53f4:	2003e398 	.word	0x2003e398
   d53f8:	e000edf0 	.word	0xe000edf0
   d53fc:	e0001000 	.word	0xe0001000
   d5400:	ffff800d 	.word	0xffff800d
   d5404:	ffff8006 	.word	0xffff8006

000d5408 <_ZN17Adafruit_NeoPixel13setPixelColorEtm>:
}

// Set pixel color from 'packed' 32-bit RGB color:
// If RGB+W color, order of bytes is WRGB in packed 32-bit form
void Adafruit_NeoPixel::setPixelColor(uint16_t n, uint32_t c) {
  if(n < numLEDs) {
   d5408:	8843      	ldrh	r3, [r0, #2]
   d540a:	428b      	cmp	r3, r1
  }
}

// Set pixel color from 'packed' 32-bit RGB color:
// If RGB+W color, order of bytes is WRGB in packed 32-bit form
void Adafruit_NeoPixel::setPixelColor(uint16_t n, uint32_t c) {
   d540c:	b5f0      	push	{r4, r5, r6, r7, lr}
  if(n < numLEDs) {
   d540e:	d945      	bls.n	d549c <_ZN17Adafruit_NeoPixel13setPixelColorEtm+0x94>
    uint8_t
      r = (uint8_t)(c >> 16),
      g = (uint8_t)(c >>  8),
      b = (uint8_t)c;
    if(brightness) { // See notes in setBrightness()
   d5410:	7a05      	ldrb	r5, [r0, #8]
   d5412:	f3c2 4307 	ubfx	r3, r2, #16, #8
   d5416:	f3c2 2407 	ubfx	r4, r2, #8, #8
   d541a:	b2d6      	uxtb	r6, r2
   d541c:	b145      	cbz	r5, d5430 <_ZN17Adafruit_NeoPixel13setPixelColorEtm+0x28>
      r = (r * brightness) >> 8;
   d541e:	436b      	muls	r3, r5
      g = (g * brightness) >> 8;
   d5420:	436c      	muls	r4, r5
      b = (b * brightness) >> 8;
   d5422:	436e      	muls	r6, r5
    uint8_t
      r = (uint8_t)(c >> 16),
      g = (uint8_t)(c >>  8),
      b = (uint8_t)c;
    if(brightness) { // See notes in setBrightness()
      r = (r * brightness) >> 8;
   d5424:	f3c3 2307 	ubfx	r3, r3, #8, #8
      g = (g * brightness) >> 8;
   d5428:	f3c4 2407 	ubfx	r4, r4, #8, #8
      b = (b * brightness) >> 8;
   d542c:	f3c6 2607 	ubfx	r6, r6, #8, #8
    }
    uint8_t *p = &pixels[n * (type==SK6812RGBW?4:3)];
   d5430:	f890 c006 	ldrb.w	ip, [r0, #6]
   d5434:	68c7      	ldr	r7, [r0, #12]
   d5436:	f1bc 0f06 	cmp.w	ip, #6
   d543a:	bf0c      	ite	eq
   d543c:	2504      	moveq	r5, #4
   d543e:	2503      	movne	r5, #3
   d5440:	4369      	muls	r1, r5
   d5442:	f1bc 0f08 	cmp.w	ip, #8
   d5446:	eb07 0501 	add.w	r5, r7, r1
   d544a:	d824      	bhi.n	d5496 <_ZN17Adafruit_NeoPixel13setPixelColorEtm+0x8e>
   d544c:	f04f 0e01 	mov.w	lr, #1
   d5450:	fa0e fe0c 	lsl.w	lr, lr, ip
   d5454:	f41e 7fd2 	tst.w	lr, #420	; 0x1a4
   d5458:	d10c      	bne.n	d5474 <_ZN17Adafruit_NeoPixel13setPixelColorEtm+0x6c>
   d545a:	f01e 0f40 	tst.w	lr, #64	; 0x40
   d545e:	d10d      	bne.n	d547c <_ZN17Adafruit_NeoPixel13setPixelColorEtm+0x74>
   d5460:	f01e 0f10 	tst.w	lr, #16
   d5464:	d017      	beq.n	d5496 <_ZN17Adafruit_NeoPixel13setPixelColorEtm+0x8e>
          *p++ = g;
          *p++ = r;
          *p = b;
        } break;
      case TM1829: { // TM1829 is special RBG order
          if(r == 255) r = 254; // 255 on RED channel causes display to be in a special mode.
   d5466:	2bff      	cmp	r3, #255	; 0xff
   d5468:	bf08      	it	eq
   d546a:	23fe      	moveq	r3, #254	; 0xfe
          *p++ = r;
   d546c:	547b      	strb	r3, [r7, r1]
          *p++ = b;
   d546e:	706e      	strb	r6, [r5, #1]
          *p = g;
   d5470:	70ac      	strb	r4, [r5, #2]
        } break;
   d5472:	bdf0      	pop	{r4, r5, r6, r7, pc}
    switch(type) {
      case WS2812B: // WS2812, WS2812B & WS2813 is GRB order.
      case WS2812B_FAST:
      case WS2812B2:
      case WS2812B2_FAST: {
          *p++ = g;
   d5474:	547c      	strb	r4, [r7, r1]
          *p++ = r;
   d5476:	706b      	strb	r3, [r5, #1]
          *p = b;
   d5478:	70ae      	strb	r6, [r5, #2]
        } break;
   d547a:	bdf0      	pop	{r4, r5, r6, r7, pc}
          *p++ = b;
          *p = g;
        } break;
      case SK6812RGBW: { // SK6812RGBW is RGBW order
          uint8_t w = (uint8_t)(c >> 24);
          *p++ = r;
   d547c:	547b      	strb	r3, [r7, r1]
          *p++ = g;
   d547e:	706c      	strb	r4, [r5, #1]
          *p++ = b;
   d5480:	70ae      	strb	r6, [r5, #2]
          *p = brightness ? ((w * brightness) >> 8) : w;
   d5482:	7a03      	ldrb	r3, [r0, #8]
          *p++ = r;
          *p++ = b;
          *p = g;
        } break;
      case SK6812RGBW: { // SK6812RGBW is RGBW order
          uint8_t w = (uint8_t)(c >> 24);
   d5484:	0e12      	lsrs	r2, r2, #24
          *p++ = r;
          *p++ = g;
          *p++ = b;
          *p = brightness ? ((w * brightness) >> 8) : w;
   d5486:	b90b      	cbnz	r3, d548c <_ZN17Adafruit_NeoPixel13setPixelColorEtm+0x84>
          *p++ = r;
          *p++ = b;
          *p = g;
        } break;
      case SK6812RGBW: { // SK6812RGBW is RGBW order
          uint8_t w = (uint8_t)(c >> 24);
   d5488:	b2d2      	uxtb	r2, r2
   d548a:	e002      	b.n	d5492 <_ZN17Adafruit_NeoPixel13setPixelColorEtm+0x8a>
          *p++ = r;
          *p++ = g;
          *p++ = b;
          *p = brightness ? ((w * brightness) >> 8) : w;
   d548c:	435a      	muls	r2, r3
   d548e:	f3c2 2207 	ubfx	r2, r2, #8, #8
   d5492:	70ea      	strb	r2, [r5, #3]
        } break;
   d5494:	bdf0      	pop	{r4, r5, r6, r7, pc}
      case WS2811: // WS2811 is RGB order
      case TM1803: // TM1803 is RGB order
      default: {   // default is RGB order
          *p++ = r;
   d5496:	547b      	strb	r3, [r7, r1]
          *p++ = g;
   d5498:	706c      	strb	r4, [r5, #1]
          *p = b;
   d549a:	70ae      	strb	r6, [r5, #2]
   d549c:	bdf0      	pop	{r4, r5, r6, r7, pc}

000d549e <_ZN17Adafruit_NeoPixel13setBrightnessEh>:
  // This simplifies the actual scaling math later, allowing a fast
  // 8x8-bit multiply and taking the MSB.  'brightness' is a uint8_t,
  // adding 1 here may (intentionally) roll over...so 0 = max brightness
  // (color values are interpreted literally; no scaling), 1 = min
  // brightness (off), 255 = just below max brightness.
  uint8_t newBrightness = b + 1;
   d549e:	1c4a      	adds	r2, r1, #1
  if(newBrightness != brightness) { // Compare against prior value
   d54a0:	7a03      	ldrb	r3, [r0, #8]
  // This simplifies the actual scaling math later, allowing a fast
  // 8x8-bit multiply and taking the MSB.  'brightness' is a uint8_t,
  // adding 1 here may (intentionally) roll over...so 0 = max brightness
  // (color values are interpreted literally; no scaling), 1 = min
  // brightness (off), 255 = just below max brightness.
  uint8_t newBrightness = b + 1;
   d54a2:	b2d2      	uxtb	r2, r2
  if(newBrightness != brightness) { // Compare against prior value
   d54a4:	429a      	cmp	r2, r3
// and scale it (subsequent graphics commands also work at this
// brightness level).  If there's a significant step up in brightness,
// the limited number of steps (quantization) in the old data will be
// quite visible in the re-scaled version.  For a non-destructive
// change, you'll need to re-render the full strip data.  C'est la vie.
void Adafruit_NeoPixel::setBrightness(uint8_t b) {
   d54a6:	b570      	push	{r4, r5, r6, lr}
  // 8x8-bit multiply and taking the MSB.  'brightness' is a uint8_t,
  // adding 1 here may (intentionally) roll over...so 0 = max brightness
  // (color values are interpreted literally; no scaling), 1 = min
  // brightness (off), 255 = just below max brightness.
  uint8_t newBrightness = b + 1;
  if(newBrightness != brightness) { // Compare against prior value
   d54a8:	d01e      	beq.n	d54e8 <_ZN17Adafruit_NeoPixel13setBrightnessEh+0x4a>
    // Brightness has changed -- re-scale existing data in RAM
    uint8_t  c,
            *ptr           = pixels,
             oldBrightness = brightness - 1; // De-wrap old brightness value
   d54aa:	3b01      	subs	r3, #1
    uint16_t scale;
    if(oldBrightness == 0) scale = 0; // Avoid /0
   d54ac:	f013 03ff 	ands.w	r3, r3, #255	; 0xff
  // brightness (off), 255 = just below max brightness.
  uint8_t newBrightness = b + 1;
  if(newBrightness != brightness) { // Compare against prior value
    // Brightness has changed -- re-scale existing data in RAM
    uint8_t  c,
            *ptr           = pixels,
   d54b0:	68c4      	ldr	r4, [r0, #12]
             oldBrightness = brightness - 1; // De-wrap old brightness value
    uint16_t scale;
    if(oldBrightness == 0) scale = 0; // Avoid /0
   d54b2:	d00c      	beq.n	d54ce <_ZN17Adafruit_NeoPixel13setBrightnessEh+0x30>
    else if(b == 255) scale = 65535 / oldBrightness;
   d54b4:	29ff      	cmp	r1, #255	; 0xff
    else scale = (((uint16_t)newBrightness << 8) - 1) / oldBrightness;
   d54b6:	bf1f      	itttt	ne
   d54b8:	0211      	lslne	r1, r2, #8
   d54ba:	f101 31ff 	addne.w	r1, r1, #4294967295
   d54be:	fb91 f3f3 	sdivne	r3, r1, r3
   d54c2:	b29b      	uxthne	r3, r3
    uint8_t  c,
            *ptr           = pixels,
             oldBrightness = brightness - 1; // De-wrap old brightness value
    uint16_t scale;
    if(oldBrightness == 0) scale = 0; // Avoid /0
    else if(b == 255) scale = 65535 / oldBrightness;
   d54c4:	bf04      	itt	eq
   d54c6:	f64f 71ff 	movweq	r1, #65535	; 0xffff
   d54ca:	fb91 f3f3 	sdiveq	r3, r1, r3
  // brightness (off), 255 = just below max brightness.
  uint8_t newBrightness = b + 1;
  if(newBrightness != brightness) { // Compare against prior value
    // Brightness has changed -- re-scale existing data in RAM
    uint8_t  c,
            *ptr           = pixels,
   d54ce:	4625      	mov	r5, r4
             oldBrightness = brightness - 1; // De-wrap old brightness value
    uint16_t scale;
    if(oldBrightness == 0) scale = 0; // Avoid /0
    else if(b == 255) scale = 65535 / oldBrightness;
    else scale = (((uint16_t)newBrightness << 8) - 1) / oldBrightness;
    for(uint16_t i=0; i<numBytes; i++) {
   d54d0:	1b29      	subs	r1, r5, r4
   d54d2:	8886      	ldrh	r6, [r0, #4]
   d54d4:	b289      	uxth	r1, r1
   d54d6:	428e      	cmp	r6, r1
   d54d8:	d905      	bls.n	d54e6 <_ZN17Adafruit_NeoPixel13setBrightnessEh+0x48>
      c      = *ptr;
   d54da:	7829      	ldrb	r1, [r5, #0]
      *ptr++ = (c * scale) >> 8;
   d54dc:	4359      	muls	r1, r3
   d54de:	1209      	asrs	r1, r1, #8
   d54e0:	f805 1b01 	strb.w	r1, [r5], #1
             oldBrightness = brightness - 1; // De-wrap old brightness value
    uint16_t scale;
    if(oldBrightness == 0) scale = 0; // Avoid /0
    else if(b == 255) scale = 65535 / oldBrightness;
    else scale = (((uint16_t)newBrightness << 8) - 1) / oldBrightness;
    for(uint16_t i=0; i<numBytes; i++) {
   d54e4:	e7f4      	b.n	d54d0 <_ZN17Adafruit_NeoPixel13setBrightnessEh+0x32>
      c      = *ptr;
      *ptr++ = (c * scale) >> 8;
    }
    brightness = newBrightness;
   d54e6:	7202      	strb	r2, [r0, #8]
   d54e8:	bd70      	pop	{r4, r5, r6, pc}

000d54ea <_ZN17Adafruit_NeoPixel5clearEv>:
uint8_t Adafruit_NeoPixel::getBrightness(void) const {
  return brightness - 1;
}

void Adafruit_NeoPixel::clear(void) {
  memset(pixels, 0, numBytes);
   d54ea:	8882      	ldrh	r2, [r0, #4]
   d54ec:	68c0      	ldr	r0, [r0, #12]
   d54ee:	2100      	movs	r1, #0
   d54f0:	f004 b994 	b.w	d981c <memset>

000d54f4 <_GLOBAL__sub_I_PIN_MAP2>:
}
   d54f4:	b508      	push	{r3, lr}
   d54f6:	f001 febd 	bl	d7274 <HAL_Pin_Map>
  #define pinHI(_pin) (PIN_MAP2[_pin].gpio_peripheral->BSRRL = PIN_MAP2[_pin].gpio_pin)
#elif (PLATFORM_ID == 12) || (PLATFORM_ID == 13) || (PLATFORM_ID == 14) // Argon (12), Boron (13), Xenon (14)
  #include "nrf.h"
  #include "nrf_gpio.h"
  #include "pinmap_impl.h"
  NRF5x_Pin_Info* PIN_MAP2 = HAL_Pin_Map();
   d54fa:	f001 febb 	bl	d7274 <HAL_Pin_Map>
   d54fe:	4b01      	ldr	r3, [pc, #4]	; (d5504 <_GLOBAL__sub_I_PIN_MAP2+0x10>)
   d5500:	6018      	str	r0, [r3, #0]
   d5502:	bd08      	pop	{r3, pc}
   d5504:	2003e398 	.word	0x2003e398

000d5508 <_GLOBAL__sub_I__ZN16Adafruit_SSD13069drawPixelEsst>:
   d5508:	f001 beb4 	b.w	d7274 <HAL_Pin_Map>

000d550c <_GLOBAL__sub_I__ZN12Adafruit_GFXC2Ess>:
   d550c:	f001 beb2 	b.w	d7274 <HAL_Pin_Map>

000d5510 <_ZN19Adafruit_MQTT_SPARK9connectedEv>:
    client->stop();
  }
  return true;
}

bool Adafruit_MQTT_SPARK::connected() {
   d5510:	b508      	push	{r3, lr}
  // Return true if connected, false if not connected.
  return client->connected();
   d5512:	f8d0 00d0 	ldr.w	r0, [r0, #208]	; 0xd0
   d5516:	6803      	ldr	r3, [r0, #0]
   d5518:	6b1b      	ldr	r3, [r3, #48]	; 0x30
   d551a:	4798      	blx	r3
}
   d551c:	3000      	adds	r0, #0
   d551e:	bf18      	it	ne
   d5520:	2001      	movne	r0, #1
   d5522:	bd08      	pop	{r3, pc}

000d5524 <_ZN19Adafruit_MQTT_SPARK10sendPacketEPht>:
    delay(MQTT_CLIENT_READINTERVAL_MS);
  }
  return len;
}

bool Adafruit_MQTT_SPARK::sendPacket(uint8_t *buffer, uint16_t len) {
   d5524:	b5f8      	push	{r3, r4, r5, r6, r7, lr}
   d5526:	4606      	mov	r6, r0
   d5528:	460f      	mov	r7, r1
   d552a:	4614      	mov	r4, r2
  uint16_t ret = 0;

  while (len > 0) {
   d552c:	b1c4      	cbz	r4, d5560 <_ZN19Adafruit_MQTT_SPARK10sendPacketEPht+0x3c>
    if (client->connected()) {
   d552e:	f8d6 00d0 	ldr.w	r0, [r6, #208]	; 0xd0
   d5532:	6803      	ldr	r3, [r0, #0]
   d5534:	6b1b      	ldr	r3, [r3, #48]	; 0x30
   d5536:	4798      	blx	r3
   d5538:	b908      	cbnz	r0, d553e <_ZN19Adafruit_MQTT_SPARK10sendPacketEPht+0x1a>
	DEBUG_PRINTLN("Failed to send packet.");
	return false;
      }
    } else {
      DEBUG_PRINTLN(F("Connection failed!"));
      return false;
   d553a:	2000      	movs	r0, #0
   d553c:	bdf8      	pop	{r3, r4, r5, r6, r7, pc}
    if (client->connected()) {
      // send 250 bytes at most at a time, can adjust this later based on Client

      uint16_t sendlen = min(len, 250);
      //Serial.print("Sending: "); Serial.println(sendlen);
      ret = client->write(buffer, sendlen);
   d553e:	f8d6 00d0 	ldr.w	r0, [r6, #208]	; 0xd0
max (T a, U b) { return ((a)>(b)?(a):(b)); }

template <typename T, typename U>
static inline
typename std::common_type<T, U>::type
min (T a, U b) { return static_cast<typename std::common_type<T, U>::type>((a)<(b)?(a):(b)); }
   d5542:	2cfa      	cmp	r4, #250	; 0xfa
   d5544:	6803      	ldr	r3, [r0, #0]
   d5546:	4625      	mov	r5, r4
   d5548:	bfa8      	it	ge
   d554a:	25fa      	movge	r5, #250	; 0xfa
   d554c:	68db      	ldr	r3, [r3, #12]
   d554e:	462a      	mov	r2, r5
   d5550:	4639      	mov	r1, r7
   d5552:	4798      	blx	r3
   d5554:	b280      	uxth	r0, r0
      DEBUG_PRINT(F("Client sendPacket returned: ")); DEBUG_PRINTLN(ret);
      len -= ret;
   d5556:	1a24      	subs	r4, r4, r0

      if (ret != sendlen) {
   d5558:	4285      	cmp	r5, r0

      uint16_t sendlen = min(len, 250);
      //Serial.print("Sending: "); Serial.println(sendlen);
      ret = client->write(buffer, sendlen);
      DEBUG_PRINT(F("Client sendPacket returned: ")); DEBUG_PRINTLN(ret);
      len -= ret;
   d555a:	b2a4      	uxth	r4, r4

      if (ret != sendlen) {
   d555c:	d0e6      	beq.n	d552c <_ZN19Adafruit_MQTT_SPARK10sendPacketEPht+0x8>
   d555e:	e7ec      	b.n	d553a <_ZN19Adafruit_MQTT_SPARK10sendPacketEPht+0x16>
    } else {
      DEBUG_PRINTLN(F("Connection failed!"));
      return false;
    }
  }
  return true;
   d5560:	2001      	movs	r0, #1
}
   d5562:	bdf8      	pop	{r3, r4, r5, r6, r7, pc}

000d5564 <_ZN19Adafruit_MQTT_SPARK10readPacketEPhts>:
  // Return true if connected, false if not connected.
  return client->connected();
}

uint16_t Adafruit_MQTT_SPARK::readPacket(uint8_t *buffer, uint16_t maxlen,
                                          int16_t timeout) {
   d5564:	e92d 43f8 	stmdb	sp!, {r3, r4, r5, r6, r7, r8, r9, lr}
   d5568:	4606      	mov	r6, r0
   d556a:	4688      	mov	r8, r1
   d556c:	4691      	mov	r9, r2
   d556e:	461f      	mov	r7, r3
   d5570:	461d      	mov	r5, r3
  /* Read data until either the connection is closed, or the idle timeout is reached. */
  uint16_t len = 0;
   d5572:	2400      	movs	r4, #0
  int16_t t = timeout;

  while (client->connected() && (timeout >= 0)) {
   d5574:	f8d6 00d0 	ldr.w	r0, [r6, #208]	; 0xd0
   d5578:	6803      	ldr	r3, [r0, #0]
   d557a:	6b1b      	ldr	r3, [r3, #48]	; 0x30
   d557c:	4798      	blx	r3
   d557e:	b1d0      	cbz	r0, d55b6 <_ZN19Adafruit_MQTT_SPARK10readPacketEPhts+0x52>
   d5580:	2d00      	cmp	r5, #0
   d5582:	db18      	blt.n	d55b6 <_ZN19Adafruit_MQTT_SPARK10readPacketEPhts+0x52>
    //DEBUG_PRINT('.');
    while (client->available()) {
   d5584:	f8d6 00d0 	ldr.w	r0, [r6, #208]	; 0xd0
   d5588:	6803      	ldr	r3, [r0, #0]
   d558a:	691b      	ldr	r3, [r3, #16]
   d558c:	4798      	blx	r3
   d558e:	b160      	cbz	r0, d55aa <_ZN19Adafruit_MQTT_SPARK10readPacketEPhts+0x46>
      //DEBUG_PRINT('!');
      char c = client->read();
   d5590:	f8d6 00d0 	ldr.w	r0, [r6, #208]	; 0xd0
   d5594:	6803      	ldr	r3, [r0, #0]
   d5596:	695b      	ldr	r3, [r3, #20]
   d5598:	4798      	blx	r3
      timeout = t;  // reset the timeout
      buffer[len] = c;
   d559a:	f808 0004 	strb.w	r0, [r8, r4]
      //DEBUG_PRINTLN((uint8_t)c, HEX);
      len++;
   d559e:	3401      	adds	r4, #1
   d55a0:	b2a4      	uxth	r4, r4
      if (len == maxlen) {  // we read all we want, bail
   d55a2:	454c      	cmp	r4, r9
   d55a4:	d007      	beq.n	d55b6 <_ZN19Adafruit_MQTT_SPARK10readPacketEPhts+0x52>
  while (client->connected() && (timeout >= 0)) {
    //DEBUG_PRINT('.');
    while (client->available()) {
      //DEBUG_PRINT('!');
      char c = client->read();
      timeout = t;  // reset the timeout
   d55a6:	463d      	mov	r5, r7
   d55a8:	e7ec      	b.n	d5584 <_ZN19Adafruit_MQTT_SPARK10readPacketEPhts+0x20>
        DEBUG_PRINT(F("Read data:\t"));
        DEBUG_PRINTBUFFER(buffer, len);
        return len;
      }
    }
    timeout -= MQTT_CLIENT_READINTERVAL_MS;
   d55aa:	3d0a      	subs	r5, #10
    delay(MQTT_CLIENT_READINTERVAL_MS);
   d55ac:	200a      	movs	r0, #10
        DEBUG_PRINT(F("Read data:\t"));
        DEBUG_PRINTBUFFER(buffer, len);
        return len;
      }
    }
    timeout -= MQTT_CLIENT_READINTERVAL_MS;
   d55ae:	b22d      	sxth	r5, r5
    delay(MQTT_CLIENT_READINTERVAL_MS);
   d55b0:	f002 fc96 	bl	d7ee0 <delay>
                                          int16_t timeout) {
  /* Read data until either the connection is closed, or the idle timeout is reached. */
  uint16_t len = 0;
  int16_t t = timeout;

  while (client->connected() && (timeout >= 0)) {
   d55b4:	e7de      	b.n	d5574 <_ZN19Adafruit_MQTT_SPARK10readPacketEPhts+0x10>
    }
    timeout -= MQTT_CLIENT_READINTERVAL_MS;
    delay(MQTT_CLIENT_READINTERVAL_MS);
  }
  return len;
}
   d55b6:	4620      	mov	r0, r4
   d55b8:	e8bd 83f8 	ldmia.w	sp!, {r3, r4, r5, r6, r7, r8, r9, pc}

000d55bc <_ZN19Adafruit_MQTT_SPARK13connectServerEv>:
        }
    }
    return true;
}

bool Adafruit_MQTT_SPARK::connectServer(){
   d55bc:	b570      	push	{r4, r5, r6, lr}
   d55be:	4604      	mov	r4, r0
  // Grab server name from flash and copy to buffer for name resolution.
  memset(buffer, 0, sizeof(buffer));
   d55c0:	f100 0522 	add.w	r5, r0, #34	; 0x22
   d55c4:	2296      	movs	r2, #150	; 0x96
   d55c6:	2100      	movs	r1, #0
   d55c8:	4628      	mov	r0, r5
   d55ca:	f004 f927 	bl	d981c <memset>
  strcpy((char *)buffer, servername);
   d55ce:	6861      	ldr	r1, [r4, #4]
   d55d0:	4628      	mov	r0, r5
   d55d2:	f004 f95d 	bl	d9890 <strcpy>
  DEBUG_PRINT(F("Connecting to: ")); DEBUG_PRINTLN((char *)buffer);
  // Connect and check for success (0 result).
  int r = client->connect((char *)buffer, portnum);
   d55d6:	f8d4 00d0 	ldr.w	r0, [r4, #208]	; 0xd0
   d55da:	8922      	ldrh	r2, [r4, #8]
   d55dc:	6803      	ldr	r3, [r0, #0]
   d55de:	4629      	mov	r1, r5
   d55e0:	6a5e      	ldr	r6, [r3, #36]	; 0x24
   d55e2:	2300      	movs	r3, #0
   d55e4:	47b0      	blx	r6
  DEBUG_PRINT(F("Connect result: ")); DEBUG_PRINTLN(r);
  return r != 0;
}
   d55e6:	3000      	adds	r0, #0
   d55e8:	bf18      	it	ne
   d55ea:	2001      	movne	r0, #1
   d55ec:	bd70      	pop	{r4, r5, r6, pc}

000d55ee <_ZN19Adafruit_MQTT_SPARK16disconnectServerEv>:

bool Adafruit_MQTT_SPARK::disconnectServer() {
   d55ee:	b510      	push	{r4, lr}
   d55f0:	4604      	mov	r4, r0
  // Stop connection if connected and return success (stop has no indication of
  // failure).
  if (client->connected()) {
   d55f2:	f8d0 00d0 	ldr.w	r0, [r0, #208]	; 0xd0
   d55f6:	6803      	ldr	r3, [r0, #0]
   d55f8:	6b1b      	ldr	r3, [r3, #48]	; 0x30
   d55fa:	4798      	blx	r3
   d55fc:	b120      	cbz	r0, d5608 <_ZN19Adafruit_MQTT_SPARK16disconnectServerEv+0x1a>
    client->stop();
   d55fe:	f8d4 00d0 	ldr.w	r0, [r4, #208]	; 0xd0
   d5602:	6803      	ldr	r3, [r0, #0]
   d5604:	6adb      	ldr	r3, [r3, #44]	; 0x2c
   d5606:	4798      	blx	r3
  }
  return true;
}
   d5608:	2001      	movs	r0, #1
   d560a:	bd10      	pop	{r4, pc}

000d560c <_GLOBAL__sub_I__ZN19Adafruit_MQTT_SPARK6UpdateEv>:
   d560c:	f001 be32 	b.w	d7274 <HAL_Pin_Map>

000d5610 <_ZL11stringprintPhPKct.constprop.3>:
  memmove(p, s, len);
  return p+len;
}
*/

static uint8_t *stringprint(uint8_t *p, const char *s, uint16_t maxlen=0) {
   d5610:	b570      	push	{r4, r5, r6, lr}
   d5612:	4604      	mov	r4, r0
  // If maxlen is specified (has a non-zero value) then use it as the maximum
  // length of the source string to write to the buffer.  Otherwise write
  // the entire source string.
  uint16_t len = strlen(s);
   d5614:	4608      	mov	r0, r1
  memmove(p, s, len);
  return p+len;
}
*/

static uint8_t *stringprint(uint8_t *p, const char *s, uint16_t maxlen=0) {
   d5616:	460e      	mov	r6, r1
  // If maxlen is specified (has a non-zero value) then use it as the maximum
  // length of the source string to write to the buffer.  Otherwise write
  // the entire source string.
  uint16_t len = strlen(s);
   d5618:	f004 f942 	bl	d98a0 <strlen>
  /*
  for (uint8_t i=0; i<len; i++) {
    Serial.write(pgm_read_byte(s+i));
  }
  */
  p[0] = len >> 8; p++;
   d561c:	1203      	asrs	r3, r0, #8
   d561e:	7023      	strb	r3, [r4, #0]
  p[0] = len & 0xFF; p++;
   d5620:	7060      	strb	r0, [r4, #1]
   d5622:	b285      	uxth	r5, r0
   d5624:	3402      	adds	r4, #2
  strncpy((char *)p, s, len);
   d5626:	462a      	mov	r2, r5
   d5628:	4631      	mov	r1, r6
   d562a:	4620      	mov	r0, r4
   d562c:	f004 f955 	bl	d98da <strncpy>
  return p+len;
}
   d5630:	1960      	adds	r0, r4, r5
   d5632:	bd70      	pop	{r4, r5, r6, pc}

000d5634 <_ZN13Adafruit_MQTTC1EPKctS1_S1_>:
  packet_id_counter = 0;

}


Adafruit_MQTT::Adafruit_MQTT(const char *server,
   d5634:	b530      	push	{r4, r5, lr}
                             const char *user,
                             const char *pass) {
  servername = server;
  portnum = port;
  clientid = "";
  username = user;
   d5636:	6103      	str	r3, [r0, #16]
  password = pass;
   d5638:	9b03      	ldr	r3, [sp, #12]


Adafruit_MQTT::Adafruit_MQTT(const char *server,
                             uint16_t port,
                             const char *user,
                             const char *pass) {
   d563a:	4d0d      	ldr	r5, [pc, #52]	; (d5670 <_ZN13Adafruit_MQTTC1EPKctS1_S1_+0x3c>)
  servername = server;
  portnum = port;
   d563c:	8102      	strh	r2, [r0, #8]
  clientid = "";
  username = user;
  password = pass;
   d563e:	6143      	str	r3, [r0, #20]
                             uint16_t port,
                             const char *user,
                             const char *pass) {
  servername = server;
  portnum = port;
  clientid = "";
   d5640:	4a0c      	ldr	r2, [pc, #48]	; (d5674 <_ZN13Adafruit_MQTTC1EPKctS1_S1_+0x40>)


Adafruit_MQTT::Adafruit_MQTT(const char *server,
                             uint16_t port,
                             const char *user,
                             const char *pass) {
   d5642:	6005      	str	r5, [r0, #0]
  username = user;
  password = pass;

  // reset subscriptions
  for (uint8_t i=0; i<MAXSUBSCRIPTIONS; i++) {
    subscriptions[i] = 0;
   d5644:	2300      	movs	r3, #0

Adafruit_MQTT::Adafruit_MQTT(const char *server,
                             uint16_t port,
                             const char *user,
                             const char *pass) {
  servername = server;
   d5646:	6041      	str	r1, [r0, #4]
  portnum = port;
  clientid = "";
   d5648:	60c2      	str	r2, [r0, #12]
  username = user;
  password = pass;

  // reset subscriptions
  for (uint8_t i=0; i<MAXSUBSCRIPTIONS; i++) {
    subscriptions[i] = 0;
   d564a:	f8c0 30bc 	str.w	r3, [r0, #188]	; 0xbc
   d564e:	f8c0 30c0 	str.w	r3, [r0, #192]	; 0xc0
   d5652:	f8c0 30c4 	str.w	r3, [r0, #196]	; 0xc4
   d5656:	f8c0 30c8 	str.w	r3, [r0, #200]	; 0xc8
   d565a:	f8c0 30cc 	str.w	r3, [r0, #204]	; 0xcc
  }

  will_topic = 0;
   d565e:	6183      	str	r3, [r0, #24]
  will_payload = 0;
   d5660:	61c3      	str	r3, [r0, #28]
  will_qos = 0;
   d5662:	f880 3020 	strb.w	r3, [r0, #32]
  will_retain = 0;
   d5666:	f880 3021 	strb.w	r3, [r0, #33]	; 0x21

  packet_id_counter = 0;
   d566a:	f8a0 30b8 	strh.w	r3, [r0, #184]	; 0xb8

}
   d566e:	bd30      	pop	{r4, r5, pc}
   d5670:	000da3e4 	.word	0x000da3e4
   d5674:	000da435 	.word	0x000da435

000d5678 <_ZN13Adafruit_MQTT14readFullPacketEPhtt>:
    }
  }
  return 0;
}

uint16_t Adafruit_MQTT::readFullPacket(uint8_t *buffer, uint16_t maxsize, uint16_t timeout) {
   d5678:	e92d 4ff7 	stmdb	sp!, {r0, r1, r2, r4, r5, r6, r7, r8, r9, sl, fp, lr}
  uint8_t *pbuff = buffer;

  uint8_t rlen;

  // read the packet type:
  rlen = readPacket(pbuff, 1, timeout);
   d567c:	fa0f fa83 	sxth.w	sl, r3
   d5680:	6803      	ldr	r3, [r0, #0]
    }
  }
  return 0;
}

uint16_t Adafruit_MQTT::readFullPacket(uint8_t *buffer, uint16_t maxsize, uint16_t timeout) {
   d5682:	9201      	str	r2, [sp, #4]
  uint8_t *pbuff = buffer;

  uint8_t rlen;

  // read the packet type:
  rlen = readPacket(pbuff, 1, timeout);
   d5684:	699d      	ldr	r5, [r3, #24]
   d5686:	2201      	movs	r2, #1
   d5688:	4653      	mov	r3, sl
    }
  }
  return 0;
}

uint16_t Adafruit_MQTT::readFullPacket(uint8_t *buffer, uint16_t maxsize, uint16_t timeout) {
   d568a:	4606      	mov	r6, r0
   d568c:	460c      	mov	r4, r1
  uint8_t *pbuff = buffer;

  uint8_t rlen;

  // read the packet type:
  rlen = readPacket(pbuff, 1, timeout);
   d568e:	47a8      	blx	r5
  if (rlen != 1) return 0;
   d5690:	b2c0      	uxtb	r0, r0
   d5692:	2801      	cmp	r0, #1
   d5694:	d001      	beq.n	d569a <_ZN13Adafruit_MQTT14readFullPacketEPhtt+0x22>
   d5696:	2000      	movs	r0, #0
   d5698:	e034      	b.n	d5704 <_ZN13Adafruit_MQTT14readFullPacketEPhtt+0x8c>

  DEBUG_PRINT(F("Packet Type:\t")); DEBUG_PRINTBUFFER(pbuff, rlen);
  pbuff++;
   d569a:	1c65      	adds	r5, r4, #1
   d569c:	f104 0b05 	add.w	fp, r4, #5

  uint32_t value = 0;
  uint32_t multiplier = 1;
   d56a0:	4680      	mov	r8, r0
  if (rlen != 1) return 0;

  DEBUG_PRINT(F("Packet Type:\t")); DEBUG_PRINTBUFFER(pbuff, rlen);
  pbuff++;

  uint32_t value = 0;
   d56a2:	f04f 0900 	mov.w	r9, #0
  uint32_t multiplier = 1;
  uint8_t encodedByte;

  do {
    rlen = readPacket(pbuff, 1, timeout);
   d56a6:	6833      	ldr	r3, [r6, #0]
   d56a8:	699b      	ldr	r3, [r3, #24]
   d56aa:	2201      	movs	r2, #1
   d56ac:	461f      	mov	r7, r3
   d56ae:	4629      	mov	r1, r5
   d56b0:	4653      	mov	r3, sl
   d56b2:	4630      	mov	r0, r6
   d56b4:	47b8      	blx	r7
    if (rlen != 1) return 0;
   d56b6:	b2c0      	uxtb	r0, r0
   d56b8:	2801      	cmp	r0, #1
   d56ba:	d1ec      	bne.n	d5696 <_ZN13Adafruit_MQTT14readFullPacketEPhtt+0x1e>
    encodedByte = pbuff[0]; // save the last read val
   d56bc:	f815 3b01 	ldrb.w	r3, [r5], #1
    pbuff++; // get ready for reading the next byte
    uint32_t intermediate = encodedByte & 0x7F;
   d56c0:	f003 027f 	and.w	r2, r3, #127	; 0x7f
    intermediate *= multiplier;
    value += intermediate;
    multiplier *= 128;
    if (multiplier > (128UL*128UL*128UL)) {
   d56c4:	455d      	cmp	r5, fp
    if (rlen != 1) return 0;
    encodedByte = pbuff[0]; // save the last read val
    pbuff++; // get ready for reading the next byte
    uint32_t intermediate = encodedByte & 0x7F;
    intermediate *= multiplier;
    value += intermediate;
   d56c6:	fb02 9908 	mla	r9, r2, r8, r9
    multiplier *= 128;
   d56ca:	ea4f 18c8 	mov.w	r8, r8, lsl #7
    if (multiplier > (128UL*128UL*128UL)) {
   d56ce:	d0e2      	beq.n	d5696 <_ZN13Adafruit_MQTT14readFullPacketEPhtt+0x1e>

  uint32_t value = 0;
  uint32_t multiplier = 1;
  uint8_t encodedByte;

  do {
   d56d0:	061b      	lsls	r3, r3, #24
   d56d2:	d4e8      	bmi.n	d56a6 <_ZN13Adafruit_MQTT14readFullPacketEPhtt+0x2e>
    }
  } while (encodedByte & 0x80);

  DEBUG_PRINT(F("Packet Length:\t")); DEBUG_PRINTLN(value);
  
  if (value > (unsigned)(maxsize - (pbuff-buffer) - 1)) {
   d56d4:	9b01      	ldr	r3, [sp, #4]
   d56d6:	1b2c      	subs	r4, r5, r4
   d56d8:	1b1b      	subs	r3, r3, r4
   d56da:	3b01      	subs	r3, #1
   d56dc:	4599      	cmp	r9, r3
   d56de:	6833      	ldr	r3, [r6, #0]
   d56e0:	d906      	bls.n	d56f0 <_ZN13Adafruit_MQTT14readFullPacketEPhtt+0x78>
      DEBUG_PRINTLN(F("Packet too big for buffer"));
      rlen = readPacket(pbuff, (maxsize - (pbuff-buffer) - 1), timeout);
   d56e2:	9a01      	ldr	r2, [sp, #4]
   d56e4:	699f      	ldr	r7, [r3, #24]
   d56e6:	3a01      	subs	r2, #1
   d56e8:	1b12      	subs	r2, r2, r4
   d56ea:	4653      	mov	r3, sl
   d56ec:	b292      	uxth	r2, r2
   d56ee:	e003      	b.n	d56f8 <_ZN13Adafruit_MQTT14readFullPacketEPhtt+0x80>
  } else {
    rlen = readPacket(pbuff, value, timeout);
   d56f0:	699f      	ldr	r7, [r3, #24]
   d56f2:	fa1f f289 	uxth.w	r2, r9
   d56f6:	4653      	mov	r3, sl
   d56f8:	4629      	mov	r1, r5
   d56fa:	4630      	mov	r0, r6
   d56fc:	47b8      	blx	r7
   d56fe:	b2c0      	uxtb	r0, r0
  }
  //DEBUG_PRINT(F("Remaining packet:\t")); DEBUG_PRINTBUFFER(pbuff, rlen);

  return ((pbuff - buffer)+rlen);
   d5700:	4420      	add	r0, r4
   d5702:	b280      	uxth	r0, r0
}
   d5704:	b003      	add	sp, #12
   d5706:	e8bd 8ff0 	ldmia.w	sp!, {r4, r5, r6, r7, r8, r9, sl, fp, pc}
	...

000d570c <_ZN13Adafruit_MQTT19processPacketsUntilEPhht>:
  username = user;
  password = pass;
  return connect();
}

uint16_t Adafruit_MQTT::processPacketsUntil(uint8_t *buffer, uint8_t waitforpackettype, uint16_t timeout) {
   d570c:	b5f8      	push	{r3, r4, r5, r6, r7, lr}
   d570e:	4605      	mov	r5, r0
   d5710:	460c      	mov	r4, r1
   d5712:	4616      	mov	r6, r2
   d5714:	461f      	mov	r7, r3
  uint16_t len;
  while ( (len = readFullPacket(buffer, MAXBUFFERSIZE, timeout)) > 0) {
   d5716:	463b      	mov	r3, r7
   d5718:	2296      	movs	r2, #150	; 0x96
   d571a:	4621      	mov	r1, r4
   d571c:	4628      	mov	r0, r5
   d571e:	f7ff ffab 	bl	d5678 <_ZN13Adafruit_MQTT14readFullPacketEPhtt>
   d5722:	b148      	cbz	r0, d5738 <_ZN13Adafruit_MQTT19processPacketsUntilEPhht+0x2c>

    //DEBUG_PRINT("Packet read size: "); DEBUG_PRINTLN(len);
    // TODO: add subscription reading & call back processing here

    if ((buffer[0] >> 4) == waitforpackettype) {
   d5724:	7823      	ldrb	r3, [r4, #0]
   d5726:	ebb6 1f13 	cmp.w	r6, r3, lsr #4
   d572a:	d005      	beq.n	d5738 <_ZN13Adafruit_MQTT19processPacketsUntilEPhht+0x2c>
      //DEBUG_PRINTLN(F("Found right packet")); 
      return len;
    } else {
      ERROR_PRINTLN(F("Dropped a packet"));
   d572c:	f002 fd6a 	bl	d8204 <_Z16_fetch_usbserialv>
   d5730:	4902      	ldr	r1, [pc, #8]	; (d573c <_ZN13Adafruit_MQTT19processPacketsUntilEPhht+0x30>)
   d5732:	f002 fade 	bl	d7cf2 <_ZN5Print7printlnEPKc>
  return connect();
}

uint16_t Adafruit_MQTT::processPacketsUntil(uint8_t *buffer, uint8_t waitforpackettype, uint16_t timeout) {
  uint16_t len;
  while ( (len = readFullPacket(buffer, MAXBUFFERSIZE, timeout)) > 0) {
   d5736:	e7ee      	b.n	d5716 <_ZN13Adafruit_MQTT19processPacketsUntilEPhht+0xa>
    } else {
      ERROR_PRINTLN(F("Dropped a packet"));
    }
  }
  return 0;
}
   d5738:	bdf8      	pop	{r3, r4, r5, r6, r7, pc}
   d573a:	bf00      	nop
   d573c:	000da436 	.word	0x000da436

000d5740 <_ZN13Adafruit_MQTT18connectErrorStringEa>:

  return ((pbuff - buffer)+rlen);
}

const FLASH_STRING* Adafruit_MQTT::connectErrorString(int8_t code)
{
   d5740:	3102      	adds	r1, #2
   d5742:	b2c9      	uxtb	r1, r1
   d5744:	2909      	cmp	r1, #9
   d5746:	bf9a      	itte	ls
   d5748:	4b02      	ldrls	r3, [pc, #8]	; (d5754 <_ZN13Adafruit_MQTT18connectErrorStringEa+0x14>)
   d574a:	f853 0021 	ldrls.w	r0, [r3, r1, lsl #2]
   switch (code) {
   d574e:	4802      	ldrhi	r0, [pc, #8]	; (d5758 <_ZN13Adafruit_MQTT18connectErrorStringEa+0x18>)
      case 7: return F("You have been banned from connecting. Please contact the MQTT server administrator for more details.");
      case -1: return F("Connection failed");
      case -2: return F("Failed to subscribe");
   }
    return F("Unknown error");
}
   d5750:	4770      	bx	lr
   d5752:	bf00      	nop
   d5754:	000da400 	.word	0x000da400
   d5758:	000da447 	.word	0x000da447

000d575c <_ZN13Adafruit_MQTT10disconnectEv>:

bool Adafruit_MQTT::disconnect() {
   d575c:	b510      	push	{r4, lr}
  DEBUG_PRINTBUFFER(buffer, 4);
  return 4;
}

uint8_t Adafruit_MQTT::disconnectPacket(uint8_t *packet) {
  packet[0] = MQTT_CTRL_DISCONNECT << 4;
   d575e:	23e0      	movs	r3, #224	; 0xe0
   d5760:	f880 3022 	strb.w	r3, [r0, #34]	; 0x22
  packet[1] = 0;
   d5764:	2300      	movs	r3, #0
   d5766:	f880 3023 	strb.w	r3, [r0, #35]	; 0x23

bool Adafruit_MQTT::disconnect() {

  // Construct and send disconnect packet.
  uint8_t len = disconnectPacket(buffer);
  if (! sendPacket(buffer, len))
   d576a:	6803      	ldr	r3, [r0, #0]
      case -2: return F("Failed to subscribe");
   }
    return F("Unknown error");
}

bool Adafruit_MQTT::disconnect() {
   d576c:	4604      	mov	r4, r0

  // Construct and send disconnect packet.
  uint8_t len = disconnectPacket(buffer);
  if (! sendPacket(buffer, len))
   d576e:	695b      	ldr	r3, [r3, #20]
   d5770:	2202      	movs	r2, #2
   d5772:	f100 0122 	add.w	r1, r0, #34	; 0x22
   d5776:	4798      	blx	r3
    DEBUG_PRINTLN(F("Unable to send disconnect packet"));

  return disconnectServer();
   d5778:	6823      	ldr	r3, [r4, #0]
   d577a:	4620      	mov	r0, r4
   d577c:	691b      	ldr	r3, [r3, #16]

}
   d577e:	e8bd 4010 	ldmia.w	sp!, {r4, lr}
  // Construct and send disconnect packet.
  uint8_t len = disconnectPacket(buffer);
  if (! sendPacket(buffer, len))
    DEBUG_PRINTLN(F("Unable to send disconnect packet"));

  return disconnectServer();
   d5782:	4718      	bx	r3

000d5784 <_ZN13Adafruit_MQTT13connectPacketEPh>:
// The current MQTT spec is 3.1.1 and available here:
//   http://docs.oasis-open.org/mqtt/mqtt/v3.1.1/os/mqtt-v3.1.1-os.html#_Toc398718028
// However this connect packet and code follows the MQTT 3.1 spec here (some
// small differences in the protocol):
//   http://public.dhe.ibm.com/software/dw/webservices/ws-mqtt/mqtt-v3r1.html#connect
uint8_t Adafruit_MQTT::connectPacket(uint8_t *packet) {
   d5784:	b538      	push	{r3, r4, r5, lr}
   d5786:	4604      	mov	r4, r0
  uint8_t *p = packet;
  uint16_t len;

  // fixed header, connection messsage no flags
  p[0] = (MQTT_CTRL_CONNECT << 4) | 0x0;
   d5788:	4608      	mov	r0, r1
   d578a:	2310      	movs	r3, #16
   d578c:	f800 3b02 	strb.w	r3, [r0], #2
// The current MQTT spec is 3.1.1 and available here:
//   http://docs.oasis-open.org/mqtt/mqtt/v3.1.1/os/mqtt-v3.1.1-os.html#_Toc398718028
// However this connect packet and code follows the MQTT 3.1 spec here (some
// small differences in the protocol):
//   http://public.dhe.ibm.com/software/dw/webservices/ws-mqtt/mqtt-v3r1.html#connect
uint8_t Adafruit_MQTT::connectPacket(uint8_t *packet) {
   d5790:	460d      	mov	r5, r1
  // fill in packet[1] last

#if MQTT_PROTOCOL_LEVEL == 3
    p = stringprint(p, "MQIsdp");
#elif MQTT_PROTOCOL_LEVEL == 4
    p = stringprint(p, "MQTT");
   d5792:	4929      	ldr	r1, [pc, #164]	; (d5838 <_ZN13Adafruit_MQTT13connectPacketEPh+0xb4>)
   d5794:	f7ff ff3c 	bl	d5610 <_ZL11stringprintPhPKct.constprop.3>
#else
    #error "MQTT level not supported"
#endif

  p[0] = MQTT_PROTOCOL_LEVEL;
   d5798:	2304      	movs	r3, #4
   d579a:	7003      	strb	r3, [r0, #0]
  p++;

  // always clean the session
  p[0] = MQTT_CONN_CLEANSESSION;
   d579c:	2302      	movs	r3, #2
   d579e:	7043      	strb	r3, [r0, #1]

  // set the will flags if needed
  if (will_topic && pgm_read_byte(will_topic) != 0) {
   d57a0:	69a3      	ldr	r3, [r4, #24]
   d57a2:	b1ab      	cbz	r3, d57d0 <_ZN13Adafruit_MQTT13connectPacketEPh+0x4c>
   d57a4:	781b      	ldrb	r3, [r3, #0]
   d57a6:	b19b      	cbz	r3, d57d0 <_ZN13Adafruit_MQTT13connectPacketEPh+0x4c>

    p[0] |= MQTT_CONN_WILLFLAG;
   d57a8:	2306      	movs	r3, #6
   d57aa:	7043      	strb	r3, [r0, #1]

    if(will_qos == 1)
   d57ac:	f894 3020 	ldrb.w	r3, [r4, #32]
   d57b0:	2b01      	cmp	r3, #1
   d57b2:	d101      	bne.n	d57b8 <_ZN13Adafruit_MQTT13connectPacketEPh+0x34>
      p[0] |= MQTT_CONN_WILLQOS_1;
   d57b4:	230e      	movs	r3, #14
   d57b6:	e002      	b.n	d57be <_ZN13Adafruit_MQTT13connectPacketEPh+0x3a>
    else if(will_qos == 2)
   d57b8:	2b02      	cmp	r3, #2
   d57ba:	d101      	bne.n	d57c0 <_ZN13Adafruit_MQTT13connectPacketEPh+0x3c>
      p[0] |= MQTT_CONN_WILLQOS_2;
   d57bc:	231e      	movs	r3, #30
   d57be:	7043      	strb	r3, [r0, #1]

    if(will_retain == 1)
   d57c0:	f894 3021 	ldrb.w	r3, [r4, #33]	; 0x21
   d57c4:	2b01      	cmp	r3, #1
      p[0] |= MQTT_CONN_WILLRETAIN;
   d57c6:	bf02      	ittt	eq
   d57c8:	7843      	ldrbeq	r3, [r0, #1]
   d57ca:	f043 0320 	orreq.w	r3, r3, #32
   d57ce:	7043      	strbeq	r3, [r0, #1]

  }

  if (pgm_read_byte(username) != 0)
   d57d0:	6923      	ldr	r3, [r4, #16]
   d57d2:	781b      	ldrb	r3, [r3, #0]
   d57d4:	b11b      	cbz	r3, d57de <_ZN13Adafruit_MQTT13connectPacketEPh+0x5a>
    p[0] |= MQTT_CONN_USERNAMEFLAG;
   d57d6:	7843      	ldrb	r3, [r0, #1]
   d57d8:	f063 037f 	orn	r3, r3, #127	; 0x7f
   d57dc:	7043      	strb	r3, [r0, #1]
  if (pgm_read_byte(password) != 0)
   d57de:	6963      	ldr	r3, [r4, #20]
   d57e0:	781b      	ldrb	r3, [r3, #0]
   d57e2:	b11b      	cbz	r3, d57ec <_ZN13Adafruit_MQTT13connectPacketEPh+0x68>
    p[0] |= MQTT_CONN_PASSWORDFLAG;
   d57e4:	7843      	ldrb	r3, [r0, #1]
   d57e6:	f043 0340 	orr.w	r3, r3, #64	; 0x40
   d57ea:	7043      	strb	r3, [r0, #1]
  p++;

  p[0] = MQTT_CONN_KEEPALIVE >> 8;
   d57ec:	2301      	movs	r3, #1
   d57ee:	7083      	strb	r3, [r0, #2]
  p++;
  p[0] = MQTT_CONN_KEEPALIVE & 0xFF;
   d57f0:	232c      	movs	r3, #44	; 0x2c
   d57f2:	70c3      	strb	r3, [r0, #3]
  p++;

  if(MQTT_PROTOCOL_LEVEL == 3) {
    p = stringprint(p, clientid, 23);  // Limit client ID to first 23 characters.
  } else {
    if (pgm_read_byte(clientid) != 0) {
   d57f4:	68e1      	ldr	r1, [r4, #12]
   d57f6:	780b      	ldrb	r3, [r1, #0]
   d57f8:	b11b      	cbz	r3, d5802 <_ZN13Adafruit_MQTT13connectPacketEPh+0x7e>
      p = stringprint(p, clientid);
   d57fa:	3004      	adds	r0, #4
   d57fc:	f7ff ff08 	bl	d5610 <_ZL11stringprintPhPKct.constprop.3>
   d5800:	e002      	b.n	d5808 <_ZN13Adafruit_MQTT13connectPacketEPh+0x84>
    } else {
      p[0] = 0x0;
   d5802:	7103      	strb	r3, [r0, #4]
      p++;
      p[0] = 0x0;
   d5804:	7143      	strb	r3, [r0, #5]
      p++;
   d5806:	3006      	adds	r0, #6
      DEBUG_PRINTLN(F("SERVER GENERATING CLIENT ID"));
    }
  }

  if (will_topic && pgm_read_byte(will_topic) != 0) {
   d5808:	69a1      	ldr	r1, [r4, #24]
   d580a:	b131      	cbz	r1, d581a <_ZN13Adafruit_MQTT13connectPacketEPh+0x96>
   d580c:	780b      	ldrb	r3, [r1, #0]
   d580e:	b123      	cbz	r3, d581a <_ZN13Adafruit_MQTT13connectPacketEPh+0x96>
    p = stringprint(p, will_topic);
   d5810:	f7ff fefe 	bl	d5610 <_ZL11stringprintPhPKct.constprop.3>
    p = stringprint(p, will_payload);
   d5814:	69e1      	ldr	r1, [r4, #28]
   d5816:	f7ff fefb 	bl	d5610 <_ZL11stringprintPhPKct.constprop.3>
  }

  if (pgm_read_byte(username) != 0) {
   d581a:	6921      	ldr	r1, [r4, #16]
   d581c:	780b      	ldrb	r3, [r1, #0]
   d581e:	b10b      	cbz	r3, d5824 <_ZN13Adafruit_MQTT13connectPacketEPh+0xa0>
    p = stringprint(p, username);
   d5820:	f7ff fef6 	bl	d5610 <_ZL11stringprintPhPKct.constprop.3>
  }
  if (pgm_read_byte(password) != 0) {
   d5824:	6961      	ldr	r1, [r4, #20]
   d5826:	780b      	ldrb	r3, [r1, #0]
   d5828:	b10b      	cbz	r3, d582e <_ZN13Adafruit_MQTT13connectPacketEPh+0xaa>
    p = stringprint(p, password);
   d582a:	f7ff fef1 	bl	d5610 <_ZL11stringprintPhPKct.constprop.3>
  }

  len = p - packet;

  packet[1] = len-2;  // don't include the 2 bytes of fixed header data
   d582e:	1b40      	subs	r0, r0, r5
   d5830:	b2c0      	uxtb	r0, r0
   d5832:	1e83      	subs	r3, r0, #2
   d5834:	706b      	strb	r3, [r5, #1]
  DEBUG_PRINTLN(F("MQTT connect packet:"));
  DEBUG_PRINTBUFFER(buffer, len);
  return len;
}
   d5836:	bd38      	pop	{r3, r4, r5, pc}
   d5838:	000da455 	.word	0x000da455

000d583c <_ZN13Adafruit_MQTT15subscribePacketEPhPKch>:
  DEBUG_PRINTBUFFER(buffer, len);
  return len;
}

uint8_t Adafruit_MQTT::subscribePacket(uint8_t *packet, const char *topic,
                                       uint8_t qos) {
   d583c:	b538      	push	{r3, r4, r5, lr}
   d583e:	461d      	mov	r5, r3
  uint8_t *p = packet;
  uint16_t len;

  p[0] = MQTT_CTRL_SUBSCRIBE << 4 | MQTT_QOS_1 << 1;
   d5840:	2382      	movs	r3, #130	; 0x82
   d5842:	700b      	strb	r3, [r1, #0]
  DEBUG_PRINTBUFFER(buffer, len);
  return len;
}

uint8_t Adafruit_MQTT::subscribePacket(uint8_t *packet, const char *topic,
                                       uint8_t qos) {
   d5844:	460c      	mov	r4, r1
  p[0] = MQTT_CTRL_SUBSCRIBE << 4 | MQTT_QOS_1 << 1;
  // fill in packet[1] last
  p+=2;

  // packet identifier. used for checking SUBACK
  p[0] = (packet_id_counter >> 8) & 0xFF;
   d5846:	f8b0 10b8 	ldrh.w	r1, [r0, #184]	; 0xb8
   d584a:	0a09      	lsrs	r1, r1, #8
   d584c:	70a1      	strb	r1, [r4, #2]
  p[1] = packet_id_counter & 0xFF;
   d584e:	f8b0 30b8 	ldrh.w	r3, [r0, #184]	; 0xb8
   d5852:	70e3      	strb	r3, [r4, #3]
  p+=2;

  // increment the packet id
  packet_id_counter++;
   d5854:	f8b0 10b8 	ldrh.w	r1, [r0, #184]	; 0xb8
   d5858:	3101      	adds	r1, #1
   d585a:	f8a0 10b8 	strh.w	r1, [r0, #184]	; 0xb8

  p = stringprint(p, topic);
   d585e:	4611      	mov	r1, r2
   d5860:	1d20      	adds	r0, r4, #4
   d5862:	f7ff fed5 	bl	d5610 <_ZL11stringprintPhPKct.constprop.3>

  p[0] = qos;
   d5866:	f800 5b01 	strb.w	r5, [r0], #1
  p++;

  len = p - packet;
  packet[1] = len-2; // don't include the 2 bytes of fixed header data
   d586a:	1b00      	subs	r0, r0, r4
   d586c:	b2c0      	uxtb	r0, r0
   d586e:	1e83      	subs	r3, r0, #2
   d5870:	7063      	strb	r3, [r4, #1]
  DEBUG_PRINTLN(F("MQTT subscription packet:"));
  DEBUG_PRINTBUFFER(buffer, len);
  return len;
}
   d5872:	bd38      	pop	{r3, r4, r5, pc}

000d5874 <_ZN13Adafruit_MQTT7connectEv>:

  packet_id_counter = 0;

}

int8_t Adafruit_MQTT::connect() {
   d5874:	e92d 41f0 	stmdb	sp!, {r4, r5, r6, r7, r8, lr}
  // Connect to the server.
  if (!connectServer())
   d5878:	6803      	ldr	r3, [r0, #0]
   d587a:	68db      	ldr	r3, [r3, #12]

  packet_id_counter = 0;

}

int8_t Adafruit_MQTT::connect() {
   d587c:	4604      	mov	r4, r0
  // Connect to the server.
  if (!connectServer())
   d587e:	4798      	blx	r3
   d5880:	b918      	cbnz	r0, d588a <_ZN13Adafruit_MQTT7connectEv+0x16>
    return -1;
   d5882:	f04f 30ff 	mov.w	r0, #4294967295
   d5886:	e8bd 81f0 	ldmia.w	sp!, {r4, r5, r6, r7, r8, pc}

  // Construct and send connect packet.
  uint8_t len = connectPacket(buffer);
   d588a:	f104 0522 	add.w	r5, r4, #34	; 0x22
   d588e:	4629      	mov	r1, r5
   d5890:	4620      	mov	r0, r4
   d5892:	f7ff ff77 	bl	d5784 <_ZN13Adafruit_MQTT13connectPacketEPh>
  if (!sendPacket(buffer, len))
   d5896:	6823      	ldr	r3, [r4, #0]
   d5898:	b282      	uxth	r2, r0
   d589a:	695b      	ldr	r3, [r3, #20]
   d589c:	4629      	mov	r1, r5
   d589e:	4620      	mov	r0, r4
   d58a0:	4798      	blx	r3
   d58a2:	2800      	cmp	r0, #0
   d58a4:	d0ed      	beq.n	d5882 <_ZN13Adafruit_MQTT7connectEv+0xe>
    return -1;

  // Read connect response packet and verify it
  len = readFullPacket(buffer, MAXBUFFERSIZE, CONNECT_TIMEOUT_MS);
   d58a6:	f241 7370 	movw	r3, #6000	; 0x1770
   d58aa:	2296      	movs	r2, #150	; 0x96
   d58ac:	4629      	mov	r1, r5
   d58ae:	4620      	mov	r0, r4
   d58b0:	f7ff fee2 	bl	d5678 <_ZN13Adafruit_MQTT14readFullPacketEPhtt>
  if (len != 4)
   d58b4:	b2c0      	uxtb	r0, r0
   d58b6:	2804      	cmp	r0, #4
   d58b8:	d1e3      	bne.n	d5882 <_ZN13Adafruit_MQTT7connectEv+0xe>
    return -1;
  if ((buffer[0] != (MQTT_CTRL_CONNECTACK << 4)) || (buffer[1] != 2))
   d58ba:	8c63      	ldrh	r3, [r4, #34]	; 0x22
   d58bc:	f5b3 7f08 	cmp.w	r3, #544	; 0x220
   d58c0:	d1df      	bne.n	d5882 <_ZN13Adafruit_MQTT7connectEv+0xe>
    return -1;
  if (buffer[3] != 0)
   d58c2:	f894 0025 	ldrb.w	r0, [r4, #37]	; 0x25
   d58c6:	b110      	cbz	r0, d58ce <_ZN13Adafruit_MQTT7connectEv+0x5a>
    return buffer[3];
   d58c8:	b240      	sxtb	r0, r0
   d58ca:	e8bd 81f0 	ldmia.w	sp!, {r4, r5, r6, r7, r8, pc}
   d58ce:	f104 07b8 	add.w	r7, r4, #184	; 0xb8
   d58d2:	f104 08cc 	add.w	r8, r4, #204	; 0xcc

  // Setup subscriptions once connected.
  for (uint8_t i=0; i<MAXSUBSCRIPTIONS; i++) {
    // Ignore subscriptions that aren't defined.
    if (subscriptions[i] == 0) continue;
   d58d6:	f857 3f04 	ldr.w	r3, [r7, #4]!
   d58da:	b1fb      	cbz	r3, d591c <_ZN13Adafruit_MQTT7connectEv+0xa8>
   d58dc:	2603      	movs	r6, #3

    boolean success = false;
    for (uint8_t retry=0; (retry<3) && !success; retry++) { // retry until we get a suback    
      // Construct and send subscription packet.
      uint8_t len = subscribePacket(buffer, subscriptions[i]->topic, subscriptions[i]->qos);
   d58de:	683a      	ldr	r2, [r7, #0]
   d58e0:	4629      	mov	r1, r5
   d58e2:	7913      	ldrb	r3, [r2, #4]
   d58e4:	6812      	ldr	r2, [r2, #0]
   d58e6:	4620      	mov	r0, r4
   d58e8:	f7ff ffa8 	bl	d583c <_ZN13Adafruit_MQTT15subscribePacketEPhPKch>
      if (!sendPacket(buffer, len))
   d58ec:	6823      	ldr	r3, [r4, #0]
   d58ee:	b282      	uxth	r2, r0
   d58f0:	695b      	ldr	r3, [r3, #20]
   d58f2:	4629      	mov	r1, r5
   d58f4:	4620      	mov	r0, r4
   d58f6:	4798      	blx	r3
   d58f8:	2800      	cmp	r0, #0
   d58fa:	d0c2      	beq.n	d5882 <_ZN13Adafruit_MQTT7connectEv+0xe>
      // Check for SUBACK if using MQTT 3.1.1 or higher
      // TODO: The Server is permitted to start sending PUBLISH packets matching the
      // Subscription before the Server sends the SUBACK Packet. (will really need to use callbacks - ada)

      //Serial.println("\t**looking for suback");
      if (processPacketsUntil(buffer, MQTT_CTRL_SUBACK, SUBACK_TIMEOUT_MS)) {
   d58fc:	f44f 73fa 	mov.w	r3, #500	; 0x1f4
   d5900:	2209      	movs	r2, #9
   d5902:	4629      	mov	r1, r5
   d5904:	4620      	mov	r0, r4
   d5906:	f7ff ff01 	bl	d570c <_ZN13Adafruit_MQTT19processPacketsUntilEPhht>
   d590a:	b938      	cbnz	r0, d591c <_ZN13Adafruit_MQTT7connectEv+0xa8>
   d590c:	3e01      	subs	r6, #1
  for (uint8_t i=0; i<MAXSUBSCRIPTIONS; i++) {
    // Ignore subscriptions that aren't defined.
    if (subscriptions[i] == 0) continue;

    boolean success = false;
    for (uint8_t retry=0; (retry<3) && !success; retry++) { // retry until we get a suback    
   d590e:	f016 06ff 	ands.w	r6, r6, #255	; 0xff
   d5912:	d1e4      	bne.n	d58de <_ZN13Adafruit_MQTT7connectEv+0x6a>
	success = true;
	break;
      }
      //Serial.println("\t**failed, retrying!");
    }
    if (! success) return -2; // failed to sub for some reason
   d5914:	f06f 0001 	mvn.w	r0, #1
  }

  return 0;
}
   d5918:	e8bd 81f0 	ldmia.w	sp!, {r4, r5, r6, r7, r8, pc}
    return -1;
  if (buffer[3] != 0)
    return buffer[3];

  // Setup subscriptions once connected.
  for (uint8_t i=0; i<MAXSUBSCRIPTIONS; i++) {
   d591c:	4547      	cmp	r7, r8
   d591e:	d1da      	bne.n	d58d6 <_ZN13Adafruit_MQTT7connectEv+0x62>
      //Serial.println("\t**failed, retrying!");
    }
    if (! success) return -2; // failed to sub for some reason
  }

  return 0;
   d5920:	2000      	movs	r0, #0
   d5922:	e8bd 81f0 	ldmia.w	sp!, {r4, r5, r6, r7, r8, pc}

000d5926 <_ZN21Adafruit_MQTT_PublishC1EP13Adafruit_MQTTPKch>:
  return 2;
}

// Adafruit_MQTT_Publish Definition ////////////////////////////////////////////

Adafruit_MQTT_Publish::Adafruit_MQTT_Publish(Adafruit_MQTT *mqttserver,
   d5926:	b510      	push	{r4, lr}
                                             const char *feed, uint8_t q) {
  mqtt = mqttserver;
  topic = feed;
   d5928:	e880 0006 	stmia.w	r0, {r1, r2}
  qos = q;
   d592c:	7203      	strb	r3, [r0, #8]
}
   d592e:	bd10      	pop	{r4, pc}

000d5930 <_GLOBAL__sub_I__Z11printBufferPht>:
   d5930:	f001 bca0 	b.w	d7274 <HAL_Pin_Map>

000d5934 <_ZN19DFRobotDFPlayerMini17calculateCheckSumEPh>:
void DFRobotDFPlayerMini::uint16ToArray(uint16_t value, uint8_t *array){
  *array = (uint8_t)(value>>8);
  *(array+1) = (uint8_t)(value);
}

uint16_t DFRobotDFPlayerMini::calculateCheckSum(uint8_t *buffer){
   d5934:	1d8b      	adds	r3, r1, #6
  uint16_t sum = 0;
   d5936:	2000      	movs	r0, #0
  for (int i=Stack_Version; i<Stack_CheckSum; i++) {
    sum += buffer[i];
   d5938:	f811 2f01 	ldrb.w	r2, [r1, #1]!
   d593c:	4410      	add	r0, r2
  *(array+1) = (uint8_t)(value);
}

uint16_t DFRobotDFPlayerMini::calculateCheckSum(uint8_t *buffer){
  uint16_t sum = 0;
  for (int i=Stack_Version; i<Stack_CheckSum; i++) {
   d593e:	428b      	cmp	r3, r1
    sum += buffer[i];
   d5940:	b280      	uxth	r0, r0
  *(array+1) = (uint8_t)(value);
}

uint16_t DFRobotDFPlayerMini::calculateCheckSum(uint8_t *buffer){
  uint16_t sum = 0;
  for (int i=Stack_Version; i<Stack_CheckSum; i++) {
   d5942:	d1f9      	bne.n	d5938 <_ZN19DFRobotDFPlayerMini17calculateCheckSumEPh+0x4>
    sum += buffer[i];
  }
  return -sum;
   d5944:	4240      	negs	r0, r0
}
   d5946:	b280      	uxth	r0, r0
   d5948:	4770      	bx	lr

000d594a <_ZN19DFRobotDFPlayerMini10parseStackEv>:
      break;
  }
}

uint16_t DFRobotDFPlayerMini::arrayToUint16(uint8_t *array){
  uint16_t value = *array;
   d594a:	7c41      	ldrb	r1, [r0, #17]
  value <<=8;
  value += *(array+1);
   d594c:	7c83      	ldrb	r3, [r0, #18]
  _isAvailable = false;
  return _handleCommand;
}

void DFRobotDFPlayerMini::parseStack(){
  _handleCommand = *(_received + Stack_Command);
   d594e:	7bc2      	ldrb	r2, [r0, #15]
   d5950:	f880 2023 	strb.w	r2, [r0, #35]	; 0x23
}

uint16_t DFRobotDFPlayerMini::arrayToUint16(uint8_t *array){
  uint16_t value = *array;
  value <<=8;
  value += *(array+1);
   d5954:	eb03 2301 	add.w	r3, r3, r1, lsl #8
   d5958:	b29b      	uxth	r3, r3

void DFRobotDFPlayerMini::parseStack(){
  _handleCommand = *(_received + Stack_Command);
  _handleParameter =  arrayToUint16(_received + Stack_Parameter);

  switch (_handleCommand) {
   d595a:	3a3a      	subs	r2, #58	; 0x3a
  return _handleCommand;
}

void DFRobotDFPlayerMini::parseStack(){
  _handleCommand = *(_received + Stack_Command);
  _handleParameter =  arrayToUint16(_received + Stack_Parameter);
   d595c:	8483      	strh	r3, [r0, #36]	; 0x24

  switch (_handleCommand) {
   d595e:	2a15      	cmp	r2, #21
   d5960:	d833      	bhi.n	d59ca <_ZN19DFRobotDFPlayerMini10parseStackEv+0x80>
   d5962:	e8df f002 	tbb	[pc, r2]
   d5966:	1e17      	.short	0x1e17
   d5968:	102e0b2e 	.word	0x102e0b2e
   d596c:	2e2e2c25 	.word	0x2e2e2c25
   d5970:	2e2e2e2e 	.word	0x2e2e2e2e
   d5974:	2e322e2e 	.word	0x2e322e2e
   d5978:	2e2e2e2e 	.word	0x2e2e2e2e
  _isAvailable = false;
  return _handleParameter;
}

bool DFRobotDFPlayerMini::handleMessage(uint8_t type, uint16_t parameter){
  _receivedIndex = 0;
   d597c:	2300      	movs	r3, #0
   d597e:	f880 3020 	strb.w	r3, [r0, #32]
  _handleType = type;
   d5982:	2305      	movs	r3, #5
   d5984:	e018      	b.n	d59b8 <_ZN19DFRobotDFPlayerMini10parseStackEv+0x6e>
  switch (_handleCommand) {
    case 0x3D:
      handleMessage(DFPlayerPlayFinished, _handleParameter);
      break;
    case 0x3F:
      if (_handleParameter & 0x02) {
   d5986:	0799      	lsls	r1, r3, #30
   d5988:	d52a      	bpl.n	d59e0 <_ZN19DFRobotDFPlayerMini10parseStackEv+0x96>
  _isAvailable = false;
  return _handleParameter;
}

bool DFRobotDFPlayerMini::handleMessage(uint8_t type, uint16_t parameter){
  _receivedIndex = 0;
   d598a:	2300      	movs	r3, #0
   d598c:	f880 3020 	strb.w	r3, [r0, #32]
  _handleType = type;
   d5990:	2304      	movs	r3, #4
   d5992:	e011      	b.n	d59b8 <_ZN19DFRobotDFPlayerMini10parseStackEv+0x6e>
      if (_handleParameter & 0x02) {
        handleMessage(DFPlayerCardOnline, _handleParameter);
      }
      break;
    case 0x3A:
      if (_handleParameter & 0x02) {
   d5994:	079a      	lsls	r2, r3, #30
   d5996:	d523      	bpl.n	d59e0 <_ZN19DFRobotDFPlayerMini10parseStackEv+0x96>
  _isAvailable = false;
  return _handleParameter;
}

bool DFRobotDFPlayerMini::handleMessage(uint8_t type, uint16_t parameter){
  _receivedIndex = 0;
   d5998:	2300      	movs	r3, #0
   d599a:	f880 3020 	strb.w	r3, [r0, #32]
  _handleType = type;
   d599e:	2302      	movs	r3, #2
   d59a0:	e00a      	b.n	d59b8 <_ZN19DFRobotDFPlayerMini10parseStackEv+0x6e>
      if (_handleParameter & 0x02) {
        handleMessage(DFPlayerCardInserted, _handleParameter);
      }
      break;
    case 0x3B:
      if (_handleParameter & 0x02) {
   d59a2:	079b      	lsls	r3, r3, #30
   d59a4:	d51c      	bpl.n	d59e0 <_ZN19DFRobotDFPlayerMini10parseStackEv+0x96>
  _isAvailable = false;
  return _handleParameter;
}

bool DFRobotDFPlayerMini::handleMessage(uint8_t type, uint16_t parameter){
  _receivedIndex = 0;
   d59a6:	2300      	movs	r3, #0
   d59a8:	f880 3020 	strb.w	r3, [r0, #32]
  _handleType = type;
   d59ac:	2303      	movs	r3, #3
   d59ae:	e003      	b.n	d59b8 <_ZN19DFRobotDFPlayerMini10parseStackEv+0x6e>
  _isAvailable = false;
  return _handleParameter;
}

bool DFRobotDFPlayerMini::handleMessage(uint8_t type, uint16_t parameter){
  _receivedIndex = 0;
   d59b0:	2300      	movs	r3, #0
   d59b2:	f880 3020 	strb.w	r3, [r0, #32]
  _handleType = type;
   d59b6:	2306      	movs	r3, #6
   d59b8:	f880 3022 	strb.w	r3, [r0, #34]	; 0x22
   d59bc:	e001      	b.n	d59c2 <_ZN19DFRobotDFPlayerMini10parseStackEv+0x78>
      break;
    case 0x40:
      handleMessage(DFPlayerError, _handleParameter);
      break;
    case 0x41:
      _isSending = false;
   d59be:	2300      	movs	r3, #0
   d59c0:	e00c      	b.n	d59dc <_ZN19DFRobotDFPlayerMini10parseStackEv+0x92>
    case 0x4B:
    case 0x4C:
    case 0x4D:
    case 0x4E:
    case 0x4F:
      _isAvailable = true;
   d59c2:	2301      	movs	r3, #1
   d59c4:	f880 3026 	strb.w	r3, [r0, #38]	; 0x26
      break;
   d59c8:	4770      	bx	lr
  _isAvailable = false;
  return _handleParameter;
}

bool DFRobotDFPlayerMini::handleMessage(uint8_t type, uint16_t parameter){
  _receivedIndex = 0;
   d59ca:	2300      	movs	r3, #0
  _handleType = type;
   d59cc:	2201      	movs	r2, #1
  _isAvailable = false;
  return _handleParameter;
}

bool DFRobotDFPlayerMini::handleMessage(uint8_t type, uint16_t parameter){
  _receivedIndex = 0;
   d59ce:	f880 3020 	strb.w	r3, [r0, #32]
  _handleType = type;
   d59d2:	f880 2022 	strb.w	r2, [r0, #34]	; 0x22
  _handleParameter = parameter;
   d59d6:	8483      	strh	r3, [r0, #36]	; 0x24
  _isAvailable = true;
   d59d8:	f880 2026 	strb.w	r2, [r0, #38]	; 0x26
  return _isAvailable;
}

bool DFRobotDFPlayerMini::handleError(uint8_t type, uint16_t parameter){
  handleMessage(type, parameter);
  _isSending = false;
   d59dc:	f880 3027 	strb.w	r3, [r0, #39]	; 0x27
   d59e0:	4770      	bx	lr

000d59e2 <_ZN19DFRobotDFPlayerMini13validateStackEv>:
  value <<=8;
  value += *(array+1);
  return value;
}

bool DFRobotDFPlayerMini::validateStack(){
   d59e2:	b510      	push	{r4, lr}
   d59e4:	4604      	mov	r4, r0
  return calculateCheckSum(_received) == arrayToUint16(_received+Stack_CheckSum);
   d59e6:	f100 010c 	add.w	r1, r0, #12
   d59ea:	f7ff ffa3 	bl	d5934 <_ZN19DFRobotDFPlayerMini17calculateCheckSumEPh>
      break;
  }
}

uint16_t DFRobotDFPlayerMini::arrayToUint16(uint8_t *array){
  uint16_t value = *array;
   d59ee:	7ce2      	ldrb	r2, [r4, #19]
  value += *(array+1);
  return value;
}

bool DFRobotDFPlayerMini::validateStack(){
  return calculateCheckSum(_received) == arrayToUint16(_received+Stack_CheckSum);
   d59f0:	7d23      	ldrb	r3, [r4, #20]
   d59f2:	eb03 2302 	add.w	r3, r3, r2, lsl #8
   d59f6:	b29b      	uxth	r3, r3
}
   d59f8:	1a1b      	subs	r3, r3, r0
   d59fa:	4258      	negs	r0, r3
   d59fc:	4158      	adcs	r0, r3
   d59fe:	bd10      	pop	{r4, pc}

000d5a00 <_ZN19DFRobotDFPlayerMini9availableEv>:

bool DFRobotDFPlayerMini::available(){
   d5a00:	b570      	push	{r4, r5, r6, lr}
   d5a02:	4604      	mov	r4, r0
  while (_serial->available()) {
   d5a04:	6820      	ldr	r0, [r4, #0]
   d5a06:	6803      	ldr	r3, [r0, #0]
   d5a08:	691b      	ldr	r3, [r3, #16]
   d5a0a:	4798      	blx	r3
   d5a0c:	4605      	mov	r5, r0
   d5a0e:	2800      	cmp	r0, #0
   d5a10:	d05a      	beq.n	d5ac8 <_ZN19DFRobotDFPlayerMini9availableEv+0xc8>
   d5a12:	6820      	ldr	r0, [r4, #0]
    if (_receivedIndex == 0) {
   d5a14:	f894 5020 	ldrb.w	r5, [r4, #32]
      _received[Stack_Header] = _serial->read();
   d5a18:	6803      	ldr	r3, [r0, #0]
   d5a1a:	695b      	ldr	r3, [r3, #20]
  return calculateCheckSum(_received) == arrayToUint16(_received+Stack_CheckSum);
}

bool DFRobotDFPlayerMini::available(){
  while (_serial->available()) {
    if (_receivedIndex == 0) {
   d5a1c:	b94d      	cbnz	r5, d5a32 <_ZN19DFRobotDFPlayerMini9availableEv+0x32>
      _received[Stack_Header] = _serial->read();
   d5a1e:	4798      	blx	r3
   d5a20:	b2c0      	uxtb	r0, r0
#ifdef _DEBUG
      Serial.print(F("received:"));
      Serial.print(_received[_receivedIndex],HEX);
      Serial.print(F(" "));
#endif
      if (_received[Stack_Header] == 0x7E) {
   d5a22:	287e      	cmp	r0, #126	; 0x7e
}

bool DFRobotDFPlayerMini::available(){
  while (_serial->available()) {
    if (_receivedIndex == 0) {
      _received[Stack_Header] = _serial->read();
   d5a24:	7320      	strb	r0, [r4, #12]
#ifdef _DEBUG
      Serial.print(F("received:"));
      Serial.print(_received[_receivedIndex],HEX);
      Serial.print(F(" "));
#endif
      if (_received[Stack_Header] == 0x7E) {
   d5a26:	d1ed      	bne.n	d5a04 <_ZN19DFRobotDFPlayerMini9availableEv+0x4>
        _isAvailable = false;
   d5a28:	f884 5026 	strb.w	r5, [r4, #38]	; 0x26
        _receivedIndex ++;
   d5a2c:	f894 3020 	ldrb.w	r3, [r4, #32]
   d5a30:	e046      	b.n	d5ac0 <_ZN19DFRobotDFPlayerMini9availableEv+0xc0>
      }
    }
    else{
      _received[_receivedIndex] = _serial->read();
   d5a32:	4798      	blx	r3
   d5a34:	4425      	add	r5, r4
   d5a36:	7328      	strb	r0, [r5, #12]
#ifdef _DEBUG
      Serial.print(_received[_receivedIndex],HEX);
      Serial.print(F(" "));
#endif
      switch (_receivedIndex) {
   d5a38:	f894 3020 	ldrb.w	r3, [r4, #32]
   d5a3c:	2b02      	cmp	r3, #2
   d5a3e:	d011      	beq.n	d5a64 <_ZN19DFRobotDFPlayerMini9availableEv+0x64>
   d5a40:	2b09      	cmp	r3, #9
   d5a42:	d013      	beq.n	d5a6c <_ZN19DFRobotDFPlayerMini9availableEv+0x6c>
   d5a44:	2b01      	cmp	r3, #1
   d5a46:	d13b      	bne.n	d5ac0 <_ZN19DFRobotDFPlayerMini9availableEv+0xc0>
        case Stack_Version:
          if (_received[_receivedIndex] != 0xFF) {
   d5a48:	7b62      	ldrb	r2, [r4, #13]
   d5a4a:	2aff      	cmp	r2, #255	; 0xff
   d5a4c:	d038      	beq.n	d5ac0 <_ZN19DFRobotDFPlayerMini9availableEv+0xc0>
  _isAvailable = false;
  return _handleParameter;
}

bool DFRobotDFPlayerMini::handleMessage(uint8_t type, uint16_t parameter){
  _receivedIndex = 0;
   d5a4e:	2200      	movs	r2, #0
   d5a50:	f884 2020 	strb.w	r2, [r4, #32]
  _handleType = type;
   d5a54:	f884 3022 	strb.w	r3, [r4, #34]	; 0x22
  _handleParameter = parameter;
   d5a58:	84a2      	strh	r2, [r4, #36]	; 0x24
  _isAvailable = true;
   d5a5a:	f884 3026 	strb.w	r3, [r4, #38]	; 0x26
  return _isAvailable;
}

bool DFRobotDFPlayerMini::handleError(uint8_t type, uint16_t parameter){
  handleMessage(type, parameter);
  _isSending = false;
   d5a5e:	f884 2027 	strb.w	r2, [r4, #39]	; 0x27
      Serial.print(F(" "));
#endif
      switch (_receivedIndex) {
        case Stack_Version:
          if (_received[_receivedIndex] != 0xFF) {
            return handleError(WrongStack);
   d5a62:	e048      	b.n	d5af6 <_ZN19DFRobotDFPlayerMini9availableEv+0xf6>
          }
          break;
        case Stack_Length:
          if (_received[_receivedIndex] != 0x06) {
   d5a64:	7ba2      	ldrb	r2, [r4, #14]
   d5a66:	2a06      	cmp	r2, #6
   d5a68:	d02a      	beq.n	d5ac0 <_ZN19DFRobotDFPlayerMini9availableEv+0xc0>
   d5a6a:	e002      	b.n	d5a72 <_ZN19DFRobotDFPlayerMini9availableEv+0x72>
          break;
        case Stack_End:
#ifdef _DEBUG
          Serial.println();
#endif
          if (_received[_receivedIndex] != 0xEF) {
   d5a6c:	7d63      	ldrb	r3, [r4, #21]
   d5a6e:	2bef      	cmp	r3, #239	; 0xef
   d5a70:	d009      	beq.n	d5a86 <_ZN19DFRobotDFPlayerMini9availableEv+0x86>
  _isAvailable = false;
  return _handleParameter;
}

bool DFRobotDFPlayerMini::handleMessage(uint8_t type, uint16_t parameter){
  _receivedIndex = 0;
   d5a72:	2300      	movs	r3, #0
  _handleType = type;
   d5a74:	2201      	movs	r2, #1
  _isAvailable = false;
  return _handleParameter;
}

bool DFRobotDFPlayerMini::handleMessage(uint8_t type, uint16_t parameter){
  _receivedIndex = 0;
   d5a76:	f884 3020 	strb.w	r3, [r4, #32]
  _handleType = type;
   d5a7a:	f884 2022 	strb.w	r2, [r4, #34]	; 0x22
  _handleParameter = parameter;
   d5a7e:	84a3      	strh	r3, [r4, #36]	; 0x24
  _isAvailable = true;
   d5a80:	f884 2026 	strb.w	r2, [r4, #38]	; 0x26
   d5a84:	e00e      	b.n	d5aa4 <_ZN19DFRobotDFPlayerMini9availableEv+0xa4>
#endif
          if (_received[_receivedIndex] != 0xEF) {
            return handleError(WrongStack);
          }
          else{
            if (validateStack()) {
   d5a86:	4620      	mov	r0, r4
   d5a88:	f7ff ffab 	bl	d59e2 <_ZN19DFRobotDFPlayerMini13validateStackEv>
   d5a8c:	b168      	cbz	r0, d5aaa <_ZN19DFRobotDFPlayerMini9availableEv+0xaa>
              _receivedIndex = 0;
   d5a8e:	2300      	movs	r3, #0
   d5a90:	f884 3020 	strb.w	r3, [r4, #32]
              parseStack();
   d5a94:	4620      	mov	r0, r4
   d5a96:	f7ff ff58 	bl	d594a <_ZN19DFRobotDFPlayerMini10parseStackEv>
              if (_isAvailable && !_sending[Stack_ACK]) {
   d5a9a:	f894 6026 	ldrb.w	r6, [r4, #38]	; 0x26
   d5a9e:	b356      	cbz	r6, d5af6 <_ZN19DFRobotDFPlayerMini9availableEv+0xf6>
   d5aa0:	7ea3      	ldrb	r3, [r4, #26]
   d5aa2:	bb43      	cbnz	r3, d5af6 <_ZN19DFRobotDFPlayerMini9availableEv+0xf6>
                _isSending = false;
   d5aa4:	f884 3027 	strb.w	r3, [r4, #39]	; 0x27
   d5aa8:	e025      	b.n	d5af6 <_ZN19DFRobotDFPlayerMini9availableEv+0xf6>
  return _handleParameter;
}

bool DFRobotDFPlayerMini::handleMessage(uint8_t type, uint16_t parameter){
  _receivedIndex = 0;
  _handleType = type;
   d5aaa:	2301      	movs	r3, #1
  _isAvailable = false;
  return _handleParameter;
}

bool DFRobotDFPlayerMini::handleMessage(uint8_t type, uint16_t parameter){
  _receivedIndex = 0;
   d5aac:	f884 0020 	strb.w	r0, [r4, #32]
  _handleType = type;
   d5ab0:	f884 3022 	strb.w	r3, [r4, #34]	; 0x22
  _handleParameter = parameter;
   d5ab4:	84a0      	strh	r0, [r4, #36]	; 0x24
  _isAvailable = true;
   d5ab6:	f884 3026 	strb.w	r3, [r4, #38]	; 0x26
  return _isAvailable;
}

bool DFRobotDFPlayerMini::handleError(uint8_t type, uint16_t parameter){
  handleMessage(type, parameter);
  _isSending = false;
   d5aba:	f884 0027 	strb.w	r0, [r4, #39]	; 0x27
                _isSending = false;
              }
              return _isAvailable;
            }
            else{
              return handleError(WrongStack);
   d5abe:	e01a      	b.n	d5af6 <_ZN19DFRobotDFPlayerMini9availableEv+0xf6>
          }
          break;
        default:
          break;
      }
      _receivedIndex++;
   d5ac0:	3301      	adds	r3, #1
   d5ac2:	f884 3020 	strb.w	r3, [r4, #32]
   d5ac6:	e79d      	b.n	d5a04 <_ZN19DFRobotDFPlayerMini9availableEv+0x4>
    }
  }
  
  if (_isSending && (millis()-_timeOutTimer>=_timeOutDuration)) {
   d5ac8:	f894 3027 	ldrb.w	r3, [r4, #39]	; 0x27
   d5acc:	b18b      	cbz	r3, d5af2 <_ZN19DFRobotDFPlayerMini9availableEv+0xf2>

#ifdef __cplusplus
extern "C" {
#endif

inline system_tick_t millis(void) { return HAL_Timer_Get_Milli_Seconds(); }
   d5ace:	f001 fc89 	bl	d73e4 <HAL_Timer_Get_Milli_Seconds>
   d5ad2:	6863      	ldr	r3, [r4, #4]
   d5ad4:	1ac0      	subs	r0, r0, r3
   d5ad6:	68a3      	ldr	r3, [r4, #8]
   d5ad8:	4298      	cmp	r0, r3
   d5ada:	d30a      	bcc.n	d5af2 <_ZN19DFRobotDFPlayerMini9availableEv+0xf2>

bool DFRobotDFPlayerMini::handleMessage(uint8_t type, uint16_t parameter){
  _receivedIndex = 0;
  _handleType = type;
  _handleParameter = parameter;
  _isAvailable = true;
   d5adc:	2301      	movs	r3, #1
  _isAvailable = false;
  return _handleParameter;
}

bool DFRobotDFPlayerMini::handleMessage(uint8_t type, uint16_t parameter){
  _receivedIndex = 0;
   d5ade:	f884 5020 	strb.w	r5, [r4, #32]
  _handleType = type;
   d5ae2:	f884 5022 	strb.w	r5, [r4, #34]	; 0x22
  _handleParameter = parameter;
   d5ae6:	84a5      	strh	r5, [r4, #36]	; 0x24
  _isAvailable = true;
   d5ae8:	f884 3026 	strb.w	r3, [r4, #38]	; 0x26
  return _isAvailable;
}

bool DFRobotDFPlayerMini::handleError(uint8_t type, uint16_t parameter){
  handleMessage(type, parameter);
  _isSending = false;
   d5aec:	f884 5027 	strb.w	r5, [r4, #39]	; 0x27
      _receivedIndex++;
    }
  }
  
  if (_isSending && (millis()-_timeOutTimer>=_timeOutDuration)) {
    return handleError(TimeOut);
   d5af0:	e001      	b.n	d5af6 <_ZN19DFRobotDFPlayerMini9availableEv+0xf6>
  }
  
  return _isAvailable;
   d5af2:	f894 6026 	ldrb.w	r6, [r4, #38]	; 0x26
}
   d5af6:	4630      	mov	r0, r6
   d5af8:	bd70      	pop	{r4, r5, r6, pc}

000d5afa <_ZN19DFRobotDFPlayerMini9sendStackEv>:
    sum += buffer[i];
  }
  return -sum;
}

void DFRobotDFPlayerMini::sendStack(){
   d5afa:	b510      	push	{r4, lr}
  if (_sending[Stack_ACK]) {
   d5afc:	7e83      	ldrb	r3, [r0, #26]
    sum += buffer[i];
  }
  return -sum;
}

void DFRobotDFPlayerMini::sendStack(){
   d5afe:	4604      	mov	r4, r0
  if (_sending[Stack_ACK]) {
   d5b00:	b133      	cbz	r3, d5b10 <_ZN19DFRobotDFPlayerMini9sendStackEv+0x16>
    while (_isSending) {
   d5b02:	f894 3027 	ldrb.w	r3, [r4, #39]	; 0x27
   d5b06:	b133      	cbz	r3, d5b16 <_ZN19DFRobotDFPlayerMini9sendStackEv+0x1c>
      available();
   d5b08:	4620      	mov	r0, r4
   d5b0a:	f7ff ff79 	bl	d5a00 <_ZN19DFRobotDFPlayerMini9availableEv>
  return -sum;
}

void DFRobotDFPlayerMini::sendStack(){
  if (_sending[Stack_ACK]) {
    while (_isSending) {
   d5b0e:	e7f8      	b.n	d5b02 <_ZN19DFRobotDFPlayerMini9sendStackEv+0x8>
      available();
    }
  }
  else{
    delay(10);
   d5b10:	200a      	movs	r0, #10
   d5b12:	f002 f9e5 	bl	d7ee0 <delay>
    Serial.print(_sending[i],HEX);
    Serial.print(F(" "));
  }
  Serial.println();
#endif
  _serial->write(_sending, DFPLAYER_SEND_LENGTH);
   d5b16:	4621      	mov	r1, r4
   d5b18:	220a      	movs	r2, #10
   d5b1a:	f851 0b16 	ldr.w	r0, [r1], #22
   d5b1e:	6803      	ldr	r3, [r0, #0]
   d5b20:	68db      	ldr	r3, [r3, #12]
   d5b22:	4798      	blx	r3
   d5b24:	f001 fc5e 	bl	d73e4 <HAL_Timer_Get_Milli_Seconds>
  _timeOutTimer = millis();
  _isSending = _sending[Stack_ACK];
   d5b28:	7ea3      	ldrb	r3, [r4, #26]
    Serial.print(F(" "));
  }
  Serial.println();
#endif
  _serial->write(_sending, DFPLAYER_SEND_LENGTH);
  _timeOutTimer = millis();
   d5b2a:	6060      	str	r0, [r4, #4]
  _isSending = _sending[Stack_ACK];
   d5b2c:	3300      	adds	r3, #0
   d5b2e:	bf18      	it	ne
   d5b30:	2301      	movne	r3, #1
   d5b32:	f884 3027 	strb.w	r3, [r4, #39]	; 0x27
   d5b36:	bd10      	pop	{r4, pc}

000d5b38 <_ZN19DFRobotDFPlayerMini9sendStackEht>:
void DFRobotDFPlayerMini::setTimeOut(unsigned long timeOutDuration){
  _timeOutDuration = timeOutDuration;
}

void DFRobotDFPlayerMini::uint16ToArray(uint16_t value, uint8_t *array){
  *array = (uint8_t)(value>>8);
   d5b38:	1213      	asrs	r3, r2, #8

void DFRobotDFPlayerMini::sendStack(uint8_t command){
  sendStack(command, 0);
}

void DFRobotDFPlayerMini::sendStack(uint8_t command, uint16_t argument){
   d5b3a:	b510      	push	{r4, lr}
  _sending[Stack_Command] = command;
   d5b3c:	7641      	strb	r1, [r0, #25]
void DFRobotDFPlayerMini::setTimeOut(unsigned long timeOutDuration){
  _timeOutDuration = timeOutDuration;
}

void DFRobotDFPlayerMini::uint16ToArray(uint16_t value, uint8_t *array){
  *array = (uint8_t)(value>>8);
   d5b3e:	76c3      	strb	r3, [r0, #27]
  *(array+1) = (uint8_t)(value);
   d5b40:	7702      	strb	r2, [r0, #28]
}

void DFRobotDFPlayerMini::sendStack(uint8_t command, uint16_t argument){
  _sending[Stack_Command] = command;
  uint16ToArray(argument, _sending+Stack_Parameter);
  uint16ToArray(calculateCheckSum(_sending), _sending+Stack_CheckSum);
   d5b42:	f100 0116 	add.w	r1, r0, #22

void DFRobotDFPlayerMini::sendStack(uint8_t command){
  sendStack(command, 0);
}

void DFRobotDFPlayerMini::sendStack(uint8_t command, uint16_t argument){
   d5b46:	4604      	mov	r4, r0
  _sending[Stack_Command] = command;
  uint16ToArray(argument, _sending+Stack_Parameter);
  uint16ToArray(calculateCheckSum(_sending), _sending+Stack_CheckSum);
   d5b48:	f7ff fef4 	bl	d5934 <_ZN19DFRobotDFPlayerMini17calculateCheckSumEPh>
void DFRobotDFPlayerMini::setTimeOut(unsigned long timeOutDuration){
  _timeOutDuration = timeOutDuration;
}

void DFRobotDFPlayerMini::uint16ToArray(uint16_t value, uint8_t *array){
  *array = (uint8_t)(value>>8);
   d5b4c:	1203      	asrs	r3, r0, #8
  *(array+1) = (uint8_t)(value);
   d5b4e:	77a0      	strb	r0, [r4, #30]
void DFRobotDFPlayerMini::setTimeOut(unsigned long timeOutDuration){
  _timeOutDuration = timeOutDuration;
}

void DFRobotDFPlayerMini::uint16ToArray(uint16_t value, uint8_t *array){
  *array = (uint8_t)(value>>8);
   d5b50:	7763      	strb	r3, [r4, #29]

void DFRobotDFPlayerMini::sendStack(uint8_t command, uint16_t argument){
  _sending[Stack_Command] = command;
  uint16ToArray(argument, _sending+Stack_Parameter);
  uint16ToArray(calculateCheckSum(_sending), _sending+Stack_CheckSum);
  sendStack();
   d5b52:	4620      	mov	r0, r4
}
   d5b54:	e8bd 4010 	ldmia.w	sp!, {r4, lr}

void DFRobotDFPlayerMini::sendStack(uint8_t command, uint16_t argument){
  _sending[Stack_Command] = command;
  uint16ToArray(argument, _sending+Stack_Parameter);
  uint16ToArray(calculateCheckSum(_sending), _sending+Stack_CheckSum);
  sendStack();
   d5b58:	f7ff bfcf 	b.w	d5afa <_ZN19DFRobotDFPlayerMini9sendStackEv>

000d5b5c <_ZN19DFRobotDFPlayerMini9sendStackEh>:
  _timeOutTimer = millis();
  _isSending = _sending[Stack_ACK];
}

void DFRobotDFPlayerMini::sendStack(uint8_t command){
  sendStack(command, 0);
   d5b5c:	2200      	movs	r2, #0
   d5b5e:	f7ff bfeb 	b.w	d5b38 <_ZN19DFRobotDFPlayerMini9sendStackEht>

000d5b62 <_ZN19DFRobotDFPlayerMini13waitAvailableEv>:
void DFRobotDFPlayerMini::disableACK(){
  _sending[Stack_ACK] = 0x00;
}

bool DFRobotDFPlayerMini::waitAvailable(){
  _isSending = true;
   d5b62:	2301      	movs	r3, #1

void DFRobotDFPlayerMini::disableACK(){
  _sending[Stack_ACK] = 0x00;
}

bool DFRobotDFPlayerMini::waitAvailable(){
   d5b64:	b510      	push	{r4, lr}
   d5b66:	4604      	mov	r4, r0
  _isSending = true;
   d5b68:	f880 3027 	strb.w	r3, [r0, #39]	; 0x27
  while (!available());
   d5b6c:	4620      	mov	r0, r4
   d5b6e:	f7ff ff47 	bl	d5a00 <_ZN19DFRobotDFPlayerMini9availableEv>
   d5b72:	2800      	cmp	r0, #0
   d5b74:	d0fa      	beq.n	d5b6c <_ZN19DFRobotDFPlayerMini13waitAvailableEv+0xa>
  return _handleType != TimeOut;
   d5b76:	f894 0022 	ldrb.w	r0, [r4, #34]	; 0x22
}
   d5b7a:	3000      	adds	r0, #0
   d5b7c:	bf18      	it	ne
   d5b7e:	2001      	movne	r0, #1
   d5b80:	bd10      	pop	{r4, pc}

000d5b82 <_ZN19DFRobotDFPlayerMini5resetEv>:
void DFRobotDFPlayerMini::sleep(){
  sendStack(0x0A);
}

void DFRobotDFPlayerMini::reset(){
  sendStack(0x0C);
   d5b82:	210c      	movs	r1, #12
   d5b84:	f7ff bfea 	b.w	d5b5c <_ZN19DFRobotDFPlayerMini9sendStackEh>

000d5b88 <_ZN19DFRobotDFPlayerMini5beginER6Streamb>:
  _isSending = true;
  while (!available());
  return _handleType != TimeOut;
}

bool DFRobotDFPlayerMini::begin(Stream &stream, bool isACK){
   d5b88:	b538      	push	{r3, r4, r5, lr}
   d5b8a:	4604      	mov	r4, r0
  if (isACK) {
   d5b8c:	4615      	mov	r5, r2
   d5b8e:	b112      	cbz	r2, d5b96 <_ZN19DFRobotDFPlayerMini5beginER6Streamb+0xe>
  buffer <<= 8;
  sendStack(command, buffer | argumentLow);
}

void DFRobotDFPlayerMini::enableACK(){
  _sending[Stack_ACK] = 0x01;
   d5b90:	2301      	movs	r3, #1
   d5b92:	7683      	strb	r3, [r0, #26]
   d5b94:	e000      	b.n	d5b98 <_ZN19DFRobotDFPlayerMini5beginER6Streamb+0x10>
}

void DFRobotDFPlayerMini::disableACK(){
  _sending[Stack_ACK] = 0x00;
   d5b96:	76a2      	strb	r2, [r4, #26]
  else{
    disableACK();
  }
  
  _serial = &stream;
  _timeOutDuration += 3000;
   d5b98:	68a3      	ldr	r3, [r4, #8]
  }
  else{
    disableACK();
  }
  
  _serial = &stream;
   d5b9a:	6021      	str	r1, [r4, #0]
  _timeOutDuration += 3000;
   d5b9c:	f603 33b8 	addw	r3, r3, #3000	; 0xbb8
   d5ba0:	60a3      	str	r3, [r4, #8]
  reset();
   d5ba2:	4620      	mov	r0, r4
   d5ba4:	f7ff ffed 	bl	d5b82 <_ZN19DFRobotDFPlayerMini5resetEv>
  waitAvailable();
   d5ba8:	4620      	mov	r0, r4
   d5baa:	f7ff ffda 	bl	d5b62 <_ZN19DFRobotDFPlayerMini13waitAvailableEv>
  _timeOutDuration -= 3000;
   d5bae:	68a3      	ldr	r3, [r4, #8]
   d5bb0:	f6a3 33b8 	subw	r3, r3, #3000	; 0xbb8
  delay(200);
   d5bb4:	20c8      	movs	r0, #200	; 0xc8
  
  _serial = &stream;
  _timeOutDuration += 3000;
  reset();
  waitAvailable();
  _timeOutDuration -= 3000;
   d5bb6:	60a3      	str	r3, [r4, #8]
  delay(200);
   d5bb8:	f002 f992 	bl	d7ee0 <delay>
  return (readType() == DFPlayerCardOnline) || !isACK;
}

uint8_t DFRobotDFPlayerMini::readType(){
  _isAvailable = false;
   d5bbc:	2300      	movs	r3, #0
   d5bbe:	f884 3026 	strb.w	r3, [r4, #38]	; 0x26
  _timeOutDuration += 3000;
  reset();
  waitAvailable();
  _timeOutDuration -= 3000;
  delay(200);
  return (readType() == DFPlayerCardOnline) || !isACK;
   d5bc2:	f894 3022 	ldrb.w	r3, [r4, #34]	; 0x22
   d5bc6:	2b04      	cmp	r3, #4
   d5bc8:	bf14      	ite	ne
   d5bca:	f085 0001 	eorne.w	r0, r5, #1
   d5bce:	2001      	moveq	r0, #1
}
   d5bd0:	bd38      	pop	{r3, r4, r5, pc}

000d5bd2 <_GLOBAL__sub_I__ZN19DFRobotDFPlayerMini10setTimeOutEm>:
   d5bd2:	f001 bb4f 	b.w	d7274 <HAL_Pin_Map>

000d5bd6 <_GLOBAL__sub_I_MinimumSerial.cpp>:
   d5bd6:	f001 bb4d 	b.w	d7274 <HAL_Pin_Map>

000d5bda <_GLOBAL__sub_I__ZN7istream3getEv>:
   d5bda:	f001 bb4b 	b.w	d7274 <HAL_Pin_Map>

000d5bde <_ZN9FatVolume9cacheSyncEv>:
  FatCache m_fatCache;
  cache_t* cacheFetchFat(uint32_t blockNumber, uint8_t options) {
    return m_fatCache.read(blockNumber,
                           options | FatCache::CACHE_STATUS_MIRROR_FAT);
  }
  bool cacheSync() {
   d5bde:	b510      	push	{r4, lr}
   d5be0:	4604      	mov	r4, r0
    return m_cache.sync() && m_fatCache.sync() && syncBlocks();
   d5be2:	3024      	adds	r0, #36	; 0x24
   d5be4:	f000 fe90 	bl	d6908 <_ZN8FatCache4syncEv>
   d5be8:	b128      	cbz	r0, d5bf6 <_ZN9FatVolume9cacheSyncEv+0x18>
   d5bea:	f504 700c 	add.w	r0, r4, #560	; 0x230
  }
   d5bee:	e8bd 4010 	ldmia.w	sp!, {r4, lr}
  cache_t* cacheFetchFat(uint32_t blockNumber, uint8_t options) {
    return m_fatCache.read(blockNumber,
                           options | FatCache::CACHE_STATUS_MIRROR_FAT);
  }
  bool cacheSync() {
    return m_cache.sync() && m_fatCache.sync() && syncBlocks();
   d5bf2:	f000 be89 	b.w	d6908 <_ZN8FatCache4syncEv>
  }
   d5bf6:	bd10      	pop	{r4, pc}

000d5bf8 <_ZN7FatFile11lfnChecksumEPh>:
 * DEALINGS IN THE SOFTWARE.
 */
#include "FatFile.h"
//------------------------------------------------------------------------------
//
uint8_t FatFile::lfnChecksum(uint8_t* name) {
   d5bf8:	1e41      	subs	r1, r0, #1
   d5bfa:	f100 020a 	add.w	r2, r0, #10
  uint8_t sum = 0;
   d5bfe:	2000      	movs	r0, #0
  for (uint8_t i = 0; i < 11; i++) {
    sum = (((sum & 1) << 7) | ((sum & 0xfe) >> 1)) + name[i];
   d5c00:	0843      	lsrs	r3, r0, #1
   d5c02:	ea43 10c0 	orr.w	r0, r3, r0, lsl #7
   d5c06:	f811 3f01 	ldrb.w	r3, [r1, #1]!
   d5c0a:	fa53 f080 	uxtab	r0, r3, r0
#include "FatFile.h"
//------------------------------------------------------------------------------
//
uint8_t FatFile::lfnChecksum(uint8_t* name) {
  uint8_t sum = 0;
  for (uint8_t i = 0; i < 11; i++) {
   d5c0e:	428a      	cmp	r2, r1
    sum = (((sum & 1) << 7) | ((sum & 0xfe) >> 1)) + name[i];
   d5c10:	b2c0      	uxtb	r0, r0
#include "FatFile.h"
//------------------------------------------------------------------------------
//
uint8_t FatFile::lfnChecksum(uint8_t* name) {
  uint8_t sum = 0;
  for (uint8_t i = 0; i < 11; i++) {
   d5c12:	d1f5      	bne.n	d5c00 <_ZN7FatFile11lfnChecksumEPh+0x8>
    sum = (((sum & 1) << 7) | ((sum & 0xfe) >> 1)) + name[i];
  }
  return sum;
}
   d5c14:	4770      	bx	lr
	...

000d5c18 <_ZN7FatFile13parsePathNameEPKcP7fname_tPS1_>:
  m_firstCluster = file->m_dirCluster;
  return true;
}
//------------------------------------------------------------------------------
bool FatFile::parsePathName(const char* path,
                            fname_t* fname, const char** ptr) {
   d5c18:	e92d 47f0 	stmdb	sp!, {r4, r5, r6, r7, r8, r9, sl, lr}
  int len = 0;
  int si;
  int dot;

  // Skip leading spaces.
  while (*path == ' ') {
   d5c1c:	7803      	ldrb	r3, [r0, #0]
   d5c1e:	2b20      	cmp	r3, #32
   d5c20:	f100 0401 	add.w	r4, r0, #1
   d5c24:	d101      	bne.n	d5c2a <_ZN7FatFile13parsePathNameEPKcP7fname_tPS1_+0x12>
   d5c26:	4620      	mov	r0, r4
   d5c28:	e7f8      	b.n	d5c1c <_ZN7FatFile13parsePathNameEPKcP7fname_tPS1_+0x4>
  name[n - 1] = 0;
  return true;
}
//------------------------------------------------------------------------------
inline bool lfnLegalChar(char c) {
  if (c == '/' || c == '\\' || c == '"' || c == '*' ||
   d5c2a:	4f70      	ldr	r7, [pc, #448]	; (d5dec <_ZN7FatFile13parsePathNameEPKcP7fname_tPS1_+0x1d4>)

  // Skip leading spaces.
  while (*path == ' ') {
    path++;
  }
  fname->lfn = path;
   d5c2c:	6088      	str	r0, [r1, #8]
   d5c2e:	4605      	mov	r5, r0
   d5c30:	1a2c      	subs	r4, r5, r0

  for (len = 0; ; len++) {
    c = path[len];
   d5c32:	462e      	mov	r6, r5
   d5c34:	f815 3b01 	ldrb.w	r3, [r5], #1
    if (c == 0 || isDirSeparator(c)) {
   d5c38:	b30b      	cbz	r3, d5c7e <_ZN7FatFile13parsePathNameEPKcP7fname_tPS1_+0x66>
   d5c3a:	2b2f      	cmp	r3, #47	; 0x2f
   d5c3c:	d101      	bne.n	d5c42 <_ZN7FatFile13parsePathNameEPKcP7fname_tPS1_+0x2a>
   d5c3e:	1903      	adds	r3, r0, r4
   d5c40:	e017      	b.n	d5c72 <_ZN7FatFile13parsePathNameEPKcP7fname_tPS1_+0x5a>
  name[n - 1] = 0;
  return true;
}
//------------------------------------------------------------------------------
inline bool lfnLegalChar(char c) {
  if (c == '/' || c == '\\' || c == '"' || c == '*' ||
   d5c42:	2b5c      	cmp	r3, #92	; 0x5c
   d5c44:	d102      	bne.n	d5c4c <_ZN7FatFile13parsePathNameEPKcP7fname_tPS1_+0x34>
    c = path[len];
    if (c == 0 || isDirSeparator(c)) {
      break;
    }
    if (!lfnLegalChar(c)) {
      return false;
   d5c46:	2000      	movs	r0, #0
   d5c48:	e8bd 87f0 	ldmia.w	sp!, {r4, r5, r6, r7, r8, r9, sl, pc}
  name[n - 1] = 0;
  return true;
}
//------------------------------------------------------------------------------
inline bool lfnLegalChar(char c) {
  if (c == '/' || c == '\\' || c == '"' || c == '*' ||
   d5c4c:	f1a3 0422 	sub.w	r4, r3, #34	; 0x22
   d5c50:	b2e4      	uxtb	r4, r4
   d5c52:	2c1d      	cmp	r4, #29
   d5c54:	d803      	bhi.n	d5c5e <_ZN7FatFile13parsePathNameEPKcP7fname_tPS1_+0x46>
   d5c56:	fa27 f404 	lsr.w	r4, r7, r4
   d5c5a:	07e4      	lsls	r4, r4, #31
   d5c5c:	d4f3      	bmi.n	d5c46 <_ZN7FatFile13parsePathNameEPKcP7fname_tPS1_+0x2e>
      c == ':' || c == '<' || c == '>' || c == '?' || c == '|') {
   d5c5e:	f003 04bf 	and.w	r4, r3, #191	; 0xbf
   d5c62:	2c3c      	cmp	r4, #60	; 0x3c
   d5c64:	d0ef      	beq.n	d5c46 <_ZN7FatFile13parsePathNameEPKcP7fname_tPS1_+0x2e>
  for (len = 0; ; len++) {
    c = path[len];
    if (c == 0 || isDirSeparator(c)) {
      break;
    }
    if (!lfnLegalChar(c)) {
   d5c66:	3b20      	subs	r3, #32
   d5c68:	2b5e      	cmp	r3, #94	; 0x5e
   d5c6a:	d9e1      	bls.n	d5c30 <_ZN7FatFile13parsePathNameEPKcP7fname_tPS1_+0x18>
   d5c6c:	e7eb      	b.n	d5c46 <_ZN7FatFile13parsePathNameEPKcP7fname_tPS1_+0x2e>
      return false;
    }
  }
  // Advance to next path component.
  for (end = len; path[end] ==  ' ' || isDirSeparator(path[end]); end++) {}
   d5c6e:	2d2f      	cmp	r5, #47	; 0x2f
   d5c70:	d105      	bne.n	d5c7e <_ZN7FatFile13parsePathNameEPKcP7fname_tPS1_+0x66>
   d5c72:	461e      	mov	r6, r3
   d5c74:	f813 5b01 	ldrb.w	r5, [r3], #1
   d5c78:	2d20      	cmp	r5, #32
   d5c7a:	d1f8      	bne.n	d5c6e <_ZN7FatFile13parsePathNameEPKcP7fname_tPS1_+0x56>
   d5c7c:	e7f9      	b.n	d5c72 <_ZN7FatFile13parsePathNameEPKcP7fname_tPS1_+0x5a>
  *ptr = &path[end];
   d5c7e:	6016      	str	r6, [r2, #0]
   d5c80:	1903      	adds	r3, r0, r4

  // Back over spaces and dots.
  while (len) {
   d5c82:	4298      	cmp	r0, r3
   d5c84:	ebc0 0803 	rsb	r8, r0, r3
   d5c88:	d009      	beq.n	d5c9e <_ZN7FatFile13parsePathNameEPKcP7fname_tPS1_+0x86>
    c = path[len - 1];
   d5c8a:	f813 2d01 	ldrb.w	r2, [r3, #-1]!
    if (c != '.' && c != ' ') {
   d5c8e:	2a2e      	cmp	r2, #46	; 0x2e
   d5c90:	d0f7      	beq.n	d5c82 <_ZN7FatFile13parsePathNameEPKcP7fname_tPS1_+0x6a>
   d5c92:	2a20      	cmp	r2, #32
   d5c94:	d0f5      	beq.n	d5c82 <_ZN7FatFile13parsePathNameEPKcP7fname_tPS1_+0x6a>
      break;
    }
    len--;
  }
  // Max length of LFN is 255.
  if (len > 255) {
   d5c96:	f1b8 0fff 	cmp.w	r8, #255	; 0xff
   d5c9a:	dcd4      	bgt.n	d5c46 <_ZN7FatFile13parsePathNameEPKcP7fname_tPS1_+0x2e>
   d5c9c:	e001      	b.n	d5ca2 <_ZN7FatFile13parsePathNameEPKcP7fname_tPS1_+0x8a>
   d5c9e:	f04f 0800 	mov.w	r8, #0
    return false;
  }
  fname->len = len;
   d5ca2:	f8c1 8004 	str.w	r8, [r1, #4]
   d5ca6:	f101 030c 	add.w	r3, r1, #12
   d5caa:	f101 0217 	add.w	r2, r1, #23
  // Blank file short name.
  for (uint8_t k = 0; k < 11; k++) {
    fname->sfn[k] = ' ';
   d5cae:	2420      	movs	r4, #32
   d5cb0:	f803 4f01 	strb.w	r4, [r3, #1]!
  if (len > 255) {
    return false;
  }
  fname->len = len;
  // Blank file short name.
  for (uint8_t k = 0; k < 11; k++) {
   d5cb4:	4293      	cmp	r3, r2
   d5cb6:	d1fb      	bne.n	d5cb0 <_ZN7FatFile13parsePathNameEPKcP7fname_tPS1_+0x98>
   d5cb8:	4603      	mov	r3, r0
   d5cba:	1a1a      	subs	r2, r3, r0
    fname->sfn[k] = ' ';
  }
  // skip leading spaces and dots.
  for (si = 0; path[si] == '.' || path[si] == ' '; si++) {}
   d5cbc:	f813 4b01 	ldrb.w	r4, [r3], #1
   d5cc0:	2c2e      	cmp	r4, #46	; 0x2e
   d5cc2:	d0fa      	beq.n	d5cba <_ZN7FatFile13parsePathNameEPKcP7fname_tPS1_+0xa2>
   d5cc4:	2c20      	cmp	r4, #32
   d5cc6:	d0f8      	beq.n	d5cba <_ZN7FatFile13parsePathNameEPKcP7fname_tPS1_+0xa2>
  // Not 8.3 if leading dot or space.
  is83 = !si;
   d5cc8:	fab2 f482 	clz	r4, r2
   d5ccc:	0964      	lsrs	r4, r4, #5

  // find last dot.
  for (dot = len - 1; dot >= 0 && path[dot] != '.'; dot--) {}
   d5cce:	f108 36ff 	add.w	r6, r8, #4294967295
   d5cd2:	1c73      	adds	r3, r6, #1
   d5cd4:	d107      	bne.n	d5ce6 <_ZN7FatFile13parsePathNameEPKcP7fname_tPS1_+0xce>
   d5cd6:	2700      	movs	r7, #0
   d5cd8:	f04f 0e07 	mov.w	lr, #7
   d5cdc:	463d      	mov	r5, r7
   d5cde:	46ba      	mov	sl, r7
   d5ce0:	f04f 0908 	mov.w	r9, #8
   d5ce4:	e009      	b.n	d5cfa <_ZN7FatFile13parsePathNameEPKcP7fname_tPS1_+0xe2>
   d5ce6:	5d83      	ldrb	r3, [r0, r6]
   d5ce8:	2b2e      	cmp	r3, #46	; 0x2e
   d5cea:	d0f4      	beq.n	d5cd6 <_ZN7FatFile13parsePathNameEPKcP7fname_tPS1_+0xbe>
   d5cec:	3e01      	subs	r6, #1
   d5cee:	e7f0      	b.n	d5cd2 <_ZN7FatFile13parsePathNameEPKcP7fname_tPS1_+0xba>
  for (; si < len; si++) {
    c = path[si];
   d5cf0:	5c83      	ldrb	r3, [r0, r2]
    if (c == ' ' || (c == '.' && dot != si)) {
   d5cf2:	2b20      	cmp	r3, #32
   d5cf4:	d104      	bne.n	d5d00 <_ZN7FatFile13parsePathNameEPKcP7fname_tPS1_+0xe8>
      is83 = false;
   d5cf6:	2400      	movs	r4, #0
  // Not 8.3 if leading dot or space.
  is83 = !si;

  // find last dot.
  for (dot = len - 1; dot >= 0 && path[dot] != '.'; dot--) {}
  for (; si < len; si++) {
   d5cf8:	3201      	adds	r2, #1
   d5cfa:	4542      	cmp	r2, r8
   d5cfc:	dbf8      	blt.n	d5cf0 <_ZN7FatFile13parsePathNameEPKcP7fname_tPS1_+0xd8>
   d5cfe:	e04b      	b.n	d5d98 <_ZN7FatFile13parsePathNameEPKcP7fname_tPS1_+0x180>
    c = path[si];
    if (c == ' ' || (c == '.' && dot != si)) {
   d5d00:	2b2e      	cmp	r3, #46	; 0x2e
   d5d02:	d102      	bne.n	d5d0a <_ZN7FatFile13parsePathNameEPKcP7fname_tPS1_+0xf2>
   d5d04:	42b2      	cmp	r2, r6
   d5d06:	d1f6      	bne.n	d5cf6 <_ZN7FatFile13parsePathNameEPKcP7fname_tPS1_+0xde>
   d5d08:	e003      	b.n	d5d12 <_ZN7FatFile13parsePathNameEPKcP7fname_tPS1_+0xfa>
  /** Check for a legal 8.3 character.
   * \param[in] c Character to be checked.
   * \return true for a legal 8.3 character else false.
   */
  static bool legal83Char(uint8_t c) {
    if (c == '"' || c == '|') {
   d5d0a:	2b22      	cmp	r3, #34	; 0x22
   d5d0c:	d017      	beq.n	d5d3e <_ZN7FatFile13parsePathNameEPKcP7fname_tPS1_+0x126>
   d5d0e:	2b7c      	cmp	r3, #124	; 0x7c
   d5d10:	d015      	beq.n	d5d3e <_ZN7FatFile13parsePathNameEPKcP7fname_tPS1_+0x126>
      return false;
    }
    // *+,./
    if (0X2A <= c && c <= 0X2F && c != 0X2D) {
   d5d12:	f1a3 0c2a 	sub.w	ip, r3, #42	; 0x2a
   d5d16:	f1bc 0f05 	cmp.w	ip, #5
   d5d1a:	d801      	bhi.n	d5d20 <_ZN7FatFile13parsePathNameEPKcP7fname_tPS1_+0x108>
   d5d1c:	2b2d      	cmp	r3, #45	; 0x2d
   d5d1e:	d10e      	bne.n	d5d3e <_ZN7FatFile13parsePathNameEPKcP7fname_tPS1_+0x126>
      return false;
    }
    // :;<=>?
    if (0X3A <= c && c <= 0X3F) {
   d5d20:	f1a3 0c3a 	sub.w	ip, r3, #58	; 0x3a
   d5d24:	f1bc 0f05 	cmp.w	ip, #5
   d5d28:	d909      	bls.n	d5d3e <_ZN7FatFile13parsePathNameEPKcP7fname_tPS1_+0x126>
      return false;
    }
    // [\]
    if (0X5B <= c && c <= 0X5D) {
   d5d2a:	f1a3 0c5b 	sub.w	ip, r3, #91	; 0x5b
   d5d2e:	f1bc 0f02 	cmp.w	ip, #2
   d5d32:	d904      	bls.n	d5d3e <_ZN7FatFile13parsePathNameEPKcP7fname_tPS1_+0x126>
      is83 = false;
      continue;
    }
    if (!legal83Char(c) && si != dot) {
   d5d34:	f1a3 0c21 	sub.w	ip, r3, #33	; 0x21
   d5d38:	f1bc 0f5d 	cmp.w	ip, #93	; 0x5d
   d5d3c:	d902      	bls.n	d5d44 <_ZN7FatFile13parsePathNameEPKcP7fname_tPS1_+0x12c>
   d5d3e:	42b2      	cmp	r2, r6
   d5d40:	d10e      	bne.n	d5d60 <_ZN7FatFile13parsePathNameEPKcP7fname_tPS1_+0x148>
   d5d42:	e049      	b.n	d5dd8 <_ZN7FatFile13parsePathNameEPKcP7fname_tPS1_+0x1c0>
      is83 = false;
      c = '_';
    }
    if (si == dot || i > in) {
   d5d44:	42b2      	cmp	r2, r6
   d5d46:	d047      	beq.n	d5dd8 <_ZN7FatFile13parsePathNameEPKcP7fname_tPS1_+0x1c0>
   d5d48:	4575      	cmp	r5, lr
   d5d4a:	d821      	bhi.n	d5d90 <_ZN7FatFile13parsePathNameEPKcP7fname_tPS1_+0x178>
      si = dot;
      in = 10;  // Max index for full 8.3 name.
      i = 8;    // Place for extension.
      bit = DIR_NT_LC_EXT;  // bit for extension.
    } else {
      if ('a' <= c && c <= 'z') {
   d5d4c:	f1a3 0c61 	sub.w	ip, r3, #97	; 0x61
   d5d50:	f1bc 0f19 	cmp.w	ip, #25
   d5d54:	d808      	bhi.n	d5d68 <_ZN7FatFile13parsePathNameEPKcP7fname_tPS1_+0x150>
        c += 'A' - 'a';
   d5d56:	3b20      	subs	r3, #32
   d5d58:	b2db      	uxtb	r3, r3
        lc |= bit;
   d5d5a:	ea49 0707 	orr.w	r7, r9, r7
   d5d5e:	e00a      	b.n	d5d76 <_ZN7FatFile13parsePathNameEPKcP7fname_tPS1_+0x15e>
    }
    if (!legal83Char(c) && si != dot) {
      is83 = false;
      c = '_';
    }
    if (si == dot || i > in) {
   d5d60:	4575      	cmp	r5, lr
   d5d62:	d815      	bhi.n	d5d90 <_ZN7FatFile13parsePathNameEPKcP7fname_tPS1_+0x178>
    if (c == ' ' || (c == '.' && dot != si)) {
      is83 = false;
      continue;
    }
    if (!legal83Char(c) && si != dot) {
      is83 = false;
   d5d64:	2400      	movs	r4, #0
      c = '_';
   d5d66:	235f      	movs	r3, #95	; 0x5f
      bit = DIR_NT_LC_EXT;  // bit for extension.
    } else {
      if ('a' <= c && c <= 'z') {
        c += 'A' - 'a';
        lc |= bit;
      } else if ('A' <= c && c <= 'Z') {
   d5d68:	f1a3 0c41 	sub.w	ip, r3, #65	; 0x41
   d5d6c:	f1bc 0f19 	cmp.w	ip, #25
        uc |= bit;
   d5d70:	bf98      	it	ls
   d5d72:	ea49 0a0a 	orrls.w	sl, r9, sl
      }
      fname->sfn[i++] = c;
   d5d76:	f105 0c01 	add.w	ip, r5, #1
   d5d7a:	fa5f fc8c 	uxtb.w	ip, ip
   d5d7e:	440d      	add	r5, r1
      if (i < 7) {
   d5d80:	f1bc 0f06 	cmp.w	ip, #6
        c += 'A' - 'a';
        lc |= bit;
      } else if ('A' <= c && c <= 'Z') {
        uc |= bit;
      }
      fname->sfn[i++] = c;
   d5d84:	736b      	strb	r3, [r5, #13]
      if (i < 7) {
   d5d86:	d801      	bhi.n	d5d8c <_ZN7FatFile13parsePathNameEPKcP7fname_tPS1_+0x174>
        fname->seqPos = i;
   d5d88:	f881 c00c 	strb.w	ip, [r1, #12]
   d5d8c:	4665      	mov	r5, ip
   d5d8e:	e7b3      	b.n	d5cf8 <_ZN7FatFile13parsePathNameEPKcP7fname_tPS1_+0xe0>
    if (!legal83Char(c) && si != dot) {
      is83 = false;
      c = '_';
    }
    if (si == dot || i > in) {
      if (in == 10) {
   d5d90:	f1be 0f0a 	cmp.w	lr, #10
   d5d94:	d117      	bne.n	d5dc6 <_ZN7FatFile13parsePathNameEPKcP7fname_tPS1_+0x1ae>
        // Done - extension longer than three characters.
        is83 = false;
        break;
      }
      if (si != dot) {
        is83 = false;
   d5d96:	2400      	movs	r4, #0
      if (i < 7) {
        fname->seqPos = i;
      }
    }
  }
  if (fname->sfn[0] == ' ') {
   d5d98:	7b4b      	ldrb	r3, [r1, #13]
   d5d9a:	2b20      	cmp	r3, #32
   d5d9c:	f43f af53 	beq.w	d5c46 <_ZN7FatFile13parsePathNameEPKcP7fname_tPS1_+0x2e>
    return false;
  }

  if (is83) {
   d5da0:	b13c      	cbz	r4, d5db2 <_ZN7FatFile13parsePathNameEPKcP7fname_tPS1_+0x19a>
    fname->flags = lc & uc ? FNAME_FLAG_MIXED_CASE : lc;
   d5da2:	ea1a 0f07 	tst.w	sl, r7
   d5da6:	bf18      	it	ne
   d5da8:	2702      	movne	r7, #2
   d5daa:	700f      	strb	r7, [r1, #0]
  } else {
    fname->flags = FNAME_FLAG_LOST_CHARS;
    fname->sfn[fname->seqPos] = '~';
    fname->sfn[fname->seqPos + 1] = '1';
  }
  return true;
   d5dac:	2001      	movs	r0, #1
   d5dae:	e8bd 87f0 	ldmia.w	sp!, {r4, r5, r6, r7, r8, r9, sl, pc}

  if (is83) {
    fname->flags = lc & uc ? FNAME_FLAG_MIXED_CASE : lc;
  } else {
    fname->flags = FNAME_FLAG_LOST_CHARS;
    fname->sfn[fname->seqPos] = '~';
   d5db2:	7b0b      	ldrb	r3, [r1, #12]
  }

  if (is83) {
    fname->flags = lc & uc ? FNAME_FLAG_MIXED_CASE : lc;
  } else {
    fname->flags = FNAME_FLAG_LOST_CHARS;
   d5db4:	2001      	movs	r0, #1
   d5db6:	7008      	strb	r0, [r1, #0]
    fname->sfn[fname->seqPos] = '~';
   d5db8:	4419      	add	r1, r3
   d5dba:	237e      	movs	r3, #126	; 0x7e
   d5dbc:	734b      	strb	r3, [r1, #13]
    fname->sfn[fname->seqPos + 1] = '1';
   d5dbe:	2331      	movs	r3, #49	; 0x31
   d5dc0:	738b      	strb	r3, [r1, #14]
   d5dc2:	e8bd 87f0 	ldmia.w	sp!, {r4, r5, r6, r7, r8, r9, sl, pc}
      }
      if (si != dot) {
        is83 = false;
      }
      // Break if no dot and base-name is longer than eight characters.
      if (si > dot) {
   d5dc6:	42b2      	cmp	r2, r6
   d5dc8:	dce5      	bgt.n	d5d96 <_ZN7FatFile13parsePathNameEPKcP7fname_tPS1_+0x17e>
   d5dca:	4632      	mov	r2, r6
        break;
      }
      si = dot;
      in = 10;  // Max index for full 8.3 name.
   d5dcc:	f04f 0e0a 	mov.w	lr, #10
      i = 8;    // Place for extension.
   d5dd0:	2508      	movs	r5, #8
      bit = DIR_NT_LC_EXT;  // bit for extension.
   d5dd2:	f04f 0910 	mov.w	r9, #16
   d5dd6:	e78e      	b.n	d5cf6 <_ZN7FatFile13parsePathNameEPKcP7fname_tPS1_+0xde>
    if (!legal83Char(c) && si != dot) {
      is83 = false;
      c = '_';
    }
    if (si == dot || i > in) {
      if (in == 10) {
   d5dd8:	f1be 0f0a 	cmp.w	lr, #10
   d5ddc:	d0db      	beq.n	d5d96 <_ZN7FatFile13parsePathNameEPKcP7fname_tPS1_+0x17e>
   d5dde:	4632      	mov	r2, r6
      // Break if no dot and base-name is longer than eight characters.
      if (si > dot) {
        break;
      }
      si = dot;
      in = 10;  // Max index for full 8.3 name.
   d5de0:	f04f 0e0a 	mov.w	lr, #10
      i = 8;    // Place for extension.
   d5de4:	2508      	movs	r5, #8
      bit = DIR_NT_LC_EXT;  // bit for extension.
   d5de6:	f04f 0910 	mov.w	r9, #16
   d5dea:	e785      	b.n	d5cf8 <_ZN7FatFile13parsePathNameEPKcP7fname_tPS1_+0xe0>
   d5dec:	31000101 	.word	0x31000101

000d5df0 <_ZN7FatFile12lfnUniqueSfnEP7fname_t>:

fail:
  return false;
}
//------------------------------------------------------------------------------
bool FatFile::lfnUniqueSfn(fname_t* fname) {
   d5df0:	e92d 43f8 	stmdb	sp!, {r3, r4, r5, r6, r7, r8, r9, lr}
  const uint8_t FIRST_HASH_SEQ = 2;  // min value is 2
  uint8_t pos = fname->seqPos;;
   d5df4:	f891 900c 	ldrb.w	r9, [r1, #12]

fail:
  return false;
}
//------------------------------------------------------------------------------
bool FatFile::lfnUniqueSfn(fname_t* fname) {
   d5df8:	4606      	mov	r6, r0
   d5dfa:	460d      	mov	r5, r1
  const uint8_t FIRST_HASH_SEQ = 2;  // min value is 2
  uint8_t pos = fname->seqPos;;
   d5dfc:	2402      	movs	r4, #2
        uint8_t h = hex & 0XF;
        fname->sfn[i] = h < 10 ? h + '0' : h + 'A' - 10;
        hex >>= 4;
      }
    }
    fname->sfn[pos] = '~';
   d5dfe:	277e      	movs	r7, #126	; 0x7e
        goto fail;
      }
      if (dir->name[0] == DIR_NAME_FREE) {
        goto done;
      }
      if (DIR_IS_FILE_OR_SUBDIR(dir) && !memcmp(fname->sfn, dir->name, 11)) {
   d5e00:	f101 080d 	add.w	r8, r1, #13
  for (uint8_t seq = 2; seq < 100; seq++) {
    if (seq < FIRST_HASH_SEQ) {
      fname->sfn[pos + 1] = '0' + seq;
    } else {
      DBG_PRINT_IF(seq > FIRST_HASH_SEQ);
      hex = Bernstein(seq + fname->len, fname->lfn, fname->len);
   d5e04:	6869      	ldr	r1, [r5, #4]
   d5e06:	68aa      	ldr	r2, [r5, #8]
   d5e08:	1863      	adds	r3, r4, r1
   d5e0a:	b29b      	uxth	r3, r3
   d5e0c:	4411      	add	r1, r2
}
//------------------------------------------------------------------------------
// Daniel Bernstein University of Illinois at Chicago.
// Original had + instead of ^
static uint16_t Bernstein(uint16_t hash, const char *str, size_t len) {
  for (size_t i = 0; i < len; i++) {
   d5e0e:	4291      	cmp	r1, r2
   d5e10:	d006      	beq.n	d5e20 <_ZN7FatFile12lfnUniqueSfnEP7fname_t+0x30>
    // hash = hash * 33 ^ str[i];
    hash = ((hash << 5) + hash) ^ str[i];
   d5e12:	f812 0b01 	ldrb.w	r0, [r2], #1
   d5e16:	eb03 1343 	add.w	r3, r3, r3, lsl #5
   d5e1a:	4043      	eors	r3, r0
   d5e1c:	b29b      	uxth	r3, r3
   d5e1e:	e7f6      	b.n	d5e0e <_ZN7FatFile12lfnUniqueSfnEP7fname_t+0x1e>
   d5e20:	f1b9 0f03 	cmp.w	r9, #3
   d5e24:	bf28      	it	cs
   d5e26:	f04f 0903 	movcs.w	r9, #3
      hex = Bernstein(seq + fname->len, fname->lfn, fname->len);
      if (pos > 3) {
        // Make space in name for ~HHHH.
        pos = 3;
      }
      for (uint8_t i = pos + 4 ; i > pos; i--) {
   d5e2a:	f109 0204 	add.w	r2, r9, #4
   d5e2e:	b2d2      	uxtb	r2, r2
        uint8_t h = hex & 0XF;
   d5e30:	f003 010f 	and.w	r1, r3, #15
        fname->sfn[i] = h < 10 ? h + '0' : h + 'A' - 10;
   d5e34:	18a8      	adds	r0, r5, r2
      hex = Bernstein(seq + fname->len, fname->lfn, fname->len);
      if (pos > 3) {
        // Make space in name for ~HHHH.
        pos = 3;
      }
      for (uint8_t i = pos + 4 ; i > pos; i--) {
   d5e36:	3a01      	subs	r2, #1
        uint8_t h = hex & 0XF;
        fname->sfn[i] = h < 10 ? h + '0' : h + 'A' - 10;
   d5e38:	2909      	cmp	r1, #9
      hex = Bernstein(seq + fname->len, fname->lfn, fname->len);
      if (pos > 3) {
        // Make space in name for ~HHHH.
        pos = 3;
      }
      for (uint8_t i = pos + 4 ; i > pos; i--) {
   d5e3a:	b2d2      	uxtb	r2, r2
        uint8_t h = hex & 0XF;
        fname->sfn[i] = h < 10 ? h + '0' : h + 'A' - 10;
   d5e3c:	bf94      	ite	ls
   d5e3e:	3130      	addls	r1, #48	; 0x30
   d5e40:	3137      	addhi	r1, #55	; 0x37
      hex = Bernstein(seq + fname->len, fname->lfn, fname->len);
      if (pos > 3) {
        // Make space in name for ~HHHH.
        pos = 3;
      }
      for (uint8_t i = pos + 4 ; i > pos; i--) {
   d5e42:	4591      	cmp	r9, r2
        uint8_t h = hex & 0XF;
        fname->sfn[i] = h < 10 ? h + '0' : h + 'A' - 10;
   d5e44:	7341      	strb	r1, [r0, #13]
        hex >>= 4;
   d5e46:	ea4f 1313 	mov.w	r3, r3, lsr #4
      hex = Bernstein(seq + fname->len, fname->lfn, fname->len);
      if (pos > 3) {
        // Make space in name for ~HHHH.
        pos = 3;
      }
      for (uint8_t i = pos + 4 ; i > pos; i--) {
   d5e4a:	d3f1      	bcc.n	d5e30 <_ZN7FatFile12lfnUniqueSfnEP7fname_t+0x40>
        uint8_t h = hex & 0XF;
        fname->sfn[i] = h < 10 ? h + '0' : h + 'A' - 10;
        hex >>= 4;
      }
    }
    fname->sfn[pos] = '~';
   d5e4c:	eb05 0309 	add.w	r3, r5, r9
   * the value false is returned for failure.
   */
  static bool remove(FatFile* dirFile, const char* path);
  /** Set the file's current position to zero. */
  void rewind() {
    seekSet(0);
   d5e50:	2100      	movs	r1, #0
   d5e52:	735f      	strb	r7, [r3, #13]
   d5e54:	4630      	mov	r0, r6
   d5e56:	f000 fb31 	bl	d64bc <_ZN7FatFile7seekSetEm>
    rewind();
    while (1) {
      dir = readDirCache(true);
   d5e5a:	2101      	movs	r1, #1
   d5e5c:	4630      	mov	r0, r6
   d5e5e:	f000 fb10 	bl	d6482 <_ZN7FatFile12readDirCacheEb>
      if (!dir) {
   d5e62:	4601      	mov	r1, r0
   d5e64:	b928      	cbnz	r0, d5e72 <_ZN7FatFile12lfnUniqueSfnEP7fname_t+0x82>
        if (!getError()) {
   d5e66:	7870      	ldrb	r0, [r6, #1]
   d5e68:	fab0 f080 	clz	r0, r0
   d5e6c:	0940      	lsrs	r0, r0, #5
   d5e6e:	e8bd 83f8 	ldmia.w	sp!, {r3, r4, r5, r6, r7, r8, r9, pc}
          goto done;
        }
        DBG_FAIL_MACRO;
        goto fail;
      }
      if (dir->name[0] == DIR_NAME_FREE) {
   d5e72:	7803      	ldrb	r3, [r0, #0]
   d5e74:	b14b      	cbz	r3, d5e8a <_ZN7FatFile12lfnUniqueSfnEP7fname_t+0x9a>
        goto done;
      }
      if (DIR_IS_FILE_OR_SUBDIR(dir) && !memcmp(fname->sfn, dir->name, 11)) {
   d5e76:	7ac3      	ldrb	r3, [r0, #11]
   d5e78:	071b      	lsls	r3, r3, #28
   d5e7a:	d4ee      	bmi.n	d5e5a <_ZN7FatFile12lfnUniqueSfnEP7fname_t+0x6a>
   d5e7c:	220b      	movs	r2, #11
   d5e7e:	4640      	mov	r0, r8
   d5e80:	f003 fcb2 	bl	d97e8 <memcmp>
   d5e84:	2800      	cmp	r0, #0
   d5e86:	d1e8      	bne.n	d5e5a <_ZN7FatFile12lfnUniqueSfnEP7fname_t+0x6a>
   d5e88:	e002      	b.n	d5e90 <_ZN7FatFile12lfnUniqueSfnEP7fname_t+0xa0>

fail:
  return false;

done:
  return true;
   d5e8a:	2001      	movs	r0, #1
   d5e8c:	e8bd 83f8 	ldmia.w	sp!, {r3, r4, r5, r6, r7, r8, r9, pc}
   d5e90:	3401      	adds	r4, #1
   d5e92:	b2a4      	uxth	r4, r4
  uint16_t hex;

  DBG_HALT_IF(!(fname->flags & FNAME_FLAG_LOST_CHARS));
  DBG_HALT_IF(fname->sfn[pos] != '~' && fname->sfn[pos + 1] != '1');

  for (uint8_t seq = 2; seq < 100; seq++) {
   d5e94:	2c64      	cmp	r4, #100	; 0x64
   d5e96:	d1b5      	bne.n	d5e04 <_ZN7FatFile12lfnUniqueSfnEP7fname_t+0x14>
fail:
  return false;

done:
  return true;
}
   d5e98:	e8bd 83f8 	ldmia.w	sp!, {r3, r4, r5, r6, r7, r8, r9, pc}

000d5e9c <_ZN7FatFile4openEPS_P7fname_ti>:
    fname->sfn[fname->seqPos + 1] = '1';
  }
  return true;
}
//------------------------------------------------------------------------------
bool FatFile::open(FatFile* dirFile, fname_t* fname, oflag_t oflag) {
   d5e9c:	e92d 4ff0 	stmdb	sp!, {r4, r5, r6, r7, r8, r9, sl, fp, lr}
   d5ea0:	469b      	mov	fp, r3
  uint16_t curIndex;
  dir_t* dir;
  ldir_t* ldir;
  size_t len = fname->len;

  if (!dirFile->isDir() || isOpen()) {
   d5ea2:	780b      	ldrb	r3, [r1, #0]
    fname->sfn[fname->seqPos + 1] = '1';
  }
  return true;
}
//------------------------------------------------------------------------------
bool FatFile::open(FatFile* dirFile, fname_t* fname, oflag_t oflag) {
   d5ea4:	b089      	sub	sp, #36	; 0x24
  uint16_t curIndex;
  dir_t* dir;
  ldir_t* ldir;
  size_t len = fname->len;

  if (!dirFile->isDir() || isOpen()) {
   d5ea6:	f013 0f70 	tst.w	r3, #112	; 0x70
    fname->sfn[fname->seqPos + 1] = '1';
  }
  return true;
}
//------------------------------------------------------------------------------
bool FatFile::open(FatFile* dirFile, fname_t* fname, oflag_t oflag) {
   d5eaa:	9005      	str	r0, [sp, #20]
   d5eac:	460e      	mov	r6, r1
   d5eae:	4691      	mov	r9, r2
  uint16_t curIndex;
  dir_t* dir;
  ldir_t* ldir;
  size_t len = fname->len;

  if (!dirFile->isDir() || isOpen()) {
   d5eb0:	d101      	bne.n	d5eb6 <_ZN7FatFile4openEPS_P7fname_ti+0x1a>
    goto fail;
  }
  return true;

fail:
  return false;
   d5eb2:	2000      	movs	r0, #0
   d5eb4:	e1a0      	b.n	d61f8 <_ZN7FatFile4openEPS_P7fname_ti+0x35c>
  uint16_t curIndex;
  dir_t* dir;
  ldir_t* ldir;
  size_t len = fname->len;

  if (!dirFile->isDir() || isOpen()) {
   d5eb6:	9b05      	ldr	r3, [sp, #20]
   d5eb8:	781b      	ldrb	r3, [r3, #0]
   d5eba:	2b00      	cmp	r3, #0
   d5ebc:	d1f9      	bne.n	d5eb2 <_ZN7FatFile4openEPS_P7fname_ti+0x16>
  uint8_t chksum = 0;
  uint16_t freeIndex = 0;
  uint16_t curIndex;
  dir_t* dir;
  ldir_t* ldir;
  size_t len = fname->len;
   d5ebe:	6853      	ldr	r3, [r2, #4]
   d5ec0:	9302      	str	r3, [sp, #8]
  if (!dirFile->isDir() || isOpen()) {
    DBG_FAIL_MACRO;
    goto fail;
  }
  // Number of directory entries needed.
  freeNeed = fname->flags & FNAME_FLAG_NEED_LFN ? 1 + (len + 12)/13 : 1;
   d5ec2:	7813      	ldrb	r3, [r2, #0]
   d5ec4:	079b      	lsls	r3, r3, #30
   d5ec6:	f000 818d 	beq.w	d61e4 <_ZN7FatFile4openEPS_P7fname_ti+0x348>
   d5eca:	9b02      	ldr	r3, [sp, #8]
   d5ecc:	270d      	movs	r7, #13
   d5ece:	330c      	adds	r3, #12
   d5ed0:	fbb3 f7f7 	udiv	r7, r3, r7
   d5ed4:	3701      	adds	r7, #1
   d5ed6:	b2ff      	uxtb	r7, r7
   d5ed8:	2100      	movs	r1, #0
   d5eda:	4630      	mov	r0, r6
   d5edc:	f000 faee 	bl	d64bc <_ZN7FatFile7seekSetEm>
  uint8_t lfnOrd = 0;
  uint8_t freeNeed;
  uint8_t freeFound = 0;
  uint8_t ord = 0;
  uint8_t chksum = 0;
  uint16_t freeIndex = 0;
   d5ee0:	f04f 0800 	mov.w	r8, #0
          goto found;
        }
        DBG_FAIL_MACRO;
        goto fail;
      }
      if (!memcmp(dir->name, fname->sfn, sizeof(fname->sfn))) {
   d5ee4:	f109 020d 	add.w	r2, r9, #13
  bool fnameFound = false;
  uint8_t lfnOrd = 0;
  uint8_t freeNeed;
  uint8_t freeFound = 0;
  uint8_t ord = 0;
  uint8_t chksum = 0;
   d5ee8:	f8cd 800c 	str.w	r8, [sp, #12]
bool FatFile::open(FatFile* dirFile, fname_t* fname, oflag_t oflag) {
  bool fnameFound = false;
  uint8_t lfnOrd = 0;
  uint8_t freeNeed;
  uint8_t freeFound = 0;
  uint8_t ord = 0;
   d5eec:	4643      	mov	r3, r8
//------------------------------------------------------------------------------
bool FatFile::open(FatFile* dirFile, fname_t* fname, oflag_t oflag) {
  bool fnameFound = false;
  uint8_t lfnOrd = 0;
  uint8_t freeNeed;
  uint8_t freeFound = 0;
   d5eee:	4644      	mov	r4, r8
  return true;
}
//------------------------------------------------------------------------------
bool FatFile::open(FatFile* dirFile, fname_t* fname, oflag_t oflag) {
  bool fnameFound = false;
  uint8_t lfnOrd = 0;
   d5ef0:	4645      	mov	r5, r8
  }
  return true;
}
//------------------------------------------------------------------------------
bool FatFile::open(FatFile* dirFile, fname_t* fname, oflag_t oflag) {
  bool fnameFound = false;
   d5ef2:	f8cd 8010 	str.w	r8, [sp, #16]
          goto found;
        }
        DBG_FAIL_MACRO;
        goto fail;
      }
      if (!memcmp(dir->name, fname->sfn, sizeof(fname->sfn))) {
   d5ef6:	9206      	str	r2, [sp, #24]
  // Number of directory entries needed.
  freeNeed = fname->flags & FNAME_FLAG_NEED_LFN ? 1 + (len + 12)/13 : 1;

  dirFile->rewind();
  while (1) {
    curIndex = dirFile->m_curPosition/32;
   d5ef8:	6972      	ldr	r2, [r6, #20]
   d5efa:	9307      	str	r3, [sp, #28]
    dir = dirFile->readDirCache(true);
   d5efc:	2101      	movs	r1, #1
   d5efe:	4630      	mov	r0, r6
  // Number of directory entries needed.
  freeNeed = fname->flags & FNAME_FLAG_NEED_LFN ? 1 + (len + 12)/13 : 1;

  dirFile->rewind();
  while (1) {
    curIndex = dirFile->m_curPosition/32;
   d5f00:	f3c2 1a4f 	ubfx	sl, r2, #5, #16
    dir = dirFile->readDirCache(true);
   d5f04:	f000 fabd 	bl	d6482 <_ZN7FatFile12readDirCacheEb>
    if (!dir) {
   d5f08:	9b07      	ldr	r3, [sp, #28]
   d5f0a:	b920      	cbnz	r0, d5f16 <_ZN7FatFile4openEPS_P7fname_ti+0x7a>
      if (dirFile->getError()) {
   d5f0c:	7873      	ldrb	r3, [r6, #1]
   d5f0e:	2b00      	cmp	r3, #0
   d5f10:	f000 8090 	beq.w	d6034 <_ZN7FatFile4openEPS_P7fname_ti+0x198>
   d5f14:	e7cd      	b.n	d5eb2 <_ZN7FatFile4openEPS_P7fname_ti+0x16>
        goto fail;
      }
      // At EOF
      goto create;
    }
    if (dir->name[0] == DIR_NAME_DELETED || dir->name[0] == DIR_NAME_FREE) {
   d5f16:	7802      	ldrb	r2, [r0, #0]
   d5f18:	2ae5      	cmp	r2, #229	; 0xe5
   d5f1a:	d000      	beq.n	d5f1e <_ZN7FatFile4openEPS_P7fname_ti+0x82>
   d5f1c:	b942      	cbnz	r2, d5f30 <_ZN7FatFile4openEPS_P7fname_ti+0x94>
  // Number of directory entries needed.
  freeNeed = fname->flags & FNAME_FLAG_NEED_LFN ? 1 + (len + 12)/13 : 1;

  dirFile->rewind();
  while (1) {
    curIndex = dirFile->m_curPosition/32;
   d5f1e:	2c00      	cmp	r4, #0
   d5f20:	bf08      	it	eq
   d5f22:	46d0      	moveq	r8, sl
    }
    if (dir->name[0] == DIR_NAME_DELETED || dir->name[0] == DIR_NAME_FREE) {
      if (freeFound == 0) {
        freeIndex = curIndex;
      }
      if (freeFound < freeNeed) {
   d5f24:	42bc      	cmp	r4, r7
        freeFound++;
   d5f26:	bf3c      	itt	cc
   d5f28:	3401      	addcc	r4, #1
   d5f2a:	b2e4      	uxtbcc	r4, r4
      }
      if (dir->name[0] == DIR_NAME_FREE) {
   d5f2c:	b922      	cbnz	r2, d5f38 <_ZN7FatFile4openEPS_P7fname_ti+0x9c>
   d5f2e:	e081      	b.n	d6034 <_ZN7FatFile4openEPS_P7fname_ti+0x198>
        goto create;
      }
    } else {
      if (freeFound < freeNeed) {
        freeFound = 0;
   d5f30:	42bc      	cmp	r4, r7
   d5f32:	bf38      	it	cc
   d5f34:	2400      	movcc	r4, #0
   d5f36:	e003      	b.n	d5f40 <_ZN7FatFile4openEPS_P7fname_ti+0xa4>
      }
    }
    // skip empty slot or '.' or '..'
    if (dir->name[0] == DIR_NAME_DELETED || dir->name[0] == '.') {
   d5f38:	2ae5      	cmp	r2, #229	; 0xe5
   d5f3a:	d101      	bne.n	d5f40 <_ZN7FatFile4openEPS_P7fname_ti+0xa4>
          goto found;
        }
        fnameFound = true;
      }
    } else {
      lfnOrd = 0;
   d5f3c:	2500      	movs	r5, #0
   d5f3e:	e7db      	b.n	d5ef8 <_ZN7FatFile4openEPS_P7fname_ti+0x5c>
      if (freeFound < freeNeed) {
        freeFound = 0;
      }
    }
    // skip empty slot or '.' or '..'
    if (dir->name[0] == DIR_NAME_DELETED || dir->name[0] == '.') {
   d5f40:	2a2e      	cmp	r2, #46	; 0x2e
   d5f42:	d0fb      	beq.n	d5f3c <_ZN7FatFile4openEPS_P7fname_ti+0xa0>
   d5f44:	7ac1      	ldrb	r1, [r0, #11]
      lfnOrd = 0;
    } else if (DIR_IS_LONG_NAME(dir)) {
   d5f46:	290f      	cmp	r1, #15
   d5f48:	d152      	bne.n	d5ff0 <_ZN7FatFile4openEPS_P7fname_ti+0x154>
      ldir_t *ldir = reinterpret_cast<ldir_t*>(dir);
      if (!lfnOrd) {
   d5f4a:	b93d      	cbnz	r5, d5f5c <_ZN7FatFile4openEPS_P7fname_ti+0xc0>
        if ((ldir->ord & LDIR_ORD_LAST_LONG_ENTRY) == 0) {
   d5f4c:	0651      	lsls	r1, r2, #25
   d5f4e:	d5d3      	bpl.n	d5ef8 <_ZN7FatFile4openEPS_P7fname_ti+0x5c>
          continue;
        }
        lfnOrd = ord = ldir->ord & 0X1F;
        chksum = ldir->chksum;
   d5f50:	7b43      	ldrb	r3, [r0, #13]
   d5f52:	9303      	str	r3, [sp, #12]
      ldir_t *ldir = reinterpret_cast<ldir_t*>(dir);
      if (!lfnOrd) {
        if ((ldir->ord & LDIR_ORD_LAST_LONG_ENTRY) == 0) {
          continue;
        }
        lfnOrd = ord = ldir->ord & 0X1F;
   d5f54:	f002 051f 	and.w	r5, r2, #31
   d5f58:	462b      	mov	r3, r5
   d5f5a:	e007      	b.n	d5f6c <_ZN7FatFile4openEPS_P7fname_ti+0xd0>
        chksum = ldir->chksum;
      } else if (ldir->ord != --ord || chksum != ldir->chksum) {
   d5f5c:	3b01      	subs	r3, #1
   d5f5e:	b2db      	uxtb	r3, r3
   d5f60:	429a      	cmp	r2, r3
   d5f62:	d1eb      	bne.n	d5f3c <_ZN7FatFile4openEPS_P7fname_ti+0xa0>
   d5f64:	7b42      	ldrb	r2, [r0, #13]
   d5f66:	9903      	ldr	r1, [sp, #12]
   d5f68:	4291      	cmp	r1, r2
   d5f6a:	d1e7      	bne.n	d5f3c <_ZN7FatFile4openEPS_P7fname_ti+0xa0>
        lfnOrd = 0;
        continue;
      }
      size_t k = 13*(ord - 1);
   d5f6c:	1e5a      	subs	r2, r3, #1
   d5f6e:	f04f 0c0d 	mov.w	ip, #13
   d5f72:	fb0c fc02 	mul.w	ip, ip, r2
      if (k >= len) {
   d5f76:	9a02      	ldr	r2, [sp, #8]
   d5f78:	4562      	cmp	r2, ip
   d5f7a:	d9df      	bls.n	d5f3c <_ZN7FatFile4openEPS_P7fname_ti+0xa0>
   d5f7c:	f04f 0e00 	mov.w	lr, #0
 * \param[in] ldir Pointer to long file name directory entry.
 * \param[in] i Index of character.
 * \return The 16-bit character.
 */
static uint16_t lfnGetChar(ldir_t *ldir, uint8_t i) {
  if (i < LDIR_NAME1_DIM) {
   d5f80:	f1be 0f04 	cmp.w	lr, #4
   d5f84:	fa5f f28e 	uxtb.w	r2, lr
   d5f88:	d804      	bhi.n	d5f94 <_ZN7FatFile4openEPS_P7fname_ti+0xf8>
    return ldir->name1[i];
   d5f8a:	eb00 024e 	add.w	r2, r0, lr, lsl #1
   d5f8e:	f8b2 2001 	ldrh.w	r2, [r2, #1]
   d5f92:	e00c      	b.n	d5fae <_ZN7FatFile4openEPS_P7fname_ti+0x112>
  } else if (i < (LDIR_NAME1_DIM + LDIR_NAME2_DIM)) {
   d5f94:	2a0a      	cmp	r2, #10
    return ldir->name2[i - LDIR_NAME1_DIM];
   d5f96:	bf95      	itete	ls
   d5f98:	f10e 32ff 	addls.w	r2, lr, #4294967295
  } else if (i < (LDIR_NAME1_DIM + LDIR_NAME2_DIM + LDIR_NAME2_DIM)) {
    return ldir->name3[i - LDIR_NAME1_DIM - LDIR_NAME2_DIM];
   d5f9c:	f10e 0201 	addhi.w	r2, lr, #1
 */
static uint16_t lfnGetChar(ldir_t *ldir, uint8_t i) {
  if (i < LDIR_NAME1_DIM) {
    return ldir->name1[i];
  } else if (i < (LDIR_NAME1_DIM + LDIR_NAME2_DIM)) {
    return ldir->name2[i - LDIR_NAME1_DIM];
   d5fa0:	eb00 0242 	addls.w	r2, r0, r2, lsl #1
  } else if (i < (LDIR_NAME1_DIM + LDIR_NAME2_DIM + LDIR_NAME2_DIM)) {
    return ldir->name3[i - LDIR_NAME1_DIM - LDIR_NAME2_DIM];
   d5fa4:	eb00 0242 	addhi.w	r2, r0, r2, lsl #1
 */
static uint16_t lfnGetChar(ldir_t *ldir, uint8_t i) {
  if (i < LDIR_NAME1_DIM) {
    return ldir->name1[i];
  } else if (i < (LDIR_NAME1_DIM + LDIR_NAME2_DIM)) {
    return ldir->name2[i - LDIR_NAME1_DIM];
   d5fa8:	bf94      	ite	ls
   d5faa:	88d2      	ldrhls	r2, [r2, #6]
  } else if (i < (LDIR_NAME1_DIM + LDIR_NAME2_DIM + LDIR_NAME2_DIM)) {
    return ldir->name3[i - LDIR_NAME1_DIM - LDIR_NAME2_DIM];
   d5fac:	8892      	ldrhhi	r2, [r2, #4]
        lfnOrd = 0;
        continue;
      }
      for (uint8_t i = 0; i < 13; i++) {
        uint16_t u = lfnGetChar(ldir, i);
        if (k == len) {
   d5fae:	9902      	ldr	r1, [sp, #8]
   d5fb0:	4561      	cmp	r1, ip
   d5fb2:	d103      	bne.n	d5fbc <_ZN7FatFile4openEPS_P7fname_ti+0x120>
          if (u != 0) {
            // Not found.
            lfnOrd = 0;
   d5fb4:	2a00      	cmp	r2, #0
   d5fb6:	bf18      	it	ne
   d5fb8:	2500      	movne	r5, #0
   d5fba:	e79d      	b.n	d5ef8 <_ZN7FatFile4openEPS_P7fname_ti+0x5c>
          }
          break;
        }
        if (u > 255 || lfnToLower(u) != lfnToLower(fname->lfn[k++])) {
   d5fbc:	2aff      	cmp	r2, #255	; 0xff
   d5fbe:	d8bd      	bhi.n	d5f3c <_ZN7FatFile4openEPS_P7fname_ti+0xa0>
   d5fc0:	b2d2      	uxtb	r2, r2
}
#if USE_LONG_FILE_NAMES
//------------------------------------------------------------------------------
// Saves about 90 bytes of flash on 328 over tolower().
inline char lfnToLower(char c) {
  return 'A' <= c && c <= 'Z' ? c + 'a' - 'A' : c;
   d5fc2:	f1a2 0141 	sub.w	r1, r2, #65	; 0x41
   d5fc6:	2919      	cmp	r1, #25
            // Not found.
            lfnOrd = 0;
          }
          break;
        }
        if (u > 255 || lfnToLower(u) != lfnToLower(fname->lfn[k++])) {
   d5fc8:	f8d9 1008 	ldr.w	r1, [r9, #8]
   d5fcc:	f811 100c 	ldrb.w	r1, [r1, ip]
}
#if USE_LONG_FILE_NAMES
//------------------------------------------------------------------------------
// Saves about 90 bytes of flash on 328 over tolower().
inline char lfnToLower(char c) {
  return 'A' <= c && c <= 'Z' ? c + 'a' - 'A' : c;
   d5fd0:	bf98      	it	ls
   d5fd2:	3220      	addls	r2, #32
            // Not found.
            lfnOrd = 0;
          }
          break;
        }
        if (u > 255 || lfnToLower(u) != lfnToLower(fname->lfn[k++])) {
   d5fd4:	f10c 0a01 	add.w	sl, ip, #1
}
#if USE_LONG_FILE_NAMES
//------------------------------------------------------------------------------
// Saves about 90 bytes of flash on 328 over tolower().
inline char lfnToLower(char c) {
  return 'A' <= c && c <= 'Z' ? c + 'a' - 'A' : c;
   d5fd8:	f1a1 0c41 	sub.w	ip, r1, #65	; 0x41
   d5fdc:	bf98      	it	ls
   d5fde:	b2d2      	uxtbls	r2, r2
   d5fe0:	f1bc 0f19 	cmp.w	ip, #25
   d5fe4:	bf9c      	itt	ls
   d5fe6:	3120      	addls	r1, #32
   d5fe8:	b2c9      	uxtbls	r1, r1
            // Not found.
            lfnOrd = 0;
          }
          break;
        }
        if (u > 255 || lfnToLower(u) != lfnToLower(fname->lfn[k++])) {
   d5fea:	4291      	cmp	r1, r2
   d5fec:	d1a6      	bne.n	d5f3c <_ZN7FatFile4openEPS_P7fname_ti+0xa0>
   d5fee:	e0fb      	b.n	d61e8 <_ZN7FatFile4openEPS_P7fname_ti+0x34c>
          // Not found.
          lfnOrd = 0;
          break;
        }
      }
    } else if (DIR_IS_FILE_OR_SUBDIR(dir)) {
   d5ff0:	0709      	lsls	r1, r1, #28
   d5ff2:	d4a3      	bmi.n	d5f3c <_ZN7FatFile4openEPS_P7fname_ti+0xa0>
      if (lfnOrd) {
   d5ff4:	b14d      	cbz	r5, d600a <_ZN7FatFile4openEPS_P7fname_ti+0x16e>
        if (1 == ord && lfnChecksum(dir->name) == chksum) {
   d5ff6:	2b01      	cmp	r3, #1
   d5ff8:	f47f af5b 	bne.w	d5eb2 <_ZN7FatFile4openEPS_P7fname_ti+0x16>
   d5ffc:	f7ff fdfc 	bl	d5bf8 <_ZN7FatFile11lfnChecksumEPh>
   d6000:	9b03      	ldr	r3, [sp, #12]
   d6002:	4283      	cmp	r3, r0
   d6004:	f47f af55 	bne.w	d5eb2 <_ZN7FatFile4openEPS_P7fname_ti+0x16>
   d6008:	e00f      	b.n	d602a <_ZN7FatFile4openEPS_P7fname_ti+0x18e>
          goto found;
        }
        DBG_FAIL_MACRO;
        goto fail;
      }
      if (!memcmp(dir->name, fname->sfn, sizeof(fname->sfn))) {
   d600a:	220b      	movs	r2, #11
   d600c:	9906      	ldr	r1, [sp, #24]
   d600e:	9307      	str	r3, [sp, #28]
   d6010:	f003 fbea 	bl	d97e8 <memcmp>
   d6014:	9b07      	ldr	r3, [sp, #28]
   d6016:	2800      	cmp	r0, #0
   d6018:	f47f af6e 	bne.w	d5ef8 <_ZN7FatFile4openEPS_P7fname_ti+0x5c>
        if (!(fname->flags & FNAME_FLAG_LOST_CHARS)) {
   d601c:	f899 2000 	ldrb.w	r2, [r9]
   d6020:	07d2      	lsls	r2, r2, #31
   d6022:	d502      	bpl.n	d602a <_ZN7FatFile4openEPS_P7fname_ti+0x18e>
          goto found;
        }
        fnameFound = true;
   d6024:	2201      	movs	r2, #1
   d6026:	9204      	str	r2, [sp, #16]
   d6028:	e766      	b.n	d5ef8 <_ZN7FatFile4openEPS_P7fname_ti+0x5c>
    }
  }

found:
  // Don't open if create only.
  if (oflag & O_EXCL) {
   d602a:	f41b 6f00 	tst.w	fp, #2048	; 0x800
   d602e:	f000 80d1 	beq.w	d61d4 <_ZN7FatFile4openEPS_P7fname_ti+0x338>
   d6032:	e73e      	b.n	d5eb2 <_ZN7FatFile4openEPS_P7fname_ti+0x16>
  }
  goto open;

create:
  // don't create unless O_CREAT and write mode.
  if (!(oflag & O_CREAT) || !isWriteMode(oflag)) {
   d6034:	f41b 7f00 	tst.w	fp, #512	; 0x200
   d6038:	f43f af3b 	beq.w	d5eb2 <_ZN7FatFile4openEPS_P7fname_ti+0x16>
   d603c:	f00b 0303 	and.w	r3, fp, #3
   d6040:	3b01      	subs	r3, #1
   d6042:	2b01      	cmp	r3, #1
   d6044:	f63f af35 	bhi.w	d5eb2 <_ZN7FatFile4openEPS_P7fname_ti+0x16>
    DBG_FAIL_MACRO;
    goto fail;
  }
  // If at EOF start in next cluster.
  if (freeFound == 0) {
   d6048:	2c00      	cmp	r4, #0
   d604a:	bf08      	it	eq
   d604c:	46d0      	moveq	r8, sl
    freeIndex = curIndex;
  }

  while (freeFound < freeNeed) {
   d604e:	42bc      	cmp	r4, r7
   d6050:	d302      	bcc.n	d6058 <_ZN7FatFile4openEPS_P7fname_ti+0x1bc>
    if (dirFile->m_vol->blocksPerCluster() > 1) {
      break;
    }
    freeFound += 16;
  }
  if (fnameFound) {
   d6052:	9b04      	ldr	r3, [sp, #16]
   d6054:	b9cb      	cbnz	r3, d608a <_ZN7FatFile4openEPS_P7fname_ti+0x1ee>
   d6056:	e01f      	b.n	d6098 <_ZN7FatFile4openEPS_P7fname_ti+0x1fc>
  if (freeFound == 0) {
    freeIndex = curIndex;
  }

  while (freeFound < freeNeed) {
    dir = dirFile->readDirCache();
   d6058:	2100      	movs	r1, #0
   d605a:	4630      	mov	r0, r6
   d605c:	f000 fa11 	bl	d6482 <_ZN7FatFile12readDirCacheEb>
    if (!dir) {
   d6060:	b910      	cbnz	r0, d6068 <_ZN7FatFile4openEPS_P7fname_ti+0x1cc>
      if (dirFile->getError()) {
   d6062:	7873      	ldrb	r3, [r6, #1]
   d6064:	b15b      	cbz	r3, d607e <_ZN7FatFile4openEPS_P7fname_ti+0x1e2>
   d6066:	e724      	b.n	d5eb2 <_ZN7FatFile4openEPS_P7fname_ti+0x16>
        goto fail;
      }
      // EOF if no error.
      break;
    }
    freeFound++;
   d6068:	3401      	adds	r4, #1
   d606a:	b2e4      	uxtb	r4, r4
  // If at EOF start in next cluster.
  if (freeFound == 0) {
    freeIndex = curIndex;
  }

  while (freeFound < freeNeed) {
   d606c:	e7ef      	b.n	d604e <_ZN7FatFile4openEPS_P7fname_ti+0x1b2>
   d606e:	68b3      	ldr	r3, [r6, #8]
    if (!dirFile->addDirCluster()) {
      DBG_FAIL_MACRO;
      goto fail;
    }
    // Done if more than one block per cluster.  Max freeNeed is 21.
    if (dirFile->m_vol->blocksPerCluster() > 1) {
   d6070:	791b      	ldrb	r3, [r3, #4]
   d6072:	2b01      	cmp	r3, #1
   d6074:	d8ed      	bhi.n	d6052 <_ZN7FatFile4openEPS_P7fname_ti+0x1b6>
      break;
    }
    freeFound += 16;
   d6076:	3410      	adds	r4, #16
   d6078:	b2e4      	uxtb	r4, r4
      // EOF if no error.
      break;
    }
    freeFound++;
  }
  while (freeFound < freeNeed) {
   d607a:	42a7      	cmp	r7, r4
   d607c:	d9e9      	bls.n	d6052 <_ZN7FatFile4openEPS_P7fname_ti+0x1b6>
    // Will fail if FAT16 root.
    if (!dirFile->addDirCluster()) {
   d607e:	4630      	mov	r0, r6
   d6080:	f000 f8d2 	bl	d6228 <_ZN7FatFile13addDirClusterEv>
   d6084:	2800      	cmp	r0, #0
   d6086:	d1f2      	bne.n	d606e <_ZN7FatFile4openEPS_P7fname_ti+0x1d2>
   d6088:	e713      	b.n	d5eb2 <_ZN7FatFile4openEPS_P7fname_ti+0x16>
      break;
    }
    freeFound += 16;
  }
  if (fnameFound) {
    if (!dirFile->lfnUniqueSfn(fname)) {
   d608a:	4649      	mov	r1, r9
   d608c:	4630      	mov	r0, r6
   d608e:	f7ff feaf 	bl	d5df0 <_ZN7FatFile12lfnUniqueSfnEP7fname_t>
   d6092:	2800      	cmp	r0, #0
   d6094:	f43f af0d 	beq.w	d5eb2 <_ZN7FatFile4openEPS_P7fname_ti+0x16>
      goto fail;
    }
  }
  if (!dirFile->seekSet(32UL*freeIndex)) {
   d6098:	ea4f 1148 	mov.w	r1, r8, lsl #5
   d609c:	4630      	mov	r0, r6
   d609e:	f000 fa0d 	bl	d64bc <_ZN7FatFile7seekSetEm>
   d60a2:	2800      	cmp	r0, #0
   d60a4:	f43f af05 	beq.w	d5eb2 <_ZN7FatFile4openEPS_P7fname_ti+0x16>
    DBG_FAIL_MACRO;
    goto fail;
  }
  lfnOrd = freeNeed - 1;
   d60a8:	1e7d      	subs	r5, r7, #1
   d60aa:	b2ed      	uxtb	r5, r5
  for (uint8_t ord = lfnOrd ; ord ; ord--) {
   d60ac:	462c      	mov	r4, r5
    ldir = reinterpret_cast<ldir_t*>(dirFile->readDirCache());
   d60ae:	f04f 0a00 	mov.w	sl, #0
      DBG_FAIL_MACRO;
      goto fail;
    }
    dirFile->m_vol->cacheDirty();
    ldir->ord = ord == lfnOrd ? LDIR_ORD_LAST_LONG_ENTRY | ord : ord;
    ldir->attr = DIR_ATT_LONG_NAME;
   d60b2:	f04f 080f 	mov.w	r8, #15
   d60b6:	e041      	b.n	d613c <_ZN7FatFile4openEPS_P7fname_ti+0x2a0>
    DBG_FAIL_MACRO;
    goto fail;
  }
  lfnOrd = freeNeed - 1;
  for (uint8_t ord = lfnOrd ; ord ; ord--) {
    ldir = reinterpret_cast<ldir_t*>(dirFile->readDirCache());
   d60b8:	2100      	movs	r1, #0
   d60ba:	4630      	mov	r0, r6
   d60bc:	f000 f9e1 	bl	d6482 <_ZN7FatFile12readDirCacheEb>
    if (!ldir) {
   d60c0:	4607      	mov	r7, r0
   d60c2:	2800      	cmp	r0, #0
   d60c4:	f43f aef5 	beq.w	d5eb2 <_ZN7FatFile4openEPS_P7fname_ti+0x16>
      DBG_FAIL_MACRO;
      goto fail;
    }
    dirFile->m_vol->cacheDirty();
   d60c8:	68b2      	ldr	r2, [r6, #8]
  cache_t* block() {
    return &m_block;
  }
  /** Set current block dirty. */
  void dirty() {
    m_status |= CACHE_STATUS_DIRTY;
   d60ca:	f892 3024 	ldrb.w	r3, [r2, #36]	; 0x24
    ldir->ord = ord == lfnOrd ? LDIR_ORD_LAST_LONG_ENTRY | ord : ord;
   d60ce:	42ac      	cmp	r4, r5
   d60d0:	f043 0301 	orr.w	r3, r3, #1
   d60d4:	f882 3024 	strb.w	r3, [r2, #36]	; 0x24
   d60d8:	bf0c      	ite	eq
   d60da:	f044 0240 	orreq.w	r2, r4, #64	; 0x40
   d60de:	4622      	movne	r2, r4
   d60e0:	7002      	strb	r2, [r0, #0]
    ldir->attr = DIR_ATT_LONG_NAME;
   d60e2:	f880 800b 	strb.w	r8, [r0, #11]
    ldir->type = 0;
   d60e6:	f880 a00c 	strb.w	sl, [r0, #12]
    ldir->chksum = lfnChecksum(fname->sfn);
   d60ea:	f109 000d 	add.w	r0, r9, #13
    if (!ldir) {
      DBG_FAIL_MACRO;
      goto fail;
    }
    dirFile->m_vol->cacheDirty();
    ldir->ord = ord == lfnOrd ? LDIR_ORD_LAST_LONG_ENTRY | ord : ord;
   d60ee:	9203      	str	r2, [sp, #12]
    ldir->attr = DIR_ATT_LONG_NAME;
    ldir->type = 0;
    ldir->chksum = lfnChecksum(fname->sfn);
   d60f0:	f7ff fd82 	bl	d5bf8 <_ZN7FatFile11lfnChecksumEPh>
    ldir->name3[i - LDIR_NAME1_DIM - LDIR_NAME2_DIM] = c;
  }
}
//------------------------------------------------------------------------------
static void lfnPutName(ldir_t *ldir, const char* name, size_t n) {
  size_t k = 13*((ldir->ord & 0X1F) - 1);
   d60f4:	9a03      	ldr	r2, [sp, #12]
    }
    dirFile->m_vol->cacheDirty();
    ldir->ord = ord == lfnOrd ? LDIR_ORD_LAST_LONG_ENTRY | ord : ord;
    ldir->attr = DIR_ATT_LONG_NAME;
    ldir->type = 0;
    ldir->chksum = lfnChecksum(fname->sfn);
   d60f6:	7378      	strb	r0, [r7, #13]
    ldir->mustBeZero = 0;
   d60f8:	f887 a01a 	strb.w	sl, [r7, #26]
   d60fc:	f887 a01b 	strb.w	sl, [r7, #27]
    ldir->name3[i - LDIR_NAME1_DIM - LDIR_NAME2_DIM] = c;
  }
}
//------------------------------------------------------------------------------
static void lfnPutName(ldir_t *ldir, const char* name, size_t n) {
  size_t k = 13*((ldir->ord & 0X1F) - 1);
   d6100:	f002 021f 	and.w	r2, r2, #31
   d6104:	230d      	movs	r3, #13
   d6106:	3a01      	subs	r2, #1
    ldir->ord = ord == lfnOrd ? LDIR_ORD_LAST_LONG_ENTRY | ord : ord;
    ldir->attr = DIR_ATT_LONG_NAME;
    ldir->type = 0;
    ldir->chksum = lfnChecksum(fname->sfn);
    ldir->mustBeZero = 0;
    lfnPutName(ldir, fname->lfn, len);
   d6108:	f8d9 e008 	ldr.w	lr, [r9, #8]
    ldir->name3[i - LDIR_NAME1_DIM - LDIR_NAME2_DIM] = c;
  }
}
//------------------------------------------------------------------------------
static void lfnPutName(ldir_t *ldir, const char* name, size_t n) {
  size_t k = 13*((ldir->ord & 0X1F) - 1);
   d610c:	435a      	muls	r2, r3
   d610e:	2300      	movs	r3, #0
  for (uint8_t i = 0; i < 13; i++, k++) {
    uint16_t c = k < n ? name[k] : k == n ? 0 : 0XFFFF;
   d6110:	9902      	ldr	r1, [sp, #8]
   d6112:	4291      	cmp	r1, r2
   d6114:	d915      	bls.n	d6142 <_ZN7FatFile4openEPS_P7fname_ti+0x2a6>
   d6116:	f81e 1002 	ldrb.w	r1, [lr, r2]
 * \param[in] ldir Pointer to long file name directory entry.
 * \param[in] i Index of character.
 * \param[in] c  The 16-bit character.
 */
static void lfnPutChar(ldir_t *ldir, uint8_t i, uint16_t c) {
  if (i < LDIR_NAME1_DIM) {
   d611a:	2b04      	cmp	r3, #4
   d611c:	fa5f fc83 	uxtb.w	ip, r3
   d6120:	f103 0001 	add.w	r0, r3, #1
   d6124:	d813      	bhi.n	d614e <_ZN7FatFile4openEPS_P7fname_ti+0x2b2>
    ldir->name1[i] = c;
   d6126:	eb07 0343 	add.w	r3, r7, r3, lsl #1
   d612a:	f8a3 1001 	strh.w	r1, [r3, #1]
  }
}
//------------------------------------------------------------------------------
static void lfnPutName(ldir_t *ldir, const char* name, size_t n) {
  size_t k = 13*((ldir->ord & 0X1F) - 1);
  for (uint8_t i = 0; i < 13; i++, k++) {
   d612e:	280d      	cmp	r0, #13
   d6130:	f102 0201 	add.w	r2, r2, #1
   d6134:	4603      	mov	r3, r0
   d6136:	d1eb      	bne.n	d6110 <_ZN7FatFile4openEPS_P7fname_ti+0x274>
  if (!dirFile->seekSet(32UL*freeIndex)) {
    DBG_FAIL_MACRO;
    goto fail;
  }
  lfnOrd = freeNeed - 1;
  for (uint8_t ord = lfnOrd ; ord ; ord--) {
   d6138:	3c01      	subs	r4, #1
   d613a:	b2e4      	uxtb	r4, r4
   d613c:	2c00      	cmp	r4, #0
   d613e:	d1bb      	bne.n	d60b8 <_ZN7FatFile4openEPS_P7fname_ti+0x21c>
   d6140:	e00e      	b.n	d6160 <_ZN7FatFile4openEPS_P7fname_ti+0x2c4>
}
//------------------------------------------------------------------------------
static void lfnPutName(ldir_t *ldir, const char* name, size_t n) {
  size_t k = 13*((ldir->ord & 0X1F) - 1);
  for (uint8_t i = 0; i < 13; i++, k++) {
    uint16_t c = k < n ? name[k] : k == n ? 0 : 0XFFFF;
   d6142:	bf14      	ite	ne
   d6144:	f04f 31ff 	movne.w	r1, #4294967295
   d6148:	2100      	moveq	r1, #0
   d614a:	b289      	uxth	r1, r1
   d614c:	e7e5      	b.n	d611a <_ZN7FatFile4openEPS_P7fname_ti+0x27e>
 * \param[in] c  The 16-bit character.
 */
static void lfnPutChar(ldir_t *ldir, uint8_t i, uint16_t c) {
  if (i < LDIR_NAME1_DIM) {
    ldir->name1[i] = c;
  } else if (i < (LDIR_NAME1_DIM + LDIR_NAME2_DIM)) {
   d614e:	f1bc 0f0a 	cmp.w	ip, #10
    ldir->name2[i - LDIR_NAME1_DIM] = c;
   d6152:	bf94      	ite	ls
   d6154:	eb07 0343 	addls.w	r3, r7, r3, lsl #1
  } else if (i < (LDIR_NAME1_DIM + LDIR_NAME2_DIM + LDIR_NAME2_DIM)) {
    ldir->name3[i - LDIR_NAME1_DIM - LDIR_NAME2_DIM] = c;
   d6158:	eb07 0340 	addhi.w	r3, r7, r0, lsl #1
   d615c:	8099      	strh	r1, [r3, #4]
   d615e:	e7e6      	b.n	d612e <_ZN7FatFile4openEPS_P7fname_ti+0x292>
    ldir->type = 0;
    ldir->chksum = lfnChecksum(fname->sfn);
    ldir->mustBeZero = 0;
    lfnPutName(ldir, fname->lfn, len);
  }
  curIndex = dirFile->m_curPosition/32;
   d6160:	6973      	ldr	r3, [r6, #20]
  dir = dirFile->readDirCache();
   d6162:	4621      	mov	r1, r4
   d6164:	4630      	mov	r0, r6
    ldir->type = 0;
    ldir->chksum = lfnChecksum(fname->sfn);
    ldir->mustBeZero = 0;
    lfnPutName(ldir, fname->lfn, len);
  }
  curIndex = dirFile->m_curPosition/32;
   d6166:	f3c3 1a4f 	ubfx	sl, r3, #5, #16
  dir = dirFile->readDirCache();
   d616a:	f000 f98a 	bl	d6482 <_ZN7FatFile12readDirCacheEb>
  if (!dir) {
   d616e:	4607      	mov	r7, r0
   d6170:	2800      	cmp	r0, #0
   d6172:	f43f ae9e 	beq.w	d5eb2 <_ZN7FatFile4openEPS_P7fname_ti+0x16>
    DBG_FAIL_MACRO;
    goto fail;
  }
  // initialize as empty file
  memset(dir, 0, sizeof(dir_t));
   d6176:	2220      	movs	r2, #32
   d6178:	4621      	mov	r1, r4
   d617a:	f003 fb4f 	bl	d981c <memset>
  memcpy(dir->name, fname->sfn, 11);
   d617e:	464b      	mov	r3, r9
   d6180:	f853 2f0d 	ldr.w	r2, [r3, #13]!
   d6184:	603a      	str	r2, [r7, #0]
   d6186:	685a      	ldr	r2, [r3, #4]
   d6188:	607a      	str	r2, [r7, #4]
   d618a:	891a      	ldrh	r2, [r3, #8]
   d618c:	813a      	strh	r2, [r7, #8]
   d618e:	7a9b      	ldrb	r3, [r3, #10]
   d6190:	72bb      	strb	r3, [r7, #10]

  // Set base-name and extension lower case bits.
  dir->reservedNT =  (DIR_NT_LC_BASE | DIR_NT_LC_EXT) & fname->flags;
   d6192:	f899 3000 	ldrb.w	r3, [r9]
   d6196:	f003 0318 	and.w	r3, r3, #24
   d619a:	733b      	strb	r3, [r7, #12]

  // set timestamps
  if (m_dateTime) {
   d619c:	4b18      	ldr	r3, [pc, #96]	; (d6200 <_ZN7FatFile4openEPS_P7fname_ti+0x364>)
   d619e:	681b      	ldr	r3, [r3, #0]
   d61a0:	b12b      	cbz	r3, d61ae <_ZN7FatFile4openEPS_P7fname_ti+0x312>
    // call user date/time function
    m_dateTime(&dir->creationDate, &dir->creationTime);
   d61a2:	f107 010e 	add.w	r1, r7, #14
   d61a6:	f107 0010 	add.w	r0, r7, #16
   d61aa:	4798      	blx	r3
   d61ac:	e006      	b.n	d61bc <_ZN7FatFile4openEPS_P7fname_ti+0x320>
  } else {
    // use default date/time
    dir->creationDate = FAT_DEFAULT_DATE;
   d61ae:	2321      	movs	r3, #33	; 0x21
   d61b0:	743b      	strb	r3, [r7, #16]
   d61b2:	2328      	movs	r3, #40	; 0x28
   d61b4:	747b      	strb	r3, [r7, #17]
    dir->creationTime = FAT_DEFAULT_TIME;
   d61b6:	2308      	movs	r3, #8
   d61b8:	73bc      	strb	r4, [r7, #14]
   d61ba:	73fb      	strb	r3, [r7, #15]
  }
  dir->lastAccessDate = dir->creationDate;
   d61bc:	8a3b      	ldrh	r3, [r7, #16]
   d61be:	827b      	strh	r3, [r7, #18]
  dir->lastWriteDate = dir->creationDate;
   d61c0:	833b      	strh	r3, [r7, #24]
  dir->lastWriteTime = dir->creationTime;
   d61c2:	89fb      	ldrh	r3, [r7, #14]
   d61c4:	82fb      	strh	r3, [r7, #22]

  // Force write of entry to device.
  dirFile->m_vol->cacheDirty();
   d61c6:	68b2      	ldr	r2, [r6, #8]
   d61c8:	f892 3024 	ldrb.w	r3, [r2, #36]	; 0x24
   d61cc:	f043 0301 	orr.w	r3, r3, #1
   d61d0:	f882 3024 	strb.w	r3, [r2, #36]	; 0x24

open:
  // open entry in cache.
  if (!openCachedEntry(dirFile, curIndex, oflag, lfnOrd)) {
   d61d4:	9500      	str	r5, [sp, #0]
   d61d6:	465b      	mov	r3, fp
   d61d8:	4652      	mov	r2, sl
   d61da:	4631      	mov	r1, r6
   d61dc:	9805      	ldr	r0, [sp, #20]
   d61de:	f000 f9b6 	bl	d654e <_ZN7FatFile15openCachedEntryEPS_tih>
   d61e2:	e009      	b.n	d61f8 <_ZN7FatFile4openEPS_P7fname_ti+0x35c>
  if (!dirFile->isDir() || isOpen()) {
    DBG_FAIL_MACRO;
    goto fail;
  }
  // Number of directory entries needed.
  freeNeed = fname->flags & FNAME_FLAG_NEED_LFN ? 1 + (len + 12)/13 : 1;
   d61e4:	2701      	movs	r7, #1
   d61e6:	e677      	b.n	d5ed8 <_ZN7FatFile4openEPS_P7fname_ti+0x3c>
   d61e8:	f10e 0e01 	add.w	lr, lr, #1
      if (k >= len) {
        // Not found.
        lfnOrd = 0;
        continue;
      }
      for (uint8_t i = 0; i < 13; i++) {
   d61ec:	f1be 0f0d 	cmp.w	lr, #13
   d61f0:	f43f ae82 	beq.w	d5ef8 <_ZN7FatFile4openEPS_P7fname_ti+0x5c>
            // Not found.
            lfnOrd = 0;
          }
          break;
        }
        if (u > 255 || lfnToLower(u) != lfnToLower(fname->lfn[k++])) {
   d61f4:	46d4      	mov	ip, sl
   d61f6:	e6c3      	b.n	d5f80 <_ZN7FatFile4openEPS_P7fname_ti+0xe4>
  }
  return true;

fail:
  return false;
}
   d61f8:	b009      	add	sp, #36	; 0x24
   d61fa:	e8bd 8ff0 	ldmia.w	sp!, {r4, r5, r6, r7, r8, r9, sl, fp, pc}
   d61fe:	bf00      	nop
   d6200:	2003e3a0 	.word	0x2003e3a0

000d6204 <_GLOBAL__sub_I__ZN7FatFile11lfnChecksumEPh>:
   d6204:	f001 b836 	b.w	d7274 <HAL_Pin_Map>

000d6208 <_GLOBAL__sub_I__ZN11StdioStream6fcloseEv>:
   d6208:	f001 b834 	b.w	d7274 <HAL_Pin_Map>

000d620c <_GLOBAL__sub_I__ZN7ostream7do_fillEj>:
   d620c:	f001 b832 	b.w	d7274 <HAL_Pin_Map>

000d6210 <_GLOBAL__sub_I__ZN7FatFile6getSFNEPc>:
   d6210:	f001 b830 	b.w	d7274 <HAL_Pin_Map>

000d6214 <_ZN7FatFile10addClusterEv>:
// Callback function for date/time.
void (*FatFile::m_dateTime)(uint16_t* date, uint16_t* time) = 0;
//------------------------------------------------------------------------------
// Add a cluster to a file.
bool FatFile::addCluster() {
  m_flags |= F_FILE_DIR_DIRTY;
   d6214:	7883      	ldrb	r3, [r0, #2]
  return m_vol->allocateCluster(m_curCluster, &m_curCluster);
   d6216:	6901      	ldr	r1, [r0, #16]
// Callback function for date/time.
void (*FatFile::m_dateTime)(uint16_t* date, uint16_t* time) = 0;
//------------------------------------------------------------------------------
// Add a cluster to a file.
bool FatFile::addCluster() {
  m_flags |= F_FILE_DIR_DIRTY;
   d6218:	f043 0304 	orr.w	r3, r3, #4
   d621c:	7083      	strb	r3, [r0, #2]
  return m_vol->allocateCluster(m_curCluster, &m_curCluster);
   d621e:	f100 0210 	add.w	r2, r0, #16
   d6222:	6880      	ldr	r0, [r0, #8]
   d6224:	f000 bc26 	b.w	d6a74 <_ZN9FatVolume15allocateClusterEmPm>

000d6228 <_ZN7FatFile13addDirClusterEv>:
}
//------------------------------------------------------------------------------
// Add a cluster to a directory file and zero the cluster.
// Return with first block of cluster in the cache.
bool FatFile::addDirCluster() {
   d6228:	e92d 41f0 	stmdb	sp!, {r4, r5, r6, r7, r8, lr}
  uint32_t block;
  cache_t* pc;

  if (isRootFixed()) {
   d622c:	7803      	ldrb	r3, [r0, #0]
   d622e:	f003 0320 	and.w	r3, r3, #32
  return m_vol->allocateCluster(m_curCluster, &m_curCluster);
}
//------------------------------------------------------------------------------
// Add a cluster to a directory file and zero the cluster.
// Return with first block of cluster in the cache.
bool FatFile::addDirCluster() {
   d6232:	4604      	mov	r4, r0
  uint32_t block;
  cache_t* pc;

  if (isRootFixed()) {
   d6234:	f003 05ff 	and.w	r5, r3, #255	; 0xff
   d6238:	b10b      	cbz	r3, d623e <_ZN7FatFile13addDirClusterEv+0x16>
  // Set position to EOF to avoid inconsistent curCluster/curPosition.
  m_curPosition += 512UL*m_vol->blocksPerCluster();
  return true;

fail:
  return false;
   d623a:	2600      	movs	r6, #0
   d623c:	e02e      	b.n	d629c <_ZN7FatFile13addDirClusterEv+0x74>
  if (isRootFixed()) {
    DBG_FAIL_MACRO;
    goto fail;
  }
  // max folder size
  if (m_curPosition >= 512UL*4095) {
   d623e:	6942      	ldr	r2, [r0, #20]
   d6240:	4b18      	ldr	r3, [pc, #96]	; (d62a4 <_ZN7FatFile13addDirClusterEv+0x7c>)
   d6242:	429a      	cmp	r2, r3
   d6244:	d8f9      	bhi.n	d623a <_ZN7FatFile13addDirClusterEv+0x12>
    DBG_FAIL_MACRO;
    goto fail;
  }
  if (!addCluster()) {
   d6246:	f7ff ffe5 	bl	d6214 <_ZN7FatFile10addClusterEv>
   d624a:	4606      	mov	r6, r0
   d624c:	2800      	cmp	r0, #0
   d624e:	d0f4      	beq.n	d623a <_ZN7FatFile13addDirClusterEv+0x12>
    DBG_FAIL_MACRO;
    goto fail;
  }
  block = m_vol->clusterFirstBlock(m_curCluster);
   d6250:	6921      	ldr	r1, [r4, #16]
   d6252:	68a0      	ldr	r0, [r4, #8]
   d6254:	f000 fba3 	bl	d699e <_ZNK9FatVolume17clusterFirstBlockEm>
   d6258:	4607      	mov	r7, r0
  bool cacheSync() {
    return m_cache.sync() && syncBlocks();
  }
#endif  // USE_SEPARATE_FAT_CACHE
  cache_t* cacheFetchData(uint32_t blockNumber, uint8_t options) {
    return m_cache.read(blockNumber, options);
   d625a:	68a0      	ldr	r0, [r4, #8]
   d625c:	2205      	movs	r2, #5
   d625e:	4639      	mov	r1, r7
   d6260:	3024      	adds	r0, #36	; 0x24
   d6262:	f000 fb78 	bl	d6956 <_ZN8FatCache4readEmh>
  pc = m_vol->cacheFetchData(block, FatCache::CACHE_RESERVE_FOR_WRITE);
  if (!pc) {
   d6266:	4680      	mov	r8, r0
   d6268:	2800      	cmp	r0, #0
   d626a:	d0e6      	beq.n	d623a <_ZN7FatFile13addDirClusterEv+0x12>
    DBG_FAIL_MACRO;
    goto fail;
  }
  memset(pc, 0, 512);
   d626c:	4629      	mov	r1, r5
   d626e:	f44f 7200 	mov.w	r2, #512	; 0x200
   d6272:	f003 fad3 	bl	d981c <memset>
  // zero rest of clusters
  for (uint8_t i = 1; i < m_vol->blocksPerCluster(); i++) {
   d6276:	2501      	movs	r5, #1
   d6278:	68a3      	ldr	r3, [r4, #8]
   d627a:	791a      	ldrb	r2, [r3, #4]
   d627c:	42aa      	cmp	r2, r5
   d627e:	d909      	bls.n	d6294 <_ZN7FatFile13addDirClusterEv+0x6c>
  }
  bool syncBlocks() {
    return m_blockDev->syncBlocks();
  }
  bool writeBlock(uint32_t block, const uint8_t* src) {
    return m_blockDev->writeBlock(block, src);
   d6280:	4642      	mov	r2, r8
   d6282:	19e9      	adds	r1, r5, r7
   d6284:	6818      	ldr	r0, [r3, #0]
   d6286:	f000 fee3 	bl	d7050 <_ZN9SdSpiCard10writeBlockEmPKh>
    if (!m_vol->writeBlock(block + i, pc->data)) {
   d628a:	2800      	cmp	r0, #0
   d628c:	d0d5      	beq.n	d623a <_ZN7FatFile13addDirClusterEv+0x12>
    DBG_FAIL_MACRO;
    goto fail;
  }
  memset(pc, 0, 512);
  // zero rest of clusters
  for (uint8_t i = 1; i < m_vol->blocksPerCluster(); i++) {
   d628e:	3501      	adds	r5, #1
   d6290:	b2ed      	uxtb	r5, r5
   d6292:	e7f1      	b.n	d6278 <_ZN7FatFile13addDirClusterEv+0x50>
      DBG_FAIL_MACRO;
      goto fail;
    }
  }
  // Set position to EOF to avoid inconsistent curCluster/curPosition.
  m_curPosition += 512UL*m_vol->blocksPerCluster();
   d6294:	6963      	ldr	r3, [r4, #20]
   d6296:	eb03 2342 	add.w	r3, r3, r2, lsl #9
   d629a:	6163      	str	r3, [r4, #20]
  return true;

fail:
  return false;
}
   d629c:	4630      	mov	r0, r6
   d629e:	e8bd 81f0 	ldmia.w	sp!, {r4, r5, r6, r7, r8, pc}
   d62a2:	bf00      	nop
   d62a4:	001ffdff 	.word	0x001ffdff

000d62a8 <_ZN7FatFile13cacheDirEntryEh>:
//------------------------------------------------------------------------------
// cache a file's directory entry
// return pointer to cached entry or null for failure
dir_t* FatFile::cacheDirEntry(uint8_t action) {
   d62a8:	b510      	push	{r4, lr}
   d62aa:	4604      	mov	r4, r0
  bool cacheSync() {
    return m_cache.sync() && syncBlocks();
  }
#endif  // USE_SEPARATE_FAT_CACHE
  cache_t* cacheFetchData(uint32_t blockNumber, uint8_t options) {
    return m_cache.read(blockNumber, options);
   d62ac:	6880      	ldr	r0, [r0, #8]
   d62ae:	460a      	mov	r2, r1
   d62b0:	3024      	adds	r0, #36	; 0x24
   d62b2:	69a1      	ldr	r1, [r4, #24]
   d62b4:	f000 fb4f 	bl	d6956 <_ZN8FatCache4readEmh>
  cache_t* pc;
  pc = m_vol->cacheFetchData(m_dirBlock, action);
  if (!pc) {
   d62b8:	b120      	cbz	r0, d62c4 <_ZN7FatFile13cacheDirEntryEh+0x1c>
    DBG_FAIL_MACRO;
    goto fail;
  }
  return pc->dir + (m_dirIndex & 0XF);
   d62ba:	88a3      	ldrh	r3, [r4, #4]
   d62bc:	f003 030f 	and.w	r3, r3, #15
   d62c0:	eb00 1043 	add.w	r0, r0, r3, lsl #5

fail:
  return 0;
}
   d62c4:	bd10      	pop	{r4, pc}

000d62c6 <_ZN7FatFile8openRootEP9FatVolume>:
fail:
  return false;
}
#endif  // DOXYGEN_SHOULD_SKIP_THIS
//------------------------------------------------------------------------------
bool FatFile::openRoot(FatVolume* vol) {
   d62c6:	b570      	push	{r4, r5, r6, lr}
  // error if file is already open
  if (isOpen()) {
   d62c8:	7804      	ldrb	r4, [r0, #0]
fail:
  return false;
}
#endif  // DOXYGEN_SHOULD_SKIP_THIS
//------------------------------------------------------------------------------
bool FatFile::openRoot(FatVolume* vol) {
   d62ca:	4605      	mov	r5, r0
   d62cc:	460e      	mov	r6, r1
  // error if file is already open
  if (isOpen()) {
   d62ce:	b984      	cbnz	r4, d62f2 <_ZN7FatFile8openRootEP9FatVolume+0x2c>
    DBG_FAIL_MACRO;
    goto fail;
  }
  memset(this, 0, sizeof(FatFile));
   d62d0:	2224      	movs	r2, #36	; 0x24
   d62d2:	4621      	mov	r1, r4
   d62d4:	f003 faa2 	bl	d981c <memset>

  m_vol = vol;
   d62d8:	60ae      	str	r6, [r5, #8]
  switch (vol->fatType()) {
   d62da:	79f3      	ldrb	r3, [r6, #7]
   d62dc:	2b10      	cmp	r3, #16
   d62de:	d003      	beq.n	d62e8 <_ZN7FatFile8openRootEP9FatVolume+0x22>
   d62e0:	2b20      	cmp	r3, #32
   d62e2:	d106      	bne.n	d62f2 <_ZN7FatFile8openRootEP9FatVolume+0x2c>
  case 16:
    m_attr = FILE_ATTR_ROOT_FIXED;
    break;

  case 32:
    m_attr = FILE_ATTR_ROOT32;
   d62e4:	2340      	movs	r3, #64	; 0x40
   d62e6:	e000      	b.n	d62ea <_ZN7FatFile8openRootEP9FatVolume+0x24>
  switch (vol->fatType()) {
#if FAT12_SUPPORT
  case 12:
#endif  // FAT12_SUPPORT
  case 16:
    m_attr = FILE_ATTR_ROOT_FIXED;
   d62e8:	2320      	movs	r3, #32
  default:
    DBG_FAIL_MACRO;
    goto fail;
  }
  // read only
  m_flags = F_READ;
   d62ea:	2001      	movs	r0, #1
  case 16:
    m_attr = FILE_ATTR_ROOT_FIXED;
    break;

  case 32:
    m_attr = FILE_ATTR_ROOT32;
   d62ec:	702b      	strb	r3, [r5, #0]
  default:
    DBG_FAIL_MACRO;
    goto fail;
  }
  // read only
  m_flags = F_READ;
   d62ee:	70a8      	strb	r0, [r5, #2]
   d62f0:	bd70      	pop	{r4, r5, r6, pc}
  return true;

fail:
  return false;
   d62f2:	2000      	movs	r0, #0
   d62f4:	bd70      	pop	{r4, r5, r6, pc}

000d62f6 <_ZN7FatFile4readEPvj>:
    setpos(&pos);
  }
  return c;
}
//------------------------------------------------------------------------------
int FatFile::read(void* buf, size_t nbyte) {
   d62f6:	e92d 4ff7 	stmdb	sp!, {r0, r1, r2, r4, r5, r6, r7, r8, r9, sl, fp, lr}
   d62fa:	7803      	ldrb	r3, [r0, #0]
   d62fc:	4604      	mov	r4, r0
   d62fe:	4689      	mov	r9, r1
   d6300:	4615      	mov	r5, r2
  size_t toRead;
  uint32_t block;  // raw device block number
  cache_t* pc;

  // error if not open for read
  if (!isOpen() || !(m_flags & F_READ)) {
   d6302:	b14b      	cbz	r3, d6318 <_ZN7FatFile4readEPvj+0x22>
   d6304:	7882      	ldrb	r2, [r0, #2]
   d6306:	07d1      	lsls	r1, r2, #31
   d6308:	d506      	bpl.n	d6318 <_ZN7FatFile4readEPvj+0x22>
   d630a:	e00c      	b.n	d6326 <_ZN7FatFile4readEPvj+0x30>
        if (m_curPosition == 0) {
          // use first cluster in file
          m_curCluster = isRoot32() ? m_vol->rootDirStart() : m_firstCluster;
        } else {
          // get next cluster from FAT
          fg = m_vol->fatGet(m_curCluster, &m_curCluster);
   d630c:	465a      	mov	r2, fp
   d630e:	6921      	ldr	r1, [r4, #16]
   d6310:	f000 fb4b 	bl	d69aa <_ZN9FatVolume6fatGetEmPm>
          if (fg < 0) {
   d6314:	2800      	cmp	r0, #0
   d6316:	da3d      	bge.n	d6394 <_ZN7FatFile4readEPvj+0x9e>
    toRead -= n;
  }
  return nbyte - toRead;

fail:
  m_error |= READ_ERROR;
   d6318:	7863      	ldrb	r3, [r4, #1]
   d631a:	f043 0302 	orr.w	r3, r3, #2
   d631e:	7063      	strb	r3, [r4, #1]
  return -1;
   d6320:	f04f 30ff 	mov.w	r0, #4294967295
   d6324:	e097      	b.n	d6456 <_ZN7FatFile4readEPvj+0x160>
  if (!isOpen() || !(m_flags & F_READ)) {
    DBG_FAIL_MACRO;
    goto fail;
  }

  if (isFile()) {
   d6326:	071a      	lsls	r2, r3, #28
   d6328:	d503      	bpl.n	d6332 <_ZN7FatFile4readEPvj+0x3c>
    uint32_t tmp32 = m_fileSize - m_curPosition;
   d632a:	69e3      	ldr	r3, [r4, #28]
   d632c:	6962      	ldr	r2, [r4, #20]
   d632e:	1a9b      	subs	r3, r3, r2
   d6330:	e007      	b.n	d6342 <_ZN7FatFile4readEPvj+0x4c>
    if (nbyte >= tmp32) {
      nbyte = tmp32;
    }
  } else if (isRootFixed()) {
   d6332:	069a      	lsls	r2, r3, #26
   d6334:	d508      	bpl.n	d6348 <_ZN7FatFile4readEPvj+0x52>
    uint16_t tmp16 = 32*m_vol->m_rootDirEntryCount - (uint16_t)m_curPosition;
   d6336:	68a3      	ldr	r3, [r4, #8]
    if (nbyte > tmp16) {
   d6338:	891a      	ldrh	r2, [r3, #8]
   d633a:	6963      	ldr	r3, [r4, #20]
   d633c:	ebc3 1342 	rsb	r3, r3, r2, lsl #5
   d6340:	b29b      	uxth	r3, r3
   d6342:	429d      	cmp	r5, r3
   d6344:	bf28      	it	cs
   d6346:	461d      	movcs	r5, r3
      nbyte = tmp16;
    }
  }
  toRead = nbyte;
   d6348:	462e      	mov	r6, r5
  return c;
}
//------------------------------------------------------------------------------
int FatFile::read(void* buf, size_t nbyte) {
  int8_t fg;
  uint8_t blockOfCluster = 0;
   d634a:	f04f 0800 	mov.w	r8, #0
        if (m_curPosition == 0) {
          // use first cluster in file
          m_curCluster = isRoot32() ? m_vol->rootDirStart() : m_firstCluster;
        } else {
          // get next cluster from FAT
          fg = m_vol->fatGet(m_curCluster, &m_curCluster);
   d634e:	f104 0b10 	add.w	fp, r4, #16
    if (nbyte > tmp16) {
      nbyte = tmp16;
    }
  }
  toRead = nbyte;
  while (toRead) {
   d6352:	2e00      	cmp	r6, #0
   d6354:	d035      	beq.n	d63c2 <_ZN7FatFile4readEPvj+0xcc>
   d6356:	7822      	ldrb	r2, [r4, #0]
    size_t n;
    offset = m_curPosition & 0X1FF;  // offset in block
   d6358:	6963      	ldr	r3, [r4, #20]
   d635a:	68a0      	ldr	r0, [r4, #8]
    if (isRootFixed()) {
   d635c:	f012 0f20 	tst.w	r2, #32
    }
  }
  toRead = nbyte;
  while (toRead) {
    size_t n;
    offset = m_curPosition & 0X1FF;  // offset in block
   d6360:	f3c3 0a08 	ubfx	sl, r3, #0, #9
   d6364:	ea4f 2153 	mov.w	r1, r3, lsr #9
    if (isRootFixed()) {
   d6368:	d002      	beq.n	d6370 <_ZN7FatFile4readEPvj+0x7a>
      block = m_vol->rootDirStart() + (m_curPosition >> 9);
   d636a:	6a03      	ldr	r3, [r0, #32]
   d636c:	4419      	add	r1, r3
   d636e:	e01d      	b.n	d63ac <_ZN7FatFile4readEPvj+0xb6>
  }
//------------------------------------------------------------------------------
  bool allocateCluster(uint32_t current, uint32_t* next);
  bool allocContiguous(uint32_t count, uint32_t* firstCluster);
  uint8_t blockOfCluster(uint32_t position) const {
    return (position >> 9) & m_clusterBlockMask;
   d6370:	f890 8005 	ldrb.w	r8, [r0, #5]
   d6374:	ea01 0808 	and.w	r8, r1, r8
    } else {
      blockOfCluster = m_vol->blockOfCluster(m_curPosition);
      if (offset == 0 && blockOfCluster == 0) {
   d6378:	f1ba 0f00 	cmp.w	sl, #0
   d637c:	d110      	bne.n	d63a0 <_ZN7FatFile4readEPvj+0xaa>
   d637e:	f1b8 0f00 	cmp.w	r8, #0
   d6382:	d10d      	bne.n	d63a0 <_ZN7FatFile4readEPvj+0xaa>
        // start of new cluster
        if (m_curPosition == 0) {
   d6384:	2b00      	cmp	r3, #0
   d6386:	d1c1      	bne.n	d630c <_ZN7FatFile4readEPvj+0x16>
          // use first cluster in file
          m_curCluster = isRoot32() ? m_vol->rootDirStart() : m_firstCluster;
   d6388:	0653      	lsls	r3, r2, #25
   d638a:	bf4c      	ite	mi
   d638c:	6a03      	ldrmi	r3, [r0, #32]
   d638e:	6a23      	ldrpl	r3, [r4, #32]
   d6390:	6123      	str	r3, [r4, #16]
   d6392:	e005      	b.n	d63a0 <_ZN7FatFile4readEPvj+0xaa>
          fg = m_vol->fatGet(m_curCluster, &m_curCluster);
          if (fg < 0) {
            DBG_FAIL_MACRO;
            goto fail;
          }
          if (fg == 0) {
   d6394:	d104      	bne.n	d63a0 <_ZN7FatFile4readEPvj+0xaa>
            if (isDir()) {
   d6396:	7823      	ldrb	r3, [r4, #0]
   d6398:	f013 0f70 	tst.w	r3, #112	; 0x70
   d639c:	d111      	bne.n	d63c2 <_ZN7FatFile4readEPvj+0xcc>
   d639e:	e7bb      	b.n	d6318 <_ZN7FatFile4readEPvj+0x22>
            DBG_FAIL_MACRO;
            goto fail;
          }
        }
      }
      block = m_vol->clusterFirstBlock(m_curCluster) + blockOfCluster;
   d63a0:	6921      	ldr	r1, [r4, #16]
   d63a2:	68a0      	ldr	r0, [r4, #8]
   d63a4:	f000 fafb 	bl	d699e <_ZNK9FatVolume17clusterFirstBlockEm>
   d63a8:	eb08 0100 	add.w	r1, r8, r0
   d63ac:	68a0      	ldr	r0, [r4, #8]
    }
    if (offset != 0 || toRead < 512 || block == m_vol->cacheBlockNumber()) {
   d63ae:	f1ba 0f00 	cmp.w	sl, #0
   d63b2:	d135      	bne.n	d6420 <_ZN7FatFile4readEPvj+0x12a>
   d63b4:	f5b6 7f00 	cmp.w	r6, #512	; 0x200
   d63b8:	d332      	bcc.n	d6420 <_ZN7FatFile4readEPvj+0x12a>
   d63ba:	6ac3      	ldr	r3, [r0, #44]	; 0x2c
   d63bc:	4299      	cmp	r1, r3
   d63be:	d102      	bne.n	d63c6 <_ZN7FatFile4readEPvj+0xd0>
   d63c0:	e02e      	b.n	d6420 <_ZN7FatFile4readEPvj+0x12a>
    }
    dst += n;
    m_curPosition += n;
    toRead -= n;
  }
  return nbyte - toRead;
   d63c2:	1ba8      	subs	r0, r5, r6
   d63c4:	e047      	b.n	d6456 <_ZN7FatFile4readEPvj+0x160>
        goto fail;
      }
      uint8_t* src = pc->data + offset;
      memcpy(dst, src, n);
#if USE_MULTI_BLOCK_IO
    } else if (toRead >= 1024) {
   d63c6:	f5b6 6f80 	cmp.w	r6, #1024	; 0x400
   d63ca:	d31b      	bcc.n	d6404 <_ZN7FatFile4readEPvj+0x10e>
      size_t nb = toRead >> 9;
      if (!isRootFixed()) {
   d63cc:	7822      	ldrb	r2, [r4, #0]
   d63ce:	0697      	lsls	r7, r2, #26
      }
      uint8_t* src = pc->data + offset;
      memcpy(dst, src, n);
#if USE_MULTI_BLOCK_IO
    } else if (toRead >= 1024) {
      size_t nb = toRead >> 9;
   d63d0:	ea4f 2a56 	mov.w	sl, r6, lsr #9
      if (!isRootFixed()) {
   d63d4:	d406      	bmi.n	d63e4 <_ZN7FatFile4readEPvj+0xee>
        uint8_t mb = m_vol->blocksPerCluster() - blockOfCluster;
        if (mb < nb) {
   d63d6:	7902      	ldrb	r2, [r0, #4]
   d63d8:	ebc8 0202 	rsb	r2, r8, r2
   d63dc:	b2d2      	uxtb	r2, r2
   d63de:	4592      	cmp	sl, r2
   d63e0:	bf28      	it	cs
   d63e2:	4692      	movcs	sl, r2
          nb = mb;
        }
      }
      n = 512*nb;
      if (m_vol->cacheBlockNumber() <= block
          && block < (m_vol->cacheBlockNumber() + nb)) {
   d63e4:	4299      	cmp	r1, r3
        uint8_t mb = m_vol->blocksPerCluster() - blockOfCluster;
        if (mb < nb) {
          nb = mb;
        }
      }
      n = 512*nb;
   d63e6:	ea4f 274a 	mov.w	r7, sl, lsl #9
      if (m_vol->cacheBlockNumber() <= block
          && block < (m_vol->cacheBlockNumber() + nb)) {
   d63ea:	d207      	bcs.n	d63fc <_ZN7FatFile4readEPvj+0x106>
   d63ec:	68a0      	ldr	r0, [r4, #8]
  bool writeBlock(uint32_t block, const uint8_t* src) {
    return m_blockDev->writeBlock(block, src);
  }
#if USE_MULTI_BLOCK_IO
  bool readBlocks(uint32_t block, uint8_t* dst, size_t nb) {
    return m_blockDev->readBlocks(block, dst, nb);
   d63ee:	4653      	mov	r3, sl
   d63f0:	464a      	mov	r2, r9
   d63f2:	6800      	ldr	r0, [r0, #0]
   d63f4:	f000 fdea 	bl	d6fcc <_ZN9SdSpiCard10readBlocksEmPhj>
        if (!m_vol->cacheSyncData()) {
          DBG_FAIL_MACRO;
          goto fail;
        }
      }
      if (!m_vol->readBlocks(block, dst, nb)) {
   d63f8:	b960      	cbnz	r0, d6414 <_ZN7FatFile4readEPvj+0x11e>
   d63fa:	e78d      	b.n	d6318 <_ZN7FatFile4readEPvj+0x22>
          nb = mb;
        }
      }
      n = 512*nb;
      if (m_vol->cacheBlockNumber() <= block
          && block < (m_vol->cacheBlockNumber() + nb)) {
   d63fc:	4453      	add	r3, sl
   d63fe:	4299      	cmp	r1, r3
   d6400:	d321      	bcc.n	d6446 <_ZN7FatFile4readEPvj+0x150>
   d6402:	e7f3      	b.n	d63ec <_ZN7FatFile4readEPvj+0xf6>
  uint32_t m_lastCluster;          // Last cluster number in FAT.
  uint32_t m_rootDirStart;         // Start block for FAT16, cluster for FAT32.
//------------------------------------------------------------------------------
  // block I/O functions.
  bool readBlock(uint32_t block, uint8_t* dst) {
    return m_blockDev->readBlock(block, dst);
   d6404:	464a      	mov	r2, r9
   d6406:	6800      	ldr	r0, [r0, #0]
   d6408:	f000 fd98 	bl	d6f3c <_ZN9SdSpiCard9readBlockEmPh>
      }
#endif  // USE_MULTI_BLOCK_IO
    } else {
      // read single block
      n = 512;
      if (!m_vol->readBlock(block, dst)) {
   d640c:	2800      	cmp	r0, #0
   d640e:	d083      	beq.n	d6318 <_ZN7FatFile4readEPvj+0x22>
        goto fail;
      }
#endif  // USE_MULTI_BLOCK_IO
    } else {
      // read single block
      n = 512;
   d6410:	f44f 7700 	mov.w	r7, #512	; 0x200
        DBG_FAIL_MACRO;
        goto fail;
      }
    }
    dst += n;
    m_curPosition += n;
   d6414:	6963      	ldr	r3, [r4, #20]
   d6416:	443b      	add	r3, r7
      if (!m_vol->readBlock(block, dst)) {
        DBG_FAIL_MACRO;
        goto fail;
      }
    }
    dst += n;
   d6418:	44b9      	add	r9, r7
    m_curPosition += n;
   d641a:	6163      	str	r3, [r4, #20]
    toRead -= n;
   d641c:	1bf6      	subs	r6, r6, r7
    if (nbyte > tmp16) {
      nbyte = tmp16;
    }
  }
  toRead = nbyte;
  while (toRead) {
   d641e:	e798      	b.n	d6352 <_ZN7FatFile4readEPvj+0x5c>
  bool cacheSync() {
    return m_cache.sync() && syncBlocks();
  }
#endif  // USE_SEPARATE_FAT_CACHE
  cache_t* cacheFetchData(uint32_t blockNumber, uint8_t options) {
    return m_cache.read(blockNumber, options);
   d6420:	2200      	movs	r2, #0
   d6422:	3024      	adds	r0, #36	; 0x24
   d6424:	f000 fa97 	bl	d6956 <_ZN8FatCache4readEmh>
      if (n > toRead) {
        n = toRead;
      }
      // read block to cache and copy data to caller
      pc = m_vol->cacheFetchData(block, FatCache::CACHE_FOR_READ);
      if (!pc) {
   d6428:	2800      	cmp	r0, #0
   d642a:	f43f af75 	beq.w	d6318 <_ZN7FatFile4readEPvj+0x22>
      }
      block = m_vol->clusterFirstBlock(m_curCluster) + blockOfCluster;
    }
    if (offset != 0 || toRead < 512 || block == m_vol->cacheBlockNumber()) {
      // amount to be read from current block
      n = 512 - offset;
   d642e:	f5ca 7700 	rsb	r7, sl, #512	; 0x200
   d6432:	42b7      	cmp	r7, r6
   d6434:	bf28      	it	cs
   d6436:	4637      	movcs	r7, r6
      if (!pc) {
        DBG_FAIL_MACRO;
        goto fail;
      }
      uint8_t* src = pc->data + offset;
      memcpy(dst, src, n);
   d6438:	eb00 010a 	add.w	r1, r0, sl
   d643c:	463a      	mov	r2, r7
   d643e:	4648      	mov	r0, r9
   d6440:	f003 f9e1 	bl	d9806 <memcpy>
   d6444:	e7e6      	b.n	d6414 <_ZN7FatFile4readEPvj+0x11e>
  }
  void cacheInvalidate() {
    m_cache.invalidate();
  }
  bool cacheSyncData() {
    return m_cache.sync();
   d6446:	3024      	adds	r0, #36	; 0x24
   d6448:	9101      	str	r1, [sp, #4]
   d644a:	f000 fa5d 	bl	d6908 <_ZN8FatCache4syncEv>
      }
      n = 512*nb;
      if (m_vol->cacheBlockNumber() <= block
          && block < (m_vol->cacheBlockNumber() + nb)) {
        // flush cache if a block is in the cache
        if (!m_vol->cacheSyncData()) {
   d644e:	9901      	ldr	r1, [sp, #4]
   d6450:	2800      	cmp	r0, #0
   d6452:	d1cb      	bne.n	d63ec <_ZN7FatFile4readEPvj+0xf6>
   d6454:	e760      	b.n	d6318 <_ZN7FatFile4readEPvj+0x22>
  return nbyte - toRead;

fail:
  m_error |= READ_ERROR;
  return -1;
}
   d6456:	b003      	add	sp, #12
   d6458:	e8bd 8ff0 	ldmia.w	sp!, {r4, r5, r6, r7, r8, r9, sl, fp, pc}

000d645c <_ZN7FatFile4peekEv>:

fail:
  return false;
}
//------------------------------------------------------------------------------
int FatFile::peek() {
   d645c:	b573      	push	{r0, r1, r4, r5, r6, lr}
   * \return For success read returns the next byte in the file as an int.
   * If an error occurs or end of file is reached -1 is returned.
   */
  int read() {
    uint8_t b;
    return read(&b, 1) == 1 ? b : -1;
   d645e:	2201      	movs	r2, #1
   d6460:	f10d 0107 	add.w	r1, sp, #7
   d6464:	4604      	mov	r4, r0
  str[n] = '\0';
  return n;
}
//------------------------------------------------------------------------------
void FatFile::getpos(FatPos_t* pos) {
  pos->position = m_curPosition;
   d6466:	6946      	ldr	r6, [r0, #20]
  pos->cluster = m_curCluster;
   d6468:	6905      	ldr	r5, [r0, #16]
   d646a:	f7ff ff44 	bl	d62f6 <_ZN7FatFile4readEPvj>
   d646e:	2801      	cmp	r0, #1
   d6470:	bf05      	ittet	eq
   d6472:	f89d 0007 	ldrbeq.w	r0, [sp, #7]
  m_curCluster = tmp;
  return false;
}
//------------------------------------------------------------------------------
void FatFile::setpos(FatPos_t* pos) {
  m_curPosition = pos->position;
   d6476:	6166      	streq	r6, [r4, #20]
   d6478:	f04f 30ff 	movne.w	r0, #4294967295
  m_curCluster = pos->cluster;
   d647c:	6125      	streq	r5, [r4, #16]
  int c = read();
  if (c >= 0) {
    setpos(&pos);
  }
  return c;
}
   d647e:	b002      	add	sp, #8
   d6480:	bd70      	pop	{r4, r5, r6, pc}

000d6482 <_ZN7FatFile12readDirCacheEb>:
  }
}
//------------------------------------------------------------------------------
// Read next directory entry into the cache
// Assumes file is correctly positioned
dir_t* FatFile::readDirCache(bool skipReadOk) {
   d6482:	b537      	push	{r0, r1, r2, r4, r5, lr}
//  uint8_t b;
  uint8_t i = (m_curPosition >> 5) & 0XF;
   d6484:	6943      	ldr	r3, [r0, #20]
   d6486:	f3c3 1543 	ubfx	r5, r3, #5, #4
  }
}
//------------------------------------------------------------------------------
// Read next directory entry into the cache
// Assumes file is correctly positioned
dir_t* FatFile::readDirCache(bool skipReadOk) {
   d648a:	4604      	mov	r4, r0
//  uint8_t b;
  uint8_t i = (m_curPosition >> 5) & 0XF;

  if (i == 0 || !skipReadOk) {
   d648c:	b105      	cbz	r5, d6490 <_ZN7FatFile12readDirCacheEb+0xe>
   d648e:	b969      	cbnz	r1, d64ac <_ZN7FatFile12readDirCacheEb+0x2a>
    int8_t n = read(&n, 1);
   d6490:	2201      	movs	r2, #1
   d6492:	f10d 0107 	add.w	r1, sp, #7
   d6496:	4620      	mov	r0, r4
   d6498:	f7ff ff2d 	bl	d62f6 <_ZN7FatFile4readEPvj>
   d649c:	b240      	sxtb	r0, r0
    if  (n != 1) {
   d649e:	2801      	cmp	r0, #1
   d64a0:	d001      	beq.n	d64a6 <_ZN7FatFile12readDirCacheEb+0x24>
  }
  // return pointer to entry
  return m_vol->cacheAddress()->dir + i;

fail:
  return 0;
   d64a2:	2000      	movs	r0, #0
   d64a4:	e008      	b.n	d64b8 <_ZN7FatFile12readDirCacheEb+0x36>
      if (n != 0) {
        DBG_FAIL_MACRO;
      }
      goto fail;
    }
    m_curPosition += 31;
   d64a6:	6963      	ldr	r3, [r4, #20]
   d64a8:	331f      	adds	r3, #31
   d64aa:	e000      	b.n	d64ae <_ZN7FatFile12readDirCacheEb+0x2c>
  } else {
    m_curPosition += 32;
   d64ac:	3320      	adds	r3, #32
  }
  // return pointer to entry
  return m_vol->cacheAddress()->dir + i;
   d64ae:	68a0      	ldr	r0, [r4, #8]
      }
      goto fail;
    }
    m_curPosition += 31;
  } else {
    m_curPosition += 32;
   d64b0:	6163      	str	r3, [r4, #20]
  }
  // return pointer to entry
  return m_vol->cacheAddress()->dir + i;
   d64b2:	3030      	adds	r0, #48	; 0x30
   d64b4:	eb00 1045 	add.w	r0, r0, r5, lsl #5

fail:
  return 0;
}
   d64b8:	b003      	add	sp, #12
   d64ba:	bd30      	pop	{r4, r5, pc}

000d64bc <_ZN7FatFile7seekSetEm>:

fail:
  return false;
}
//------------------------------------------------------------------------------
bool FatFile::seekSet(uint32_t pos) {
   d64bc:	e92d 41f0 	stmdb	sp!, {r4, r5, r6, r7, r8, lr}
   d64c0:	460e      	mov	r6, r1
   d64c2:	7801      	ldrb	r1, [r0, #0]
  uint32_t nCur;
  uint32_t nNew;
  uint32_t tmp = m_curCluster;
   d64c4:	6907      	ldr	r7, [r0, #16]

fail:
  return false;
}
//------------------------------------------------------------------------------
bool FatFile::seekSet(uint32_t pos) {
   d64c6:	4604      	mov	r4, r0
  uint32_t nCur;
  uint32_t nNew;
  uint32_t tmp = m_curCluster;
  // error if file not open
  if (!isOpen()) {
   d64c8:	2900      	cmp	r1, #0
   d64ca:	d039      	beq.n	d6540 <_ZN7FatFile7seekSetEm+0x84>
    DBG_FAIL_MACRO;
    goto fail;
  }
  // Optimize O_APPEND writes.
  if (pos == m_curPosition) {
   d64cc:	6945      	ldr	r5, [r0, #20]
   d64ce:	42b5      	cmp	r5, r6
   d64d0:	d03a      	beq.n	d6548 <_ZN7FatFile7seekSetEm+0x8c>
    return true;
  }
  if (pos == 0) {
   d64d2:	b90e      	cbnz	r6, d64d8 <_ZN7FatFile7seekSetEm+0x1c>
    // set position to start of file
    m_curCluster = 0;
   d64d4:	6106      	str	r6, [r0, #16]
    goto done;
   d64d6:	e031      	b.n	d653c <_ZN7FatFile7seekSetEm+0x80>
  }
  if (isFile()) {
   d64d8:	070b      	lsls	r3, r1, #28
   d64da:	d503      	bpl.n	d64e4 <_ZN7FatFile7seekSetEm+0x28>
    if (pos > m_fileSize) {
   d64dc:	69c3      	ldr	r3, [r0, #28]
   d64de:	429e      	cmp	r6, r3
   d64e0:	d82e      	bhi.n	d6540 <_ZN7FatFile7seekSetEm+0x84>
   d64e2:	e007      	b.n	d64f4 <_ZN7FatFile7seekSetEm+0x38>
      DBG_FAIL_MACRO;
      goto fail;
    }
  } else if (isRootFixed()) {
   d64e4:	0688      	lsls	r0, r1, #26
   d64e6:	d505      	bpl.n	d64f4 <_ZN7FatFile7seekSetEm+0x38>
   d64e8:	68a3      	ldr	r3, [r4, #8]
    if (pos <= 32*m_vol->rootDirEntryCount()) {
   d64ea:	891b      	ldrh	r3, [r3, #8]
   d64ec:	ebb6 1f43 	cmp.w	r6, r3, lsl #5
   d64f0:	d826      	bhi.n	d6540 <_ZN7FatFile7seekSetEm+0x84>
   d64f2:	e023      	b.n	d653c <_ZN7FatFile7seekSetEm+0x80>
    }
    DBG_FAIL_MACRO;
    goto fail;
  }
  // calculate cluster index for cur and new position
  nCur = (m_curPosition - 1) >> (m_vol->clusterSizeShift() + 9);
   d64f4:	f8d4 e008 	ldr.w	lr, [r4, #8]
   d64f8:	f89e 3006 	ldrb.w	r3, [lr, #6]
   d64fc:	1e6a      	subs	r2, r5, #1
   d64fe:	f103 0009 	add.w	r0, r3, #9
  nNew = (pos - 1) >> (m_vol->clusterSizeShift() + 9);
   d6502:	1e73      	subs	r3, r6, #1
    }
    DBG_FAIL_MACRO;
    goto fail;
  }
  // calculate cluster index for cur and new position
  nCur = (m_curPosition - 1) >> (m_vol->clusterSizeShift() + 9);
   d6504:	40c2      	lsrs	r2, r0
  nNew = (pos - 1) >> (m_vol->clusterSizeShift() + 9);
   d6506:	40c3      	lsrs	r3, r0

  if (nNew < nCur || m_curPosition == 0) {
   d6508:	429a      	cmp	r2, r3
   d650a:	d800      	bhi.n	d650e <_ZN7FatFile7seekSetEm+0x52>
   d650c:	b94d      	cbnz	r5, d6522 <_ZN7FatFile7seekSetEm+0x66>
    // must follow chain from first cluster
    m_curCluster = isRoot32() ? m_vol->rootDirStart() : m_firstCluster;
   d650e:	064a      	lsls	r2, r1, #25
   d6510:	bf4c      	ite	mi
   d6512:	f8de 2020 	ldrmi.w	r2, [lr, #32]
   d6516:	6a22      	ldrpl	r2, [r4, #32]
   d6518:	6122      	str	r2, [r4, #16]
   d651a:	461d      	mov	r5, r3
  } else {
    // advance from curPosition
    nNew -= nCur;
  }
  while (nNew--) {
    if (m_vol->fatGet(m_curCluster, &m_curCluster) <= 0) {
   d651c:	f104 0810 	add.w	r8, r4, #16
   d6520:	e00a      	b.n	d6538 <_ZN7FatFile7seekSetEm+0x7c>
  if (nNew < nCur || m_curPosition == 0) {
    // must follow chain from first cluster
    m_curCluster = isRoot32() ? m_vol->rootDirStart() : m_firstCluster;
  } else {
    // advance from curPosition
    nNew -= nCur;
   d6522:	1a9b      	subs	r3, r3, r2
   d6524:	e7f9      	b.n	d651a <_ZN7FatFile7seekSetEm+0x5e>
  }
  while (nNew--) {
    if (m_vol->fatGet(m_curCluster, &m_curCluster) <= 0) {
   d6526:	4642      	mov	r2, r8
   d6528:	6921      	ldr	r1, [r4, #16]
   d652a:	68a0      	ldr	r0, [r4, #8]
   d652c:	f000 fa3d 	bl	d69aa <_ZN9FatVolume6fatGetEmPm>
   d6530:	2800      	cmp	r0, #0
   d6532:	f105 35ff 	add.w	r5, r5, #4294967295
   d6536:	dd03      	ble.n	d6540 <_ZN7FatFile7seekSetEm+0x84>
    m_curCluster = isRoot32() ? m_vol->rootDirStart() : m_firstCluster;
  } else {
    // advance from curPosition
    nNew -= nCur;
  }
  while (nNew--) {
   d6538:	2d00      	cmp	r5, #0
   d653a:	d1f4      	bne.n	d6526 <_ZN7FatFile7seekSetEm+0x6a>
      goto fail;
    }
  }

done:
  m_curPosition = pos;
   d653c:	6166      	str	r6, [r4, #20]
   d653e:	e003      	b.n	d6548 <_ZN7FatFile7seekSetEm+0x8c>
  return true;

fail:
  m_curCluster = tmp;
   d6540:	6127      	str	r7, [r4, #16]
  return false;
   d6542:	2000      	movs	r0, #0
   d6544:	e8bd 81f0 	ldmia.w	sp!, {r4, r5, r6, r7, r8, pc}
    DBG_FAIL_MACRO;
    goto fail;
  }
  // Optimize O_APPEND writes.
  if (pos == m_curPosition) {
    return true;
   d6548:	2001      	movs	r0, #1
  return true;

fail:
  m_curCluster = tmp;
  return false;
}
   d654a:	e8bd 81f0 	ldmia.w	sp!, {r4, r5, r6, r7, r8, pc}

000d654e <_ZN7FatFile15openCachedEntryEPS_tih>:
}
//------------------------------------------------------------------------------
// open a cached directory entry.

bool FatFile::openCachedEntry(FatFile* dirFile, uint16_t dirIndex,
                              oflag_t oflag, uint8_t lfnOrd) {
   d654e:	b5f8      	push	{r3, r4, r5, r6, r7, lr}
   d6550:	460f      	mov	r7, r1
   d6552:	4615      	mov	r5, r2
  uint32_t firstCluster;
  memset(this, 0, sizeof(FatFile));
   d6554:	2100      	movs	r1, #0
   d6556:	2224      	movs	r2, #36	; 0x24
}
//------------------------------------------------------------------------------
// open a cached directory entry.

bool FatFile::openCachedEntry(FatFile* dirFile, uint16_t dirIndex,
                              oflag_t oflag, uint8_t lfnOrd) {
   d6558:	4604      	mov	r4, r0
   d655a:	461e      	mov	r6, r3
  uint32_t firstCluster;
  memset(this, 0, sizeof(FatFile));
   d655c:	f003 f95e 	bl	d981c <memset>
  // location of entry in cache
  m_vol = dirFile->m_vol;
   d6560:	68b8      	ldr	r0, [r7, #8]
   d6562:	60a0      	str	r0, [r4, #8]
  m_dirIndex = dirIndex;
  m_dirCluster = dirFile->m_firstCluster;
  dir_t* dir = &m_vol->cacheAddress()->dir[0XF & dirIndex];
   d6564:	f005 020f 	and.w	r2, r5, #15
                              oflag_t oflag, uint8_t lfnOrd) {
  uint32_t firstCluster;
  memset(this, 0, sizeof(FatFile));
  // location of entry in cache
  m_vol = dirFile->m_vol;
  m_dirIndex = dirIndex;
   d6568:	80a5      	strh	r5, [r4, #4]
  m_dirCluster = dirFile->m_firstCluster;
  dir_t* dir = &m_vol->cacheAddress()->dir[0XF & dirIndex];
   d656a:	f100 0130 	add.w	r1, r0, #48	; 0x30
   d656e:	0152      	lsls	r2, r2, #5
  uint32_t firstCluster;
  memset(this, 0, sizeof(FatFile));
  // location of entry in cache
  m_vol = dirFile->m_vol;
  m_dirIndex = dirIndex;
  m_dirCluster = dirFile->m_firstCluster;
   d6570:	6a3b      	ldr	r3, [r7, #32]
   d6572:	60e3      	str	r3, [r4, #12]
  dir_t* dir = &m_vol->cacheAddress()->dir[0XF & dirIndex];
   d6574:	4411      	add	r1, r2

  // Must be file or subdirectory.
  if (!DIR_IS_FILE_OR_SUBDIR(dir)) {
   d6576:	7acb      	ldrb	r3, [r1, #11]
   d6578:	071d      	lsls	r5, r3, #28
   d657a:	d44c      	bmi.n	d6616 <_ZN7FatFile15openCachedEntryEPS_tih+0xc8>
    DBG_FAIL_MACRO;
    goto fail;
  }
  m_attr = dir->attributes & FILE_ATTR_COPY;
   d657c:	1883      	adds	r3, r0, r2
   d657e:	f893 303b 	ldrb.w	r3, [r3, #59]	; 0x3b
   d6582:	f003 0317 	and.w	r3, r3, #23
   d6586:	7023      	strb	r3, [r4, #0]
  if (DIR_IS_FILE(dir)) {
   d6588:	7ac9      	ldrb	r1, [r1, #11]
   d658a:	f011 0f18 	tst.w	r1, #24
    m_attr |= FILE_ATTR_FILE;
   d658e:	bf04      	itt	eq
   d6590:	f043 0308 	orreq.w	r3, r3, #8
   d6594:	7023      	strbeq	r3, [r4, #0]
  }
  m_lfnOrd = lfnOrd;
   d6596:	f89d 3018 	ldrb.w	r3, [sp, #24]
   d659a:	70e3      	strb	r3, [r4, #3]

  switch (oflag & O_ACCMODE) {
   d659c:	f006 0303 	and.w	r3, r6, #3
   d65a0:	2b01      	cmp	r3, #1
   d65a2:	d009      	beq.n	d65b8 <_ZN7FatFile15openCachedEntryEPS_tih+0x6a>
   d65a4:	2b02      	cmp	r3, #2
   d65a6:	d005      	beq.n	d65b4 <_ZN7FatFile15openCachedEntryEPS_tih+0x66>
   d65a8:	2b00      	cmp	r3, #0
   d65aa:	d134      	bne.n	d6616 <_ZN7FatFile15openCachedEntryEPS_tih+0xc8>
    case O_RDONLY:
      if (oflag & O_TRUNC) {
   d65ac:	0571      	lsls	r1, r6, #21
   d65ae:	d432      	bmi.n	d6616 <_ZN7FatFile15openCachedEntryEPS_tih+0xc8>
        DBG_FAIL_MACRO;
        goto fail;
      }
      m_flags = F_READ;
   d65b0:	2301      	movs	r3, #1
   d65b2:	e002      	b.n	d65ba <_ZN7FatFile15openCachedEntryEPS_tih+0x6c>
      break;

    case O_RDWR:
      m_flags = F_READ | F_WRITE;
   d65b4:	2303      	movs	r3, #3
   d65b6:	e000      	b.n	d65ba <_ZN7FatFile15openCachedEntryEPS_tih+0x6c>
      break;

    case O_WRONLY:
      m_flags = F_WRITE;
   d65b8:	2302      	movs	r3, #2
   d65ba:	70a3      	strb	r3, [r4, #2]
    default:
      DBG_FAIL_MACRO;
      goto fail;
  }

  if (m_flags & F_WRITE) {
   d65bc:	78a1      	ldrb	r1, [r4, #2]
   d65be:	078b      	lsls	r3, r1, #30
   d65c0:	d503      	bpl.n	d65ca <_ZN7FatFile15openCachedEntryEPS_tih+0x7c>
    if (isSubDir() || isReadOnly()) {
   d65c2:	7823      	ldrb	r3, [r4, #0]
   d65c4:	f013 0f11 	tst.w	r3, #17
   d65c8:	d125      	bne.n	d6616 <_ZN7FatFile15openCachedEntryEPS_tih+0xc8>
      DBG_FAIL_MACRO;
      goto fail;
    }
  }

  m_flags |= (oflag & O_APPEND ? F_APPEND : 0) | (oflag & O_SYNC ? F_SYNC : 0);
   d65ca:	b24b      	sxtb	r3, r1
   d65cc:	f416 5f00 	tst.w	r6, #8192	; 0x2000
   d65d0:	f006 0108 	and.w	r1, r6, #8
   d65d4:	bf14      	ite	ne
   d65d6:	f06f 077f 	mvnne.w	r7, #127	; 0x7f
   d65da:	2700      	moveq	r7, #0
   d65dc:	4319      	orrs	r1, r3
   d65de:	4339      	orrs	r1, r7
   d65e0:	70a1      	strb	r1, [r4, #2]
   d65e2:	6ac3      	ldr	r3, [r0, #44]	; 0x2c

  m_dirBlock = m_vol->cacheBlockNumber();
   d65e4:	61a3      	str	r3, [r4, #24]

  // copy first cluster number for directory fields
  firstCluster = ((uint32_t)dir->firstClusterHigh << 16)
   d65e6:	4402      	add	r2, r0
                 | dir->firstClusterLow;

  if (oflag & O_TRUNC) {
   d65e8:	0575      	lsls	r5, r6, #21

  m_dirBlock = m_vol->cacheBlockNumber();

  // copy first cluster number for directory fields
  firstCluster = ((uint32_t)dir->firstClusterHigh << 16)
                 | dir->firstClusterLow;
   d65ea:	f8b2 1044 	ldrh.w	r1, [r2, #68]	; 0x44
   d65ee:	f8b2 304a 	ldrh.w	r3, [r2, #74]	; 0x4a
   d65f2:	ea43 4101 	orr.w	r1, r3, r1, lsl #16

  if (oflag & O_TRUNC) {
   d65f6:	d504      	bpl.n	d6602 <_ZN7FatFile15openCachedEntryEPS_tih+0xb4>
    if (firstCluster && !m_vol->freeChain(firstCluster)) {
   d65f8:	b181      	cbz	r1, d661c <_ZN7FatFile15openCachedEntryEPS_tih+0xce>
   d65fa:	f000 fa76 	bl	d6aea <_ZN9FatVolume9freeChainEm>
   d65fe:	b968      	cbnz	r0, d661c <_ZN7FatFile15openCachedEntryEPS_tih+0xce>
   d6600:	e009      	b.n	d6616 <_ZN7FatFile15openCachedEntryEPS_tih+0xc8>
      goto fail;
    }
    // need to update directory entry
    m_flags |= F_FILE_DIR_DIRTY;
  } else {
    m_firstCluster = firstCluster;
   d6602:	6221      	str	r1, [r4, #32]
    m_fileSize = dir->fileSize;
   d6604:	6cd3      	ldr	r3, [r2, #76]	; 0x4c
   d6606:	61e3      	str	r3, [r4, #28]
  }
  if ((oflag & O_AT_END) && !seekSet(m_fileSize)) {
   d6608:	0473      	lsls	r3, r6, #17
   d660a:	d50c      	bpl.n	d6626 <_ZN7FatFile15openCachedEntryEPS_tih+0xd8>
   d660c:	69e1      	ldr	r1, [r4, #28]
   d660e:	4620      	mov	r0, r4
   d6610:	f7ff ff54 	bl	d64bc <_ZN7FatFile7seekSetEm>
   d6614:	b938      	cbnz	r0, d6626 <_ZN7FatFile15openCachedEntryEPS_tih+0xd8>
    goto fail;
  }
  return true;

fail:
  m_attr = FILE_ATTR_CLOSED;
   d6616:	2000      	movs	r0, #0
   d6618:	7020      	strb	r0, [r4, #0]
  return false;
   d661a:	bdf8      	pop	{r3, r4, r5, r6, r7, pc}
    if (firstCluster && !m_vol->freeChain(firstCluster)) {
      DBG_FAIL_MACRO;
      goto fail;
    }
    // need to update directory entry
    m_flags |= F_FILE_DIR_DIRTY;
   d661c:	78a3      	ldrb	r3, [r4, #2]
   d661e:	f043 0304 	orr.w	r3, r3, #4
   d6622:	70a3      	strb	r3, [r4, #2]
   d6624:	e7f0      	b.n	d6608 <_ZN7FatFile15openCachedEntryEPS_tih+0xba>
  }
  if ((oflag & O_AT_END) && !seekSet(m_fileSize)) {
    DBG_FAIL_MACRO;
    goto fail;
  }
  return true;
   d6626:	2001      	movs	r0, #1

fail:
  m_attr = FILE_ATTR_CLOSED;
  return false;
}
   d6628:	bdf8      	pop	{r3, r4, r5, r6, r7, pc}
	...

000d662c <_ZN7FatFile4syncEv>:
void FatFile::setpos(FatPos_t* pos) {
  m_curPosition = pos->position;
  m_curCluster = pos->cluster;
}
//------------------------------------------------------------------------------
bool FatFile::sync() {
   d662c:	b538      	push	{r3, r4, r5, lr}
  if (!isOpen()) {
   d662e:	7803      	ldrb	r3, [r0, #0]
void FatFile::setpos(FatPos_t* pos) {
  m_curPosition = pos->position;
  m_curCluster = pos->cluster;
}
//------------------------------------------------------------------------------
bool FatFile::sync() {
   d6630:	4604      	mov	r4, r0
  if (!isOpen()) {
   d6632:	b90b      	cbnz	r3, d6638 <_ZN7FatFile4syncEv+0xc>
    return true;
   d6634:	2001      	movs	r0, #1
   d6636:	bd38      	pop	{r3, r4, r5, pc}
  }
  if (m_flags & F_FILE_DIR_DIRTY) {
   d6638:	7883      	ldrb	r3, [r0, #2]
   d663a:	075a      	lsls	r2, r3, #29
   d663c:	d523      	bpl.n	d6686 <_ZN7FatFile4syncEv+0x5a>
    dir_t* dir = cacheDirEntry(FatCache::CACHE_FOR_WRITE);
   d663e:	2101      	movs	r1, #1
   d6640:	f7ff fe32 	bl	d62a8 <_ZN7FatFile13cacheDirEntryEh>
    // check for deleted by another open file object
    if (!dir || dir->name[0] == DIR_NAME_DELETED) {
   d6644:	4605      	mov	r5, r0
   d6646:	b928      	cbnz	r0, d6654 <_ZN7FatFile4syncEv+0x28>
    return true;
  }
  DBG_FAIL_MACRO;

fail:
  m_error |= WRITE_ERROR;
   d6648:	7863      	ldrb	r3, [r4, #1]
   d664a:	f043 0301 	orr.w	r3, r3, #1
   d664e:	7063      	strb	r3, [r4, #1]
  return false;
   d6650:	2000      	movs	r0, #0
   d6652:	bd38      	pop	{r3, r4, r5, pc}
    return true;
  }
  if (m_flags & F_FILE_DIR_DIRTY) {
    dir_t* dir = cacheDirEntry(FatCache::CACHE_FOR_WRITE);
    // check for deleted by another open file object
    if (!dir || dir->name[0] == DIR_NAME_DELETED) {
   d6654:	7803      	ldrb	r3, [r0, #0]
   d6656:	2be5      	cmp	r3, #229	; 0xe5
   d6658:	d0f6      	beq.n	d6648 <_ZN7FatFile4syncEv+0x1c>
      DBG_FAIL_MACRO;
      goto fail;
    }
    // do not set filesize for dir files
    if (isFile()) {
   d665a:	7823      	ldrb	r3, [r4, #0]
   d665c:	071b      	lsls	r3, r3, #28
      dir->fileSize = m_fileSize;
   d665e:	bf44      	itt	mi
   d6660:	69e3      	ldrmi	r3, [r4, #28]
   d6662:	61c3      	strmi	r3, [r0, #28]
    }

    // update first cluster fields
    dir->firstClusterLow = m_firstCluster & 0XFFFF;
   d6664:	8c23      	ldrh	r3, [r4, #32]
   d6666:	8343      	strh	r3, [r0, #26]
    dir->firstClusterHigh = m_firstCluster >> 16;
   d6668:	8c63      	ldrh	r3, [r4, #34]	; 0x22
   d666a:	8283      	strh	r3, [r0, #20]

    // set modify time if user supplied a callback date/time function
    if (m_dateTime) {
   d666c:	4b09      	ldr	r3, [pc, #36]	; (d6694 <_ZN7FatFile4syncEv+0x68>)
   d666e:	681b      	ldr	r3, [r3, #0]
   d6670:	b12b      	cbz	r3, d667e <_ZN7FatFile4syncEv+0x52>
      m_dateTime(&dir->lastWriteDate, &dir->lastWriteTime);
   d6672:	f100 0116 	add.w	r1, r0, #22
   d6676:	3018      	adds	r0, #24
   d6678:	4798      	blx	r3
      dir->lastAccessDate = dir->lastWriteDate;
   d667a:	8b2b      	ldrh	r3, [r5, #24]
   d667c:	826b      	strh	r3, [r5, #18]
    }
    // clear directory dirty
    m_flags &= ~F_FILE_DIR_DIRTY;
   d667e:	78a3      	ldrb	r3, [r4, #2]
   d6680:	f023 0304 	bic.w	r3, r3, #4
   d6684:	70a3      	strb	r3, [r4, #2]
  }
  if (m_vol->cacheSync()) {
   d6686:	68a0      	ldr	r0, [r4, #8]
   d6688:	f7ff faa9 	bl	d5bde <_ZN9FatVolume9cacheSyncEv>
   d668c:	2800      	cmp	r0, #0
   d668e:	d0db      	beq.n	d6648 <_ZN7FatFile4syncEv+0x1c>
   d6690:	e7d0      	b.n	d6634 <_ZN7FatFile4syncEv+0x8>
   d6692:	bf00      	nop
   d6694:	2003e3a0 	.word	0x2003e3a0

000d6698 <_ZN7FatFile5closeEv>:

fail:
  return 0;
}
//------------------------------------------------------------------------------
bool FatFile::close() {
   d6698:	b510      	push	{r4, lr}
   d669a:	4604      	mov	r4, r0
  bool rtn = sync();
   d669c:	f7ff ffc6 	bl	d662c <_ZN7FatFile4syncEv>
  m_attr = FILE_ATTR_CLOSED;
   d66a0:	2300      	movs	r3, #0
   d66a2:	7023      	strb	r3, [r4, #0]
  return rtn;
}
   d66a4:	bd10      	pop	{r4, pc}

000d66a6 <_ZN7FatFile4openEPS_PKci>:
//------------------------------------------------------------------------------
bool FatFile::open(FatFileSystem* fs, const char* path, oflag_t oflag) {
  return open(fs->vwd(), path, oflag);
}
//------------------------------------------------------------------------------
bool FatFile::open(FatFile* dirFile, const char* path, oflag_t oflag) {
   d66a6:	b5f0      	push	{r4, r5, r6, r7, lr}
   d66a8:	b093      	sub	sp, #76	; 0x4c
   d66aa:	461f      	mov	r7, r3
 * \brief Basic file class.
 */
class FatFile {
 public:
  /** Create an instance. */
  FatFile() : m_attr(FILE_ATTR_CLOSED), m_error(0) {}
   d66ac:	2300      	movs	r3, #0
   d66ae:	f88d 3024 	strb.w	r3, [sp, #36]	; 0x24
   d66b2:	f88d 3025 	strb.w	r3, [sp, #37]	; 0x25
  FatFile tmpDir;
  fname_t fname;

  // error if already open
  if (isOpen() || !dirFile->isDir()) {
   d66b6:	7803      	ldrb	r3, [r0, #0]
//------------------------------------------------------------------------------
bool FatFile::open(FatFileSystem* fs, const char* path, oflag_t oflag) {
  return open(fs->vwd(), path, oflag);
}
//------------------------------------------------------------------------------
bool FatFile::open(FatFile* dirFile, const char* path, oflag_t oflag) {
   d66b8:	9201      	str	r2, [sp, #4]
   d66ba:	4606      	mov	r6, r0
   d66bc:	460c      	mov	r4, r1
  FatFile tmpDir;
  fname_t fname;

  // error if already open
  if (isOpen() || !dirFile->isDir()) {
   d66be:	b10b      	cbz	r3, d66c4 <_ZN7FatFile4openEPS_PKci+0x1e>
    close();
  }
  return open(dirFile, &fname, oflag);

fail:
  return false;
   d66c0:	2000      	movs	r0, #0
   d66c2:	e03d      	b.n	d6740 <_ZN7FatFile4openEPS_PKci+0x9a>
bool FatFile::open(FatFile* dirFile, const char* path, oflag_t oflag) {
  FatFile tmpDir;
  fname_t fname;

  // error if already open
  if (isOpen() || !dirFile->isDir()) {
   d66c4:	780b      	ldrb	r3, [r1, #0]
   d66c6:	f013 0f70 	tst.w	r3, #112	; 0x70
   d66ca:	d0f9      	beq.n	d66c0 <_ZN7FatFile4openEPS_PKci+0x1a>
    DBG_FAIL_MACRO;
    goto fail;
  }
  if (isDirSeparator(*path)) {
   d66cc:	7813      	ldrb	r3, [r2, #0]
   d66ce:	2b2f      	cmp	r3, #47	; 0x2f
   d66d0:	d112      	bne.n	d66f8 <_ZN7FatFile4openEPS_PKci+0x52>
    while (isDirSeparator(*path)) {
   d66d2:	9b01      	ldr	r3, [sp, #4]
   d66d4:	781a      	ldrb	r2, [r3, #0]
   d66d6:	2a2f      	cmp	r2, #47	; 0x2f
   d66d8:	d102      	bne.n	d66e0 <_ZN7FatFile4openEPS_PKci+0x3a>
      path++;
   d66da:	3301      	adds	r3, #1
   d66dc:	9301      	str	r3, [sp, #4]
  if (isOpen() || !dirFile->isDir()) {
    DBG_FAIL_MACRO;
    goto fail;
  }
  if (isDirSeparator(*path)) {
    while (isDirSeparator(*path)) {
   d66de:	e7f8      	b.n	d66d2 <_ZN7FatFile4openEPS_PKci+0x2c>
      path++;
    }
    if (*path == 0) {
      return openRoot(dirFile->m_vol);
   d66e0:	68a1      	ldr	r1, [r4, #8]
  }
  if (isDirSeparator(*path)) {
    while (isDirSeparator(*path)) {
      path++;
    }
    if (*path == 0) {
   d66e2:	b91a      	cbnz	r2, d66ec <_ZN7FatFile4openEPS_PKci+0x46>
      return openRoot(dirFile->m_vol);
   d66e4:	4630      	mov	r0, r6
   d66e6:	f7ff fdee 	bl	d62c6 <_ZN7FatFile8openRootEP9FatVolume>
   d66ea:	e029      	b.n	d6740 <_ZN7FatFile4openEPS_PKci+0x9a>
    }
    if (!tmpDir.openRoot(dirFile->m_vol)) {
   d66ec:	a809      	add	r0, sp, #36	; 0x24
   d66ee:	f7ff fdea 	bl	d62c6 <_ZN7FatFile8openRootEP9FatVolume>
   d66f2:	2800      	cmp	r0, #0
   d66f4:	d0e4      	beq.n	d66c0 <_ZN7FatFile4openEPS_PKci+0x1a>
      DBG_FAIL_MACRO;
      goto fail;
    }
    dirFile = &tmpDir;
   d66f6:	ac09      	add	r4, sp, #36	; 0x24
  }
  while (1) {
    if (!parsePathName(path, &fname, &path)) {
   d66f8:	aa01      	add	r2, sp, #4
   d66fa:	a903      	add	r1, sp, #12
   d66fc:	9801      	ldr	r0, [sp, #4]
   d66fe:	f7ff fa8b 	bl	d5c18 <_ZN7FatFile13parsePathNameEPKcP7fname_tPS1_>
   d6702:	2800      	cmp	r0, #0
   d6704:	d0dc      	beq.n	d66c0 <_ZN7FatFile4openEPS_PKci+0x1a>
      DBG_FAIL_MACRO;
      goto fail;
    }
    if (*path == 0) {
   d6706:	9b01      	ldr	r3, [sp, #4]
   d6708:	781b      	ldrb	r3, [r3, #0]
   d670a:	b19b      	cbz	r3, d6734 <_ZN7FatFile4openEPS_PKci+0x8e>
      break;
    }
    if (!open(dirFile, &fname, O_RDONLY)) {
   d670c:	2300      	movs	r3, #0
   d670e:	aa03      	add	r2, sp, #12
   d6710:	4621      	mov	r1, r4
   d6712:	4630      	mov	r0, r6
   d6714:	f7ff fbc2 	bl	d5e9c <_ZN7FatFile4openEPS_P7fname_ti>
   d6718:	2800      	cmp	r0, #0
   d671a:	d0d1      	beq.n	d66c0 <_ZN7FatFile4openEPS_PKci+0x1a>
      DBG_FAIL_MACRO;
      goto fail;
    }
    tmpDir = *this;
   d671c:	4635      	mov	r5, r6
   d671e:	cd0f      	ldmia	r5!, {r0, r1, r2, r3}
   d6720:	ac09      	add	r4, sp, #36	; 0x24
   d6722:	c40f      	stmia	r4!, {r0, r1, r2, r3}
   d6724:	cd0f      	ldmia	r5!, {r0, r1, r2, r3}
   d6726:	c40f      	stmia	r4!, {r0, r1, r2, r3}
   d6728:	682b      	ldr	r3, [r5, #0]
   d672a:	6023      	str	r3, [r4, #0]
    dirFile = &tmpDir;
    close();
   d672c:	4630      	mov	r0, r6
   d672e:	f7ff ffb3 	bl	d6698 <_ZN7FatFile5closeEv>
   d6732:	e7e0      	b.n	d66f6 <_ZN7FatFile4openEPS_PKci+0x50>
  }
  return open(dirFile, &fname, oflag);
   d6734:	463b      	mov	r3, r7
   d6736:	aa03      	add	r2, sp, #12
   d6738:	4621      	mov	r1, r4
   d673a:	4630      	mov	r0, r6
   d673c:	f7ff fbae 	bl	d5e9c <_ZN7FatFile4openEPS_P7fname_ti>

fail:
  return false;
}
   d6740:	b013      	add	sp, #76	; 0x4c
   d6742:	bdf0      	pop	{r4, r5, r6, r7, pc}

000d6744 <_ZN7FatFile5writeEPKvj>:

fail:
  return false;
}
//------------------------------------------------------------------------------
int FatFile::write(const void* buf, size_t nbyte) {
   d6744:	e92d 47f0 	stmdb	sp!, {r4, r5, r6, r7, r8, r9, sl, lr}
  uint8_t cacheOption;
  // number of bytes left to write  -  must be before goto statements
  size_t nToWrite = nbyte;
  size_t n;
  // error if not a normal file or is read-only
  if (!isFile() || !(m_flags & F_WRITE)) {
   d6748:	7803      	ldrb	r3, [r0, #0]

fail:
  return false;
}
//------------------------------------------------------------------------------
int FatFile::write(const void* buf, size_t nbyte) {
   d674a:	4689      	mov	r9, r1
  uint8_t cacheOption;
  // number of bytes left to write  -  must be before goto statements
  size_t nToWrite = nbyte;
  size_t n;
  // error if not a normal file or is read-only
  if (!isFile() || !(m_flags & F_WRITE)) {
   d674c:	0719      	lsls	r1, r3, #28

fail:
  return false;
}
//------------------------------------------------------------------------------
int FatFile::write(const void* buf, size_t nbyte) {
   d674e:	4604      	mov	r4, r0
   d6750:	4690      	mov	r8, r2
  uint8_t cacheOption;
  // number of bytes left to write  -  must be before goto statements
  size_t nToWrite = nbyte;
  size_t n;
  // error if not a normal file or is read-only
  if (!isFile() || !(m_flags & F_WRITE)) {
   d6752:	d508      	bpl.n	d6766 <_ZN7FatFile5writeEPKvj+0x22>
   d6754:	7883      	ldrb	r3, [r0, #2]
   d6756:	079a      	lsls	r2, r3, #30
   d6758:	d505      	bpl.n	d6766 <_ZN7FatFile5writeEPKvj+0x22>
    DBG_FAIL_MACRO;
    goto fail;
  }
  // seek to end of file if append flag
  if ((m_flags & F_APPEND)) {
   d675a:	071b      	lsls	r3, r3, #28
   d675c:	d50b      	bpl.n	d6776 <_ZN7FatFile5writeEPKvj+0x32>
    if (!seekSet(m_fileSize)) {
   d675e:	69e1      	ldr	r1, [r4, #28]
   d6760:	f7ff feac 	bl	d64bc <_ZN7FatFile7seekSetEm>
   d6764:	b938      	cbnz	r0, d6776 <_ZN7FatFile5writeEPKvj+0x32>
  }
  return nbyte;

fail:
  // return for write error
  m_error |= WRITE_ERROR;
   d6766:	7863      	ldrb	r3, [r4, #1]
   d6768:	f043 0301 	orr.w	r3, r3, #1
   d676c:	7063      	strb	r3, [r4, #1]
  return -1;
   d676e:	f04f 30ff 	mov.w	r0, #4294967295
   d6772:	e8bd 87f0 	ldmia.w	sp!, {r4, r5, r6, r7, r8, r9, sl, pc}
      DBG_FAIL_MACRO;
      goto fail;
    }
  }
  // Don't exceed max fileSize.
  if (nbyte > (0XFFFFFFFF - m_curPosition)) {
   d6776:	6963      	ldr	r3, [r4, #20]
   d6778:	43db      	mvns	r3, r3
   d677a:	4598      	cmp	r8, r3
   d677c:	d8f3      	bhi.n	d6766 <_ZN7FatFile5writeEPKvj+0x22>
   d677e:	4646      	mov	r6, r8
    m_vol = vol;
    invalidate();
  }
  /** Invalidate current cache block. */
  void invalidate() {
    m_status = 0;
   d6780:	f04f 0a00 	mov.w	sl, #0
   d6784:	6963      	ldr	r3, [r4, #20]
    DBG_FAIL_MACRO;
    goto fail;
  }
  while (nToWrite) {
   d6786:	2e00      	cmp	r6, #0
   d6788:	f000 8081 	beq.w	d688e <_ZN7FatFile5writeEPKvj+0x14a>
    uint8_t blockOfCluster = m_vol->blockOfCluster(m_curPosition);
   d678c:	68a0      	ldr	r0, [r4, #8]
  }
//------------------------------------------------------------------------------
  bool allocateCluster(uint32_t current, uint32_t* next);
  bool allocContiguous(uint32_t count, uint32_t* firstCluster);
  uint8_t blockOfCluster(uint32_t position) const {
    return (position >> 9) & m_clusterBlockMask;
   d678e:	7942      	ldrb	r2, [r0, #5]
    uint16_t blockOffset = m_curPosition & 0X1FF;
    if (blockOfCluster == 0 && blockOffset == 0) {
   d6790:	ea12 2553 	ands.w	r5, r2, r3, lsr #9
    DBG_FAIL_MACRO;
    goto fail;
  }
  while (nToWrite) {
    uint8_t blockOfCluster = m_vol->blockOfCluster(m_curPosition);
    uint16_t blockOffset = m_curPosition & 0X1FF;
   d6794:	f3c3 0708 	ubfx	r7, r3, #0, #9
    if (blockOfCluster == 0 && blockOffset == 0) {
   d6798:	d11c      	bne.n	d67d4 <_ZN7FatFile5writeEPKvj+0x90>
   d679a:	b9df      	cbnz	r7, d67d4 <_ZN7FatFile5writeEPKvj+0x90>
      // start of new cluster
      if (m_curCluster != 0) {
   d679c:	6921      	ldr	r1, [r4, #16]
   d679e:	b171      	cbz	r1, d67be <_ZN7FatFile5writeEPKvj+0x7a>
        int8_t fg = m_vol->fatGet(m_curCluster, &m_curCluster);
   d67a0:	f104 0210 	add.w	r2, r4, #16
   d67a4:	f000 f901 	bl	d69aa <_ZN9FatVolume6fatGetEmPm>
        if (fg < 0) {
   d67a8:	2800      	cmp	r0, #0
   d67aa:	dbdc      	blt.n	d6766 <_ZN7FatFile5writeEPKvj+0x22>
          DBG_FAIL_MACRO;
          goto fail;
        }
        if (fg == 0) {
   d67ac:	f040 808e 	bne.w	d68cc <_ZN7FatFile5writeEPKvj+0x188>
          // add cluster if at end of chain
          if (!addCluster()) {
   d67b0:	4620      	mov	r0, r4
   d67b2:	f7ff fd2f 	bl	d6214 <_ZN7FatFile10addClusterEv>
   d67b6:	2800      	cmp	r0, #0
   d67b8:	f040 8088 	bne.w	d68cc <_ZN7FatFile5writeEPKvj+0x188>
   d67bc:	e7d3      	b.n	d6766 <_ZN7FatFile5writeEPKvj+0x22>
            DBG_FAIL_MACRO;
            goto fail;
          }
        }
      } else {
        if (m_firstCluster == 0) {
   d67be:	6a23      	ldr	r3, [r4, #32]
   d67c0:	b93b      	cbnz	r3, d67d2 <_ZN7FatFile5writeEPKvj+0x8e>
          // allocate first cluster of file
          if (!addCluster()) {
   d67c2:	4620      	mov	r0, r4
   d67c4:	f7ff fd26 	bl	d6214 <_ZN7FatFile10addClusterEv>
   d67c8:	2800      	cmp	r0, #0
   d67ca:	d0cc      	beq.n	d6766 <_ZN7FatFile5writeEPKvj+0x22>
            DBG_FAIL_MACRO;
            goto fail;
          }
          m_firstCluster = m_curCluster;
   d67cc:	6923      	ldr	r3, [r4, #16]
   d67ce:	6223      	str	r3, [r4, #32]
   d67d0:	e000      	b.n	d67d4 <_ZN7FatFile5writeEPKvj+0x90>
        } else {
          m_curCluster = m_firstCluster;
   d67d2:	6123      	str	r3, [r4, #16]
        }
      }
    }
    // block for data write
    uint32_t block = m_vol->clusterFirstBlock(m_curCluster) + blockOfCluster;
   d67d4:	6921      	ldr	r1, [r4, #16]
   d67d6:	68a0      	ldr	r0, [r4, #8]
   d67d8:	f000 f8e1 	bl	d699e <_ZNK9FatVolume17clusterFirstBlockEm>
   d67dc:	1829      	adds	r1, r5, r0

    if (blockOffset != 0 || nToWrite < 512) {
   d67de:	b917      	cbnz	r7, d67e6 <_ZN7FatFile5writeEPKvj+0xa2>
   d67e0:	f5b6 7f00 	cmp.w	r6, #512	; 0x200
   d67e4:	d221      	bcs.n	d682a <_ZN7FatFile5writeEPKvj+0xe6>
      // partial block - must use cache
      // max space in block
      n = 512 - blockOffset;
   d67e6:	f5c7 7500 	rsb	r5, r7, #512	; 0x200
   d67ea:	42b5      	cmp	r5, r6
   d67ec:	bf28      	it	cs
   d67ee:	4635      	movcs	r5, r6
      // lesser of space and amount to write
      if (n > nToWrite) {
        n = nToWrite;
      }

      if (blockOffset == 0 && m_curPosition >= m_fileSize) {
   d67f0:	b937      	cbnz	r7, d6800 <_ZN7FatFile5writeEPKvj+0xbc>
   d67f2:	6963      	ldr	r3, [r4, #20]
   d67f4:	69e2      	ldr	r2, [r4, #28]
        // start of new block don't need to read into cache
        cacheOption = FatCache::CACHE_RESERVE_FOR_WRITE;
   d67f6:	4293      	cmp	r3, r2
   d67f8:	bf34      	ite	cc
   d67fa:	2201      	movcc	r2, #1
   d67fc:	2205      	movcs	r2, #5
   d67fe:	e000      	b.n	d6802 <_ZN7FatFile5writeEPKvj+0xbe>
      } else {
        // rewrite part of block
        cacheOption = FatCache::CACHE_FOR_WRITE;
   d6800:	2201      	movs	r2, #1
  bool cacheSync() {
    return m_cache.sync() && syncBlocks();
  }
#endif  // USE_SEPARATE_FAT_CACHE
  cache_t* cacheFetchData(uint32_t blockNumber, uint8_t options) {
    return m_cache.read(blockNumber, options);
   d6802:	68a0      	ldr	r0, [r4, #8]
   d6804:	3024      	adds	r0, #36	; 0x24
   d6806:	f000 f8a6 	bl	d6956 <_ZN8FatCache4readEmh>
      }
      pc = m_vol->cacheFetchData(block, cacheOption);
      if (!pc) {
   d680a:	2800      	cmp	r0, #0
   d680c:	d0ab      	beq.n	d6766 <_ZN7FatFile5writeEPKvj+0x22>
        DBG_FAIL_MACRO;
        goto fail;
      }
      uint8_t* dst = pc->data + blockOffset;
      memcpy(dst, src, n);
   d680e:	4438      	add	r0, r7
   d6810:	462a      	mov	r2, r5
   d6812:	4649      	mov	r1, r9
      if (512 == (n + blockOffset)) {
   d6814:	442f      	add	r7, r5
      if (!pc) {
        DBG_FAIL_MACRO;
        goto fail;
      }
      uint8_t* dst = pc->data + blockOffset;
      memcpy(dst, src, n);
   d6816:	f002 fff6 	bl	d9806 <memcpy>
      if (512 == (n + blockOffset)) {
   d681a:	f5b7 7f00 	cmp.w	r7, #512	; 0x200
   d681e:	d130      	bne.n	d6882 <_ZN7FatFile5writeEPKvj+0x13e>
  }
  void cacheInvalidate() {
    m_cache.invalidate();
  }
  bool cacheSyncData() {
    return m_cache.sync();
   d6820:	68a0      	ldr	r0, [r4, #8]
   d6822:	3024      	adds	r0, #36	; 0x24
   d6824:	f000 f870 	bl	d6908 <_ZN8FatCache4syncEv>
   d6828:	e017      	b.n	d685a <_ZN7FatFile5writeEPKvj+0x116>
          DBG_FAIL_MACRO;
          goto fail;
        }
      }
#if USE_MULTI_BLOCK_IO
    } else if (nToWrite >= 1024) {
   d682a:	f5b6 6f80 	cmp.w	r6, #1024	; 0x400
   d682e:	68a0      	ldr	r0, [r4, #8]
   d6830:	d315      	bcc.n	d685e <_ZN7FatFile5writeEPKvj+0x11a>
      // use multiple block write command
      uint8_t maxBlocks = m_vol->blocksPerCluster() - blockOfCluster;
      size_t nb = nToWrite >> 9;
      if (nb > maxBlocks) {
   d6832:	7902      	ldrb	r2, [r0, #4]
   d6834:	1b52      	subs	r2, r2, r5
      }
#if USE_MULTI_BLOCK_IO
    } else if (nToWrite >= 1024) {
      // use multiple block write command
      uint8_t maxBlocks = m_vol->blocksPerCluster() - blockOfCluster;
      size_t nb = nToWrite >> 9;
   d6836:	0a73      	lsrs	r3, r6, #9
      if (nb > maxBlocks) {
   d6838:	b2d2      	uxtb	r2, r2
   d683a:	4293      	cmp	r3, r2
   d683c:	bf28      	it	cs
   d683e:	4613      	movcs	r3, r2
   d6840:	6ac2      	ldr	r2, [r0, #44]	; 0x2c
        nb = maxBlocks;
      }
      n = 512*nb;
      if (m_vol->cacheBlockNumber() <= block
          && block < (m_vol->cacheBlockNumber() + nb)) {
   d6842:	4291      	cmp	r1, r2
      uint8_t maxBlocks = m_vol->blocksPerCluster() - blockOfCluster;
      size_t nb = nToWrite >> 9;
      if (nb > maxBlocks) {
        nb = maxBlocks;
      }
      n = 512*nb;
   d6844:	ea4f 2543 	mov.w	r5, r3, lsl #9
      if (m_vol->cacheBlockNumber() <= block
          && block < (m_vol->cacheBlockNumber() + nb)) {
   d6848:	d302      	bcc.n	d6850 <_ZN7FatFile5writeEPKvj+0x10c>
   d684a:	441a      	add	r2, r3
   d684c:	4291      	cmp	r1, r2
   d684e:	d337      	bcc.n	d68c0 <_ZN7FatFile5writeEPKvj+0x17c>
   d6850:	68a7      	ldr	r7, [r4, #8]
#if USE_MULTI_BLOCK_IO
  bool readBlocks(uint32_t block, uint8_t* dst, size_t nb) {
    return m_blockDev->readBlocks(block, dst, nb);
  }
  bool writeBlocks(uint32_t block, const uint8_t* src, size_t nb) {
    return m_blockDev->writeBlocks(block, src, nb);
   d6852:	464a      	mov	r2, r9
   d6854:	6838      	ldr	r0, [r7, #0]
   d6856:	f000 fc6d 	bl	d7134 <_ZN9SdSpiCard11writeBlocksEmPKhj>
        // invalidate cache if block is in cache
        m_vol->cacheInvalidate();
      }
      if (!m_vol->writeBlocks(block, src, nb)) {
   d685a:	b990      	cbnz	r0, d6882 <_ZN7FatFile5writeEPKvj+0x13e>
   d685c:	e783      	b.n	d6766 <_ZN7FatFile5writeEPKvj+0x22>
      }
#endif  // USE_MULTI_BLOCK_IO
    } else {
      // use single block write command
      n = 512;
      if (m_vol->cacheBlockNumber() == block) {
   d685e:	6ac3      	ldr	r3, [r0, #44]	; 0x2c
   d6860:	4299      	cmp	r1, r3
    invalidate();
  }
  /** Invalidate current cache block. */
  void invalidate() {
    m_status = 0;
    m_lbn = 0XFFFFFFFF;
   d6862:	bf02      	ittt	eq
   d6864:	f04f 33ff 	moveq.w	r3, #4294967295
    m_vol = vol;
    invalidate();
  }
  /** Invalidate current cache block. */
  void invalidate() {
    m_status = 0;
   d6868:	f880 a024 	strbeq.w	sl, [r0, #36]	; 0x24
    m_lbn = 0XFFFFFFFF;
   d686c:	62c3      	streq	r3, [r0, #44]	; 0x2c
   d686e:	68a3      	ldr	r3, [r4, #8]
  }
  bool syncBlocks() {
    return m_blockDev->syncBlocks();
  }
  bool writeBlock(uint32_t block, const uint8_t* src) {
    return m_blockDev->writeBlock(block, src);
   d6870:	464a      	mov	r2, r9
   d6872:	6818      	ldr	r0, [r3, #0]
   d6874:	f000 fbec 	bl	d7050 <_ZN9SdSpiCard10writeBlockEmPKh>
        m_vol->cacheInvalidate();
      }
      if (!m_vol->writeBlock(block, src)) {
   d6878:	2800      	cmp	r0, #0
   d687a:	f43f af74 	beq.w	d6766 <_ZN7FatFile5writeEPKvj+0x22>
        goto fail;
      }
#endif  // USE_MULTI_BLOCK_IO
    } else {
      // use single block write command
      n = 512;
   d687e:	f44f 7500 	mov.w	r5, #512	; 0x200
      if (!m_vol->writeBlock(block, src)) {
        DBG_FAIL_MACRO;
        goto fail;
      }
    }
    m_curPosition += n;
   d6882:	6963      	ldr	r3, [r4, #20]
   d6884:	442b      	add	r3, r5
   d6886:	6163      	str	r3, [r4, #20]
    src += n;
   d6888:	44a9      	add	r9, r5
    nToWrite -= n;
   d688a:	1b76      	subs	r6, r6, r5
  // Don't exceed max fileSize.
  if (nbyte > (0XFFFFFFFF - m_curPosition)) {
    DBG_FAIL_MACRO;
    goto fail;
  }
  while (nToWrite) {
   d688c:	e77a      	b.n	d6784 <_ZN7FatFile5writeEPKvj+0x40>
    }
    m_curPosition += n;
    src += n;
    nToWrite -= n;
  }
  if (m_curPosition > m_fileSize) {
   d688e:	69e2      	ldr	r2, [r4, #28]
   d6890:	4293      	cmp	r3, r2
   d6892:	d901      	bls.n	d6898 <_ZN7FatFile5writeEPKvj+0x154>
    // update fileSize and insure sync will update dir entry
    m_fileSize = m_curPosition;
   d6894:	61e3      	str	r3, [r4, #28]
   d6896:	e002      	b.n	d689e <_ZN7FatFile5writeEPKvj+0x15a>
    m_flags |= F_FILE_DIR_DIRTY;
  } else if (m_dateTime) {
   d6898:	4b0f      	ldr	r3, [pc, #60]	; (d68d8 <_ZN7FatFile5writeEPKvj+0x194>)
   d689a:	681b      	ldr	r3, [r3, #0]
   d689c:	b11b      	cbz	r3, d68a6 <_ZN7FatFile5writeEPKvj+0x162>
    // insure sync will update modified date and time
    m_flags |= F_FILE_DIR_DIRTY;
   d689e:	78a3      	ldrb	r3, [r4, #2]
   d68a0:	f043 0304 	orr.w	r3, r3, #4
   d68a4:	70a3      	strb	r3, [r4, #2]
  }

  if (m_flags & F_SYNC) {
   d68a6:	f994 3002 	ldrsb.w	r3, [r4, #2]
   d68aa:	2b00      	cmp	r3, #0
   d68ac:	db02      	blt.n	d68b4 <_ZN7FatFile5writeEPKvj+0x170>
    if (!sync()) {
      DBG_FAIL_MACRO;
      goto fail;
    }
  }
  return nbyte;
   d68ae:	4640      	mov	r0, r8
   d68b0:	e8bd 87f0 	ldmia.w	sp!, {r4, r5, r6, r7, r8, r9, sl, pc}
    // insure sync will update modified date and time
    m_flags |= F_FILE_DIR_DIRTY;
  }

  if (m_flags & F_SYNC) {
    if (!sync()) {
   d68b4:	4620      	mov	r0, r4
   d68b6:	f7ff feb9 	bl	d662c <_ZN7FatFile4syncEv>
   d68ba:	2800      	cmp	r0, #0
   d68bc:	d1f7      	bne.n	d68ae <_ZN7FatFile5writeEPKvj+0x16a>
   d68be:	e752      	b.n	d6766 <_ZN7FatFile5writeEPKvj+0x22>
    invalidate();
  }
  /** Invalidate current cache block. */
  void invalidate() {
    m_status = 0;
    m_lbn = 0XFFFFFFFF;
   d68c0:	f04f 32ff 	mov.w	r2, #4294967295
    m_vol = vol;
    invalidate();
  }
  /** Invalidate current cache block. */
  void invalidate() {
    m_status = 0;
   d68c4:	f880 a024 	strb.w	sl, [r0, #36]	; 0x24
    m_lbn = 0XFFFFFFFF;
   d68c8:	62c2      	str	r2, [r0, #44]	; 0x2c
   d68ca:	e7c1      	b.n	d6850 <_ZN7FatFile5writeEPKvj+0x10c>
          m_curCluster = m_firstCluster;
        }
      }
    }
    // block for data write
    uint32_t block = m_vol->clusterFirstBlock(m_curCluster) + blockOfCluster;
   d68cc:	6921      	ldr	r1, [r4, #16]
   d68ce:	68a0      	ldr	r0, [r4, #8]
   d68d0:	f000 f865 	bl	d699e <_ZNK9FatVolume17clusterFirstBlockEm>
   d68d4:	4601      	mov	r1, r0
   d68d6:	e783      	b.n	d67e0 <_ZN7FatFile5writeEPKvj+0x9c>
   d68d8:	2003e3a0 	.word	0x2003e3a0

000d68dc <_GLOBAL__sub_I__ZN7FatFile5m_cwdE>:
   d68dc:	f000 bcca 	b.w	d7274 <HAL_Pin_Map>

000d68e0 <_ZN5Print5writeEPKc>:

    int getWriteError() { return write_error; }
    void clearWriteError() { setWriteError(0); }

    virtual size_t write(uint8_t) = 0;
    size_t write(const char *str) {
   d68e0:	b570      	push	{r4, r5, r6, lr}
   d68e2:	4605      	mov	r5, r0
      if (str == NULL) return 0;
   d68e4:	460c      	mov	r4, r1
      return write((const uint8_t *)str, strlen(str));
    }
   d68e6:	4608      	mov	r0, r1
    int getWriteError() { return write_error; }
    void clearWriteError() { setWriteError(0); }

    virtual size_t write(uint8_t) = 0;
    size_t write(const char *str) {
      if (str == NULL) return 0;
   d68e8:	b149      	cbz	r1, d68fe <_ZN5Print5writeEPKc+0x1e>
      return write((const uint8_t *)str, strlen(str));
   d68ea:	f002 ffd9 	bl	d98a0 <strlen>
   d68ee:	682b      	ldr	r3, [r5, #0]
   d68f0:	4602      	mov	r2, r0
   d68f2:	4621      	mov	r1, r4
   d68f4:	4628      	mov	r0, r5
   d68f6:	68db      	ldr	r3, [r3, #12]
    }
   d68f8:	e8bd 4070 	ldmia.w	sp!, {r4, r5, r6, lr}
    void clearWriteError() { setWriteError(0); }

    virtual size_t write(uint8_t) = 0;
    size_t write(const char *str) {
      if (str == NULL) return 0;
      return write((const uint8_t *)str, strlen(str));
   d68fc:	4718      	bx	r3
    }
   d68fe:	bd70      	pop	{r4, r5, r6, pc}

000d6900 <_GLOBAL__sub_I__ZN7FatFile7dmpFileEP5Printmj>:
   d6900:	f000 bcb8 	b.w	d7274 <HAL_Pin_Map>

000d6904 <_GLOBAL__sub_I__ZN13FatStreamBase5getchEv>:
   d6904:	f000 bcb6 	b.w	d7274 <HAL_Pin_Map>

000d6908 <_ZN8FatCache4syncEv>:
fail:

  return 0;
}
//------------------------------------------------------------------------------
bool FatCache::sync() {
   d6908:	b570      	push	{r4, r5, r6, lr}
  if (m_status & CACHE_STATUS_DIRTY) {
   d690a:	7803      	ldrb	r3, [r0, #0]
   d690c:	07da      	lsls	r2, r3, #31
fail:

  return 0;
}
//------------------------------------------------------------------------------
bool FatCache::sync() {
   d690e:	4604      	mov	r4, r0
  if (m_status & CACHE_STATUS_DIRTY) {
   d6910:	d51e      	bpl.n	d6950 <_ZN8FatCache4syncEv+0x48>
   d6912:	6843      	ldr	r3, [r0, #4]
  }
  bool syncBlocks() {
    return m_blockDev->syncBlocks();
  }
  bool writeBlock(uint32_t block, const uint8_t* src) {
    return m_blockDev->writeBlock(block, src);
   d6914:	6881      	ldr	r1, [r0, #8]
    if (!m_vol->writeBlock(m_lbn, m_block.data)) {
   d6916:	f100 060c 	add.w	r6, r0, #12
   d691a:	4632      	mov	r2, r6
   d691c:	6818      	ldr	r0, [r3, #0]
   d691e:	f000 fb97 	bl	d7050 <_ZN9SdSpiCard10writeBlockEmPKh>
   d6922:	4605      	mov	r5, r0
   d6924:	b908      	cbnz	r0, d692a <_ZN8FatCache4syncEv+0x22>
    m_status &= ~CACHE_STATUS_DIRTY;
  }
  return true;

fail:
  return false;
   d6926:	2500      	movs	r5, #0
   d6928:	e013      	b.n	d6952 <_ZN8FatCache4syncEv+0x4a>
    if (!m_vol->writeBlock(m_lbn, m_block.data)) {
      DBG_FAIL_MACRO;
      goto fail;
    }
    // mirror second FAT
    if (m_status & CACHE_STATUS_MIRROR_FAT) {
   d692a:	7823      	ldrb	r3, [r4, #0]
   d692c:	079b      	lsls	r3, r3, #30
   d692e:	d404      	bmi.n	d693a <_ZN8FatCache4syncEv+0x32>
      if (!m_vol->writeBlock(lbn, m_block.data)) {
        DBG_FAIL_MACRO;
        goto fail;
      }
    }
    m_status &= ~CACHE_STATUS_DIRTY;
   d6930:	7823      	ldrb	r3, [r4, #0]
   d6932:	f023 0301 	bic.w	r3, r3, #1
   d6936:	7023      	strb	r3, [r4, #0]
   d6938:	e00b      	b.n	d6952 <_ZN8FatCache4syncEv+0x4a>
      DBG_FAIL_MACRO;
      goto fail;
    }
    // mirror second FAT
    if (m_status & CACHE_STATUS_MIRROR_FAT) {
      uint32_t lbn = m_lbn + m_vol->blocksPerFat();
   d693a:	6863      	ldr	r3, [r4, #4]
   d693c:	68a0      	ldr	r0, [r4, #8]
   d693e:	6919      	ldr	r1, [r3, #16]
   d6940:	4632      	mov	r2, r6
   d6942:	4401      	add	r1, r0
   d6944:	6818      	ldr	r0, [r3, #0]
   d6946:	f000 fb83 	bl	d7050 <_ZN9SdSpiCard10writeBlockEmPKh>
      if (!m_vol->writeBlock(lbn, m_block.data)) {
   d694a:	2800      	cmp	r0, #0
   d694c:	d1f0      	bne.n	d6930 <_ZN8FatCache4syncEv+0x28>
   d694e:	e7ea      	b.n	d6926 <_ZN8FatCache4syncEv+0x1e>
        goto fail;
      }
    }
    m_status &= ~CACHE_STATUS_DIRTY;
  }
  return true;
   d6950:	2501      	movs	r5, #1

fail:
  return false;
}
   d6952:	4628      	mov	r0, r5
   d6954:	bd70      	pop	{r4, r5, r6, pc}

000d6956 <_ZN8FatCache4readEmh>:
 * DEALINGS IN THE SOFTWARE.
 */
#include <string.h>
#include "FatVolume.h"
//------------------------------------------------------------------------------
cache_t* FatCache::read(uint32_t lbn, uint8_t option) {
   d6956:	b570      	push	{r4, r5, r6, lr}
  if (m_lbn != lbn) {
   d6958:	6883      	ldr	r3, [r0, #8]
   d695a:	428b      	cmp	r3, r1
 * DEALINGS IN THE SOFTWARE.
 */
#include <string.h>
#include "FatVolume.h"
//------------------------------------------------------------------------------
cache_t* FatCache::read(uint32_t lbn, uint8_t option) {
   d695c:	4604      	mov	r4, r0
   d695e:	460e      	mov	r6, r1
   d6960:	4615      	mov	r5, r2
  if (m_lbn != lbn) {
   d6962:	d014      	beq.n	d698e <_ZN8FatCache4readEmh+0x38>
    if (!sync()) {
   d6964:	f7ff ffd0 	bl	d6908 <_ZN8FatCache4syncEv>
   d6968:	b908      	cbnz	r0, d696e <_ZN8FatCache4readEmh+0x18>
  m_status |= option & CACHE_STATUS_MASK;
  return &m_block;

fail:

  return 0;
   d696a:	2000      	movs	r0, #0
   d696c:	bd70      	pop	{r4, r5, r6, pc}
  if (m_lbn != lbn) {
    if (!sync()) {
      DBG_FAIL_MACRO;
      goto fail;
    }
    if (!(option & CACHE_OPTION_NO_READ)) {
   d696e:	076b      	lsls	r3, r5, #29
   d6970:	d503      	bpl.n	d697a <_ZN8FatCache4readEmh+0x24>
      if (!m_vol->readBlock(lbn, m_block.data)) {
        DBG_FAIL_MACRO;
        goto fail;
      }
    }
    m_status = 0;
   d6972:	2300      	movs	r3, #0
   d6974:	7023      	strb	r3, [r4, #0]
    m_lbn = lbn;
   d6976:	60a6      	str	r6, [r4, #8]
   d6978:	e009      	b.n	d698e <_ZN8FatCache4readEmh+0x38>
   d697a:	6863      	ldr	r3, [r4, #4]
  uint32_t m_lastCluster;          // Last cluster number in FAT.
  uint32_t m_rootDirStart;         // Start block for FAT16, cluster for FAT32.
//------------------------------------------------------------------------------
  // block I/O functions.
  bool readBlock(uint32_t block, uint8_t* dst) {
    return m_blockDev->readBlock(block, dst);
   d697c:	f104 020c 	add.w	r2, r4, #12
   d6980:	4631      	mov	r1, r6
   d6982:	6818      	ldr	r0, [r3, #0]
   d6984:	f000 fada 	bl	d6f3c <_ZN9SdSpiCard9readBlockEmPh>
    if (!sync()) {
      DBG_FAIL_MACRO;
      goto fail;
    }
    if (!(option & CACHE_OPTION_NO_READ)) {
      if (!m_vol->readBlock(lbn, m_block.data)) {
   d6988:	2800      	cmp	r0, #0
   d698a:	d1f2      	bne.n	d6972 <_ZN8FatCache4readEmh+0x1c>
   d698c:	e7ed      	b.n	d696a <_ZN8FatCache4readEmh+0x14>
      }
    }
    m_status = 0;
    m_lbn = lbn;
  }
  m_status |= option & CACHE_STATUS_MASK;
   d698e:	7823      	ldrb	r3, [r4, #0]
   d6990:	4620      	mov	r0, r4
   d6992:	f005 0503 	and.w	r5, r5, #3
   d6996:	431d      	orrs	r5, r3
   d6998:	f800 5b0c 	strb.w	r5, [r0], #12
  return &m_block;

fail:

  return 0;
}
   d699c:	bd70      	pop	{r4, r5, r6, pc}

000d699e <_ZNK9FatVolume17clusterFirstBlockEm>:
fail:
  return false;
}
//------------------------------------------------------------------------------
uint32_t FatVolume::clusterFirstBlock(uint32_t cluster) const {
  return m_dataStartBlock + ((cluster - 2) << m_clusterSizeShift);
   d699e:	7983      	ldrb	r3, [r0, #6]
   d69a0:	6940      	ldr	r0, [r0, #20]
   d69a2:	3902      	subs	r1, #2
   d69a4:	4099      	lsls	r1, r3
}
   d69a6:	4408      	add	r0, r1
   d69a8:	4770      	bx	lr

000d69aa <_ZN9FatVolume6fatGetEmPm>:
  uint32_t lba;
  uint32_t next;
  cache_t* pc;

  // error if reserved cluster of beyond FAT
  if (cluster < 2 || cluster > m_lastCluster) {
   d69aa:	2901      	cmp	r1, #1
uint32_t FatVolume::clusterFirstBlock(uint32_t cluster) const {
  return m_dataStartBlock + ((cluster - 2) << m_clusterSizeShift);
}
//------------------------------------------------------------------------------
// Fetch a FAT entry - return -1 error, 0 EOC, else 1.
int8_t FatVolume::fatGet(uint32_t cluster, uint32_t* value) {
   d69ac:	b570      	push	{r4, r5, r6, lr}
   d69ae:	4605      	mov	r5, r0
   d69b0:	460c      	mov	r4, r1
   d69b2:	4616      	mov	r6, r2
  uint32_t lba;
  uint32_t next;
  cache_t* pc;

  // error if reserved cluster of beyond FAT
  if (cluster < 2 || cluster > m_lastCluster) {
   d69b4:	d802      	bhi.n	d69bc <_ZN9FatVolume6fatGetEmPm+0x12>
  }
  *value = next;
  return 1;

fail:
  return -1;
   d69b6:	f04f 30ff 	mov.w	r0, #4294967295
   d69ba:	bd70      	pop	{r4, r5, r6, pc}
  uint32_t lba;
  uint32_t next;
  cache_t* pc;

  // error if reserved cluster of beyond FAT
  if (cluster < 2 || cluster > m_lastCluster) {
   d69bc:	69c3      	ldr	r3, [r0, #28]
   d69be:	4299      	cmp	r1, r3
   d69c0:	d8f9      	bhi.n	d69b6 <_ZN9FatVolume6fatGetEmPm+0xc>
   d69c2:	79c3      	ldrb	r3, [r0, #7]
    DBG_FAIL_MACRO;
    goto fail;
  }

  if (fatType() == 32) {
   d69c4:	2b20      	cmp	r3, #32
   d69c6:	d110      	bne.n	d69ea <_ZN9FatVolume6fatGetEmPm+0x40>
  FatCache m_cache;
#if USE_SEPARATE_FAT_CACHE
  FatCache m_fatCache;
  cache_t* cacheFetchFat(uint32_t blockNumber, uint8_t options) {
    return m_fatCache.read(blockNumber,
                           options | FatCache::CACHE_STATUS_MIRROR_FAT);
   d69c8:	6981      	ldr	r1, [r0, #24]
   d69ca:	2202      	movs	r2, #2
   d69cc:	eb01 11d4 	add.w	r1, r1, r4, lsr #7
   d69d0:	f500 700c 	add.w	r0, r0, #560	; 0x230
   d69d4:	f7ff ffbf 	bl	d6956 <_ZN8FatCache4readEmh>
    lba = m_fatStartBlock + (cluster >> 7);
    pc = cacheFetchFat(lba, FatCache::CACHE_FOR_READ);
    if (!pc) {
   d69d8:	2800      	cmp	r0, #0
   d69da:	d0ec      	beq.n	d69b6 <_ZN9FatVolume6fatGetEmPm+0xc>
      DBG_FAIL_MACRO;
      goto fail;
    }
    next = pc->fat32[cluster & 0X7F] & FAT32MASK;
   d69dc:	f004 047f 	and.w	r4, r4, #127	; 0x7f
   d69e0:	f850 3024 	ldr.w	r3, [r0, r4, lsl #2]
   d69e4:	f023 4370 	bic.w	r3, r3, #4026531840	; 0xf0000000
    goto done;
   d69e8:	e00f      	b.n	d6a0a <_ZN9FatVolume6fatGetEmPm+0x60>
  }
  if (fatType() == 16) {
   d69ea:	2b10      	cmp	r3, #16
   d69ec:	d1e3      	bne.n	d69b6 <_ZN9FatVolume6fatGetEmPm+0xc>
   d69ee:	6983      	ldr	r3, [r0, #24]
   d69f0:	f3c1 2107 	ubfx	r1, r1, #8, #8
   d69f4:	2202      	movs	r2, #2
   d69f6:	4419      	add	r1, r3
   d69f8:	f500 700c 	add.w	r0, r0, #560	; 0x230
   d69fc:	f7ff ffab 	bl	d6956 <_ZN8FatCache4readEmh>
    lba = m_fatStartBlock + ((cluster >> 8) & 0XFF);
    pc = cacheFetchFat(lba, FatCache::CACHE_FOR_READ);
    if (!pc) {
   d6a00:	2800      	cmp	r0, #0
   d6a02:	d0d8      	beq.n	d69b6 <_ZN9FatVolume6fatGetEmPm+0xc>
      DBG_FAIL_MACRO;
      goto fail;
    }
    next = pc->fat16[cluster & 0XFF];
   d6a04:	b2e4      	uxtb	r4, r4
   d6a06:	f830 3014 	ldrh.w	r3, [r0, r4, lsl #1]
  } else {
    DBG_FAIL_MACRO;
    goto fail;
  }
done:
  if (isEOC(next)) {
   d6a0a:	69ea      	ldr	r2, [r5, #28]
   d6a0c:	4293      	cmp	r3, r2
    return 0;
  }
  *value = next;
   d6a0e:	bf9a      	itte	ls
   d6a10:	6033      	strls	r3, [r6, #0]
  return 1;
   d6a12:	2001      	movls	r0, #1
    DBG_FAIL_MACRO;
    goto fail;
  }
done:
  if (isEOC(next)) {
    return 0;
   d6a14:	2000      	movhi	r0, #0
  *value = next;
  return 1;

fail:
  return -1;
}
   d6a16:	bd70      	pop	{r4, r5, r6, pc}

000d6a18 <_ZN9FatVolume6fatPutEmm>:
bool FatVolume::fatPut(uint32_t cluster, uint32_t value) {
  uint32_t lba;
  cache_t* pc;

  // error if reserved cluster of beyond FAT
  if (cluster < 2 || cluster > m_lastCluster) {
   d6a18:	2901      	cmp	r1, #1
fail:
  return -1;
}
//------------------------------------------------------------------------------
// Store a FAT entry
bool FatVolume::fatPut(uint32_t cluster, uint32_t value) {
   d6a1a:	b538      	push	{r3, r4, r5, lr}
   d6a1c:	460c      	mov	r4, r1
   d6a1e:	4615      	mov	r5, r2
  uint32_t lba;
  cache_t* pc;

  // error if reserved cluster of beyond FAT
  if (cluster < 2 || cluster > m_lastCluster) {
   d6a20:	d801      	bhi.n	d6a26 <_ZN9FatVolume6fatPutEmm+0xe>
    DBG_FAIL_MACRO;
    goto fail;
  }

fail:
  return false;
   d6a22:	2000      	movs	r0, #0
   d6a24:	bd38      	pop	{r3, r4, r5, pc}
bool FatVolume::fatPut(uint32_t cluster, uint32_t value) {
  uint32_t lba;
  cache_t* pc;

  // error if reserved cluster of beyond FAT
  if (cluster < 2 || cluster > m_lastCluster) {
   d6a26:	69c3      	ldr	r3, [r0, #28]
   d6a28:	4299      	cmp	r1, r3
   d6a2a:	d8fa      	bhi.n	d6a22 <_ZN9FatVolume6fatPutEmm+0xa>
   d6a2c:	79c3      	ldrb	r3, [r0, #7]
    DBG_FAIL_MACRO;
    goto fail;
  }

  if (fatType() == 32) {
   d6a2e:	2b20      	cmp	r3, #32
   d6a30:	d10e      	bne.n	d6a50 <_ZN9FatVolume6fatPutEmm+0x38>
   d6a32:	6981      	ldr	r1, [r0, #24]
   d6a34:	2203      	movs	r2, #3
   d6a36:	eb01 11d4 	add.w	r1, r1, r4, lsr #7
   d6a3a:	f500 700c 	add.w	r0, r0, #560	; 0x230
   d6a3e:	f7ff ff8a 	bl	d6956 <_ZN8FatCache4readEmh>
    lba = m_fatStartBlock + (cluster >> 7);
    pc = cacheFetchFat(lba, FatCache::CACHE_FOR_WRITE);
    if (!pc) {
   d6a42:	2800      	cmp	r0, #0
   d6a44:	d0ed      	beq.n	d6a22 <_ZN9FatVolume6fatPutEmm+0xa>
      DBG_FAIL_MACRO;
      goto fail;
    }
    pc->fat32[cluster & 0X7F] = value;
   d6a46:	f004 047f 	and.w	r4, r4, #127	; 0x7f
   d6a4a:	f840 5024 	str.w	r5, [r0, r4, lsl #2]
   d6a4e:	e00f      	b.n	d6a70 <_ZN9FatVolume6fatPutEmm+0x58>
    return true;
  }

  if (fatType() == 16) {
   d6a50:	2b10      	cmp	r3, #16
   d6a52:	d1e6      	bne.n	d6a22 <_ZN9FatVolume6fatPutEmm+0xa>
   d6a54:	6983      	ldr	r3, [r0, #24]
   d6a56:	f3c1 2107 	ubfx	r1, r1, #8, #8
   d6a5a:	2203      	movs	r2, #3
   d6a5c:	4419      	add	r1, r3
   d6a5e:	f500 700c 	add.w	r0, r0, #560	; 0x230
   d6a62:	f7ff ff78 	bl	d6956 <_ZN8FatCache4readEmh>
    lba = m_fatStartBlock + ((cluster >> 8) & 0XFF);
    pc = cacheFetchFat(lba, FatCache::CACHE_FOR_WRITE);
    if (!pc) {
   d6a66:	2800      	cmp	r0, #0
   d6a68:	d0db      	beq.n	d6a22 <_ZN9FatVolume6fatPutEmm+0xa>
      DBG_FAIL_MACRO;
      goto fail;
    }
    pc->fat16[cluster & 0XFF] = value;
   d6a6a:	b2e4      	uxtb	r4, r4
   d6a6c:	f820 5014 	strh.w	r5, [r0, r4, lsl #1]
    return true;
   d6a70:	2001      	movs	r0, #1
    goto fail;
  }

fail:
  return false;
}
   d6a72:	bd38      	pop	{r3, r4, r5, pc}

000d6a74 <_ZN9FatVolume15allocateClusterEmPm>:

fail:
  return false;
}
//------------------------------------------------------------------------------
bool FatVolume::allocateCluster(uint32_t current, uint32_t* next) {
   d6a74:	e92d 41f3 	stmdb	sp!, {r0, r1, r4, r5, r6, r7, r8, lr}
  uint32_t find;
  bool setStart;
  if (m_allocSearchStart < current) {
   d6a78:	68c4      	ldr	r4, [r0, #12]
   d6a7a:	428c      	cmp	r4, r1

fail:
  return false;
}
//------------------------------------------------------------------------------
bool FatVolume::allocateCluster(uint32_t current, uint32_t* next) {
   d6a7c:	4605      	mov	r5, r0
   d6a7e:	460e      	mov	r6, r1
   d6a80:	4690      	mov	r8, r2
  uint32_t find;
  bool setStart;
  if (m_allocSearchStart < current) {
   d6a82:	d207      	bcs.n	d6a94 <_ZN9FatVolume15allocateClusterEmPm+0x20>
   d6a84:	460c      	mov	r4, r1
    // Try to keep file contiguous. Start just after current cluster.
    find = current;
    setStart = false;
   d6a86:	2700      	movs	r7, #0
    find = m_allocSearchStart;
    setStart = true;
  }
  while (1) {
    find++;
    if (find > m_lastCluster) {
   d6a88:	69eb      	ldr	r3, [r5, #28]
  } else {
    find = m_allocSearchStart;
    setStart = true;
  }
  while (1) {
    find++;
   d6a8a:	3401      	adds	r4, #1
    if (find > m_lastCluster) {
   d6a8c:	429c      	cmp	r4, r3
   d6a8e:	d903      	bls.n	d6a98 <_ZN9FatVolume15allocateClusterEmPm+0x24>
      if (setStart) {
   d6a90:	b9cf      	cbnz	r7, d6ac6 <_ZN9FatVolume15allocateClusterEmPm+0x52>
        // Can't find space, checked all clusters.
        DBG_FAIL_MACRO;
        goto fail;
      }
      find = m_allocSearchStart;
   d6a92:	68ec      	ldr	r4, [r5, #12]
      setStart = true;
   d6a94:	2701      	movs	r7, #1
   d6a96:	e7f7      	b.n	d6a88 <_ZN9FatVolume15allocateClusterEmPm+0x14>
      continue;
    }
    if (find == current) {
   d6a98:	42a6      	cmp	r6, r4
   d6a9a:	d014      	beq.n	d6ac6 <_ZN9FatVolume15allocateClusterEmPm+0x52>
      // Can't find space, already searched clusters after current.
      DBG_FAIL_MACRO;
      goto fail;
    }
    uint32_t f;
    int8_t fg = fatGet(find, &f);
   d6a9c:	aa01      	add	r2, sp, #4
   d6a9e:	4621      	mov	r1, r4
   d6aa0:	4628      	mov	r0, r5
   d6aa2:	f7ff ff82 	bl	d69aa <_ZN9FatVolume6fatGetEmPm>
    if (fg < 0) {
   d6aa6:	2800      	cmp	r0, #0
   d6aa8:	db0d      	blt.n	d6ac6 <_ZN9FatVolume15allocateClusterEmPm+0x52>
      DBG_FAIL_MACRO;
      goto fail;
    }
    if (fg && f == 0) {
   d6aaa:	d0ed      	beq.n	d6a88 <_ZN9FatVolume15allocateClusterEmPm+0x14>
   d6aac:	9b01      	ldr	r3, [sp, #4]
   d6aae:	2b00      	cmp	r3, #0
   d6ab0:	d1ea      	bne.n	d6a88 <_ZN9FatVolume15allocateClusterEmPm+0x14>
      break;
    }
  }
  if (setStart) {
   d6ab2:	b107      	cbz	r7, d6ab6 <_ZN9FatVolume15allocateClusterEmPm+0x42>
    m_allocSearchStart = find;
   d6ab4:	60ec      	str	r4, [r5, #12]
  }
  uint32_t clusterFirstBlock(uint32_t cluster) const;
  int8_t fatGet(uint32_t cluster, uint32_t* value);
  bool fatPut(uint32_t cluster, uint32_t value);
  bool fatPutEOC(uint32_t cluster) {
    return fatPut(cluster, 0x0FFFFFFF);
   d6ab6:	f06f 4270 	mvn.w	r2, #4026531840	; 0xf0000000
   d6aba:	4621      	mov	r1, r4
   d6abc:	4628      	mov	r0, r5
   d6abe:	f7ff ffab 	bl	d6a18 <_ZN9FatVolume6fatPutEmm>
  }
  // Mark end of chain.
  if (!fatPutEOC(find)) {
   d6ac2:	4607      	mov	r7, r0
   d6ac4:	b908      	cbnz	r0, d6aca <_ZN9FatVolume15allocateClusterEmPm+0x56>
  updateFreeClusterCount(-1);
  *next = find;
  return true;

fail:
  return false;
   d6ac6:	2700      	movs	r7, #0
   d6ac8:	e00b      	b.n	d6ae2 <_ZN9FatVolume15allocateClusterEmPm+0x6e>
  // Mark end of chain.
  if (!fatPutEOC(find)) {
    DBG_FAIL_MACRO;
    goto fail;
  }
  if (current) {
   d6aca:	b916      	cbnz	r6, d6ad2 <_ZN9FatVolume15allocateClusterEmPm+0x5e>
      DBG_FAIL_MACRO;
      goto fail;
    }
  }
  updateFreeClusterCount(-1);
  *next = find;
   d6acc:	f8c8 4000 	str.w	r4, [r8]
  return true;
   d6ad0:	e007      	b.n	d6ae2 <_ZN9FatVolume15allocateClusterEmPm+0x6e>
    DBG_FAIL_MACRO;
    goto fail;
  }
  if (current) {
    // Link clusters.
    if (!fatPut(current, find)) {
   d6ad2:	4622      	mov	r2, r4
   d6ad4:	4631      	mov	r1, r6
   d6ad6:	4628      	mov	r0, r5
   d6ad8:	f7ff ff9e 	bl	d6a18 <_ZN9FatVolume6fatPutEmm>
   d6adc:	2800      	cmp	r0, #0
   d6ade:	d1f5      	bne.n	d6acc <_ZN9FatVolume15allocateClusterEmPm+0x58>
   d6ae0:	e7f1      	b.n	d6ac6 <_ZN9FatVolume15allocateClusterEmPm+0x52>
  *next = find;
  return true;

fail:
  return false;
}
   d6ae2:	4638      	mov	r0, r7
   d6ae4:	b002      	add	sp, #8
   d6ae6:	e8bd 81f0 	ldmia.w	sp!, {r4, r5, r6, r7, r8, pc}

000d6aea <_ZN9FatVolume9freeChainEm>:
fail:
  return false;
}
//------------------------------------------------------------------------------
// free a cluster chain
bool FatVolume::freeChain(uint32_t cluster) {
   d6aea:	b573      	push	{r0, r1, r4, r5, r6, lr}
   d6aec:	4605      	mov	r5, r0
   d6aee:	460c      	mov	r4, r1
  uint32_t next;
  int8_t fg;
  do {
    fg = fatGet(cluster, &next);
   d6af0:	aa01      	add	r2, sp, #4
   d6af2:	4621      	mov	r1, r4
   d6af4:	4628      	mov	r0, r5
   d6af6:	f7ff ff58 	bl	d69aa <_ZN9FatVolume6fatGetEmPm>
    if (fg < 0) {
   d6afa:	1e06      	subs	r6, r0, #0
   d6afc:	da01      	bge.n	d6b02 <_ZN9FatVolume9freeChainEm+0x18>
  } while (fg);

  return true;

fail:
  return false;
   d6afe:	2000      	movs	r0, #0
   d6b00:	e00f      	b.n	d6b22 <_ZN9FatVolume9freeChainEm+0x38>
    if (fg < 0) {
      DBG_FAIL_MACRO;
      goto fail;
    }
    // free cluster
    if (!fatPut(cluster, 0)) {
   d6b02:	2200      	movs	r2, #0
   d6b04:	4621      	mov	r1, r4
   d6b06:	4628      	mov	r0, r5
   d6b08:	f7ff ff86 	bl	d6a18 <_ZN9FatVolume6fatPutEmm>
   d6b0c:	2800      	cmp	r0, #0
   d6b0e:	d0f6      	beq.n	d6afe <_ZN9FatVolume9freeChainEm+0x14>
      goto fail;
    }
    // Add one to count of free clusters.
    updateFreeClusterCount(1);

    if (cluster <= m_allocSearchStart) {
   d6b10:	68eb      	ldr	r3, [r5, #12]
   d6b12:	429c      	cmp	r4, r3
      m_allocSearchStart = cluster - 1;
   d6b14:	bf9c      	itt	ls
   d6b16:	f104 34ff 	addls.w	r4, r4, #4294967295
   d6b1a:	60ec      	strls	r4, [r5, #12]
    }
    cluster = next;
   d6b1c:	9c01      	ldr	r4, [sp, #4]
//------------------------------------------------------------------------------
// free a cluster chain
bool FatVolume::freeChain(uint32_t cluster) {
  uint32_t next;
  int8_t fg;
  do {
   d6b1e:	2e00      	cmp	r6, #0
   d6b20:	d1e6      	bne.n	d6af0 <_ZN9FatVolume9freeChainEm+0x6>

  return true;

fail:
  return false;
}
   d6b22:	b002      	add	sp, #8
   d6b24:	bd70      	pop	{r4, r5, r6, pc}

000d6b26 <_ZN9FatVolume4initEh>:

fail:
  return -1;
}
//------------------------------------------------------------------------------
bool FatVolume::init(uint8_t part) {
   d6b26:	b570      	push	{r4, r5, r6, lr}
  uint32_t volumeStartBlock = 0;
  fat32_boot_t* fbs;
  cache_t* pc;
  uint8_t tmp;
  m_fatType = 0;
  m_allocSearchStart = 1;
   d6b28:	2301      	movs	r3, #1

fail:
  return -1;
}
//------------------------------------------------------------------------------
bool FatVolume::init(uint8_t part) {
   d6b2a:	4604      	mov	r4, r0
  uint32_t totalBlocks;
  uint32_t volumeStartBlock = 0;
  fat32_boot_t* fbs;
  cache_t* pc;
  uint8_t tmp;
  m_fatType = 0;
   d6b2c:	2200      	movs	r2, #0
  m_allocSearchStart = 1;
   d6b2e:	60c3      	str	r3, [r0, #12]
    invalidate();
  }
  /** Invalidate current cache block. */
  void invalidate() {
    m_status = 0;
    m_lbn = 0XFFFFFFFF;
   d6b30:	f04f 33ff 	mov.w	r3, #4294967295
  uint32_t totalBlocks;
  uint32_t volumeStartBlock = 0;
  fat32_boot_t* fbs;
  cache_t* pc;
  uint8_t tmp;
  m_fatType = 0;
   d6b34:	71c2      	strb	r2, [r0, #7]
#if USE_SEPARATE_FAT_CACHE
  m_fatCache.init(this);
#endif  // USE_SEPARATE_FAT_CACHE
  // if part == 0 assume super floppy with FAT boot sector in block zero
  // if part > 0 assume mbr volume with partition table
  if (part) {
   d6b36:	460d      	mov	r5, r1
  }
  /** Initialize the cache.
   * \param[in] vol FatVolume that owns this FatCache.
   */
  void init(FatVolume *vol) {
    m_vol = vol;
   d6b38:	62a0      	str	r0, [r4, #40]	; 0x28
    invalidate();
  }
  /** Invalidate current cache block. */
  void invalidate() {
    m_status = 0;
   d6b3a:	f880 2024 	strb.w	r2, [r0, #36]	; 0x24
    m_lbn = 0XFFFFFFFF;
   d6b3e:	62c3      	str	r3, [r0, #44]	; 0x2c
  }
  /** Initialize the cache.
   * \param[in] vol FatVolume that owns this FatCache.
   */
  void init(FatVolume *vol) {
    m_vol = vol;
   d6b40:	f8c4 0234 	str.w	r0, [r4, #564]	; 0x234
    invalidate();
  }
  /** Invalidate current cache block. */
  void invalidate() {
    m_status = 0;
   d6b44:	f880 2230 	strb.w	r2, [r0, #560]	; 0x230
    m_lbn = 0XFFFFFFFF;
   d6b48:	f8c0 3238 	str.w	r3, [r0, #568]	; 0x238
   d6b4c:	b1a1      	cbz	r1, d6b78 <_ZN9FatVolume4initEh+0x52>
    if (part > 4) {
   d6b4e:	2904      	cmp	r1, #4
   d6b50:	d85d      	bhi.n	d6c0e <_ZN9FatVolume4initEh+0xe8>
  bool cacheSync() {
    return m_cache.sync() && syncBlocks();
  }
#endif  // USE_SEPARATE_FAT_CACHE
  cache_t* cacheFetchData(uint32_t blockNumber, uint8_t options) {
    return m_cache.read(blockNumber, options);
   d6b52:	4611      	mov	r1, r2
   d6b54:	3024      	adds	r0, #36	; 0x24
   d6b56:	f7ff fefe 	bl	d6956 <_ZN8FatCache4readEmh>
      DBG_FAIL_MACRO;
      goto fail;
    }
    pc = cacheFetchData(0, FatCache::CACHE_FOR_READ);
    if (!pc) {
   d6b5a:	2800      	cmp	r0, #0
   d6b5c:	d057      	beq.n	d6c0e <_ZN9FatVolume4initEh+0xe8>
      DBG_FAIL_MACRO;
      goto fail;
    }
    part_t* p = &pc->mbr.part[part - 1];
    if ((p->boot & 0X7F) != 0 || p->firstSector == 0) {
   d6b5e:	eb00 1305 	add.w	r3, r0, r5, lsl #4
   d6b62:	f893 31ae 	ldrb.w	r3, [r3, #430]	; 0x1ae
   d6b66:	065b      	lsls	r3, r3, #25
   d6b68:	d151      	bne.n	d6c0e <_ZN9FatVolume4initEh+0xe8>
   d6b6a:	351b      	adds	r5, #27
   d6b6c:	eb00 1505 	add.w	r5, r0, r5, lsl #4
   d6b70:	f8d5 5006 	ldr.w	r5, [r5, #6]
   d6b74:	2d00      	cmp	r5, #0
   d6b76:	d04a      	beq.n	d6c0e <_ZN9FatVolume4initEh+0xe8>
   d6b78:	2200      	movs	r2, #0
   d6b7a:	4629      	mov	r1, r5
   d6b7c:	f104 0024 	add.w	r0, r4, #36	; 0x24
   d6b80:	f7ff fee9 	bl	d6956 <_ZN8FatCache4readEmh>
      goto fail;
    }
    volumeStartBlock = p->firstSector;
  }
  pc = cacheFetchData(volumeStartBlock, FatCache::CACHE_FOR_READ);
  if (!pc) {
   d6b84:	2800      	cmp	r0, #0
   d6b86:	d042      	beq.n	d6c0e <_ZN9FatVolume4initEh+0xe8>
    DBG_FAIL_MACRO;
    goto fail;
  }
  fbs = &(pc->fbs32);
  if (fbs->bytesPerSector != 512 ||
   d6b88:	f8b0 300b 	ldrh.w	r3, [r0, #11]
   d6b8c:	f5b3 7f00 	cmp.w	r3, #512	; 0x200
   d6b90:	d13d      	bne.n	d6c0e <_ZN9FatVolume4initEh+0xe8>
   d6b92:	7c03      	ldrb	r3, [r0, #16]
   d6b94:	2b02      	cmp	r3, #2
   d6b96:	d13a      	bne.n	d6c0e <_ZN9FatVolume4initEh+0xe8>
      fbs->fatCount != 2 ||
   d6b98:	89c3      	ldrh	r3, [r0, #14]
   d6b9a:	2b00      	cmp	r3, #0
   d6b9c:	d037      	beq.n	d6c0e <_ZN9FatVolume4initEh+0xe8>
      fbs->reservedSectorCount == 0) {
    // not valid FAT volume
    DBG_FAIL_MACRO;
    goto fail;
  }
  m_blocksPerCluster = fbs->sectorsPerCluster;
   d6b9e:	7b41      	ldrb	r1, [r0, #13]
   d6ba0:	7121      	strb	r1, [r4, #4]
  m_clusterBlockMask = m_blocksPerCluster - 1;
   d6ba2:	1e4b      	subs	r3, r1, #1
   d6ba4:	7163      	strb	r3, [r4, #5]
  // determine shift that is same as multiply by m_blocksPerCluster
  m_clusterSizeShift = 0;
   d6ba6:	2300      	movs	r3, #0
   d6ba8:	71a3      	strb	r3, [r4, #6]
   d6baa:	2609      	movs	r6, #9
  for (tmp = 1; m_blocksPerCluster != tmp; tmp <<= 1, m_clusterSizeShift++) {
   d6bac:	2301      	movs	r3, #1
   d6bae:	428b      	cmp	r3, r1
   d6bb0:	d007      	beq.n	d6bc2 <_ZN9FatVolume4initEh+0x9c>
    if (tmp == 0) {
   d6bb2:	3e01      	subs	r6, #1
   d6bb4:	d02b      	beq.n	d6c0e <_ZN9FatVolume4initEh+0xe8>
  }
  m_blocksPerCluster = fbs->sectorsPerCluster;
  m_clusterBlockMask = m_blocksPerCluster - 1;
  // determine shift that is same as multiply by m_blocksPerCluster
  m_clusterSizeShift = 0;
  for (tmp = 1; m_blocksPerCluster != tmp; tmp <<= 1, m_clusterSizeShift++) {
   d6bb6:	79a2      	ldrb	r2, [r4, #6]
   d6bb8:	005b      	lsls	r3, r3, #1
   d6bba:	3201      	adds	r2, #1
   d6bbc:	b2db      	uxtb	r3, r3
   d6bbe:	71a2      	strb	r2, [r4, #6]
   d6bc0:	e7f5      	b.n	d6bae <_ZN9FatVolume4initEh+0x88>
    if (tmp == 0) {
      DBG_FAIL_MACRO;
      goto fail;
    }
  }
  m_blocksPerFat = fbs->sectorsPerFat16 ?
   d6bc2:	8ac2      	ldrh	r2, [r0, #22]
                   fbs->sectorsPerFat16 : fbs->sectorsPerFat32;
   d6bc4:	b902      	cbnz	r2, d6bc8 <_ZN9FatVolume4initEh+0xa2>
   d6bc6:	6a42      	ldr	r2, [r0, #36]	; 0x24
   d6bc8:	6122      	str	r2, [r4, #16]

  m_fatStartBlock = volumeStartBlock + fbs->reservedSectorCount;
   d6bca:	89c6      	ldrh	r6, [r0, #14]
   d6bcc:	442e      	add	r6, r5
   d6bce:	61a6      	str	r6, [r4, #24]

  // count for FAT16 zero for FAT32
  m_rootDirEntryCount = fbs->rootDirEntryCount;
   d6bd0:	f8b0 3011 	ldrh.w	r3, [r0, #17]
   d6bd4:	8123      	strh	r3, [r4, #8]

  // directory start for FAT16 dataStart for FAT32
  m_rootDirStart = m_fatStartBlock + 2 * m_blocksPerFat;
   d6bd6:	eb06 0142 	add.w	r1, r6, r2, lsl #1
   d6bda:	6221      	str	r1, [r4, #32]
  // data start for FAT16 and FAT32
  m_dataStartBlock = m_rootDirStart + ((32 * fbs->rootDirEntryCount + 511)/512);
   d6bdc:	f8b0 2011 	ldrh.w	r2, [r0, #17]
   d6be0:	0152      	lsls	r2, r2, #5
   d6be2:	f202 12ff 	addw	r2, r2, #511	; 0x1ff
   d6be6:	eb01 2262 	add.w	r2, r1, r2, asr #9
   d6bea:	6162      	str	r2, [r4, #20]

  // total blocks for FAT16 or FAT32
  totalBlocks = fbs->totalSectors16 ?
   d6bec:	f8b0 3013 	ldrh.w	r3, [r0, #19]
                fbs->totalSectors16 : fbs->totalSectors32;
   d6bf0:	b903      	cbnz	r3, d6bf4 <_ZN9FatVolume4initEh+0xce>
   d6bf2:	6a03      	ldr	r3, [r0, #32]
  // total data blocks
  clusterCount = totalBlocks - (m_dataStartBlock - volumeStartBlock);
   d6bf4:	1aad      	subs	r5, r5, r2
   d6bf6:	442b      	add	r3, r5

  // divide by cluster size to get cluster count
  clusterCount >>= m_clusterSizeShift;
   d6bf8:	79a5      	ldrb	r5, [r4, #6]
   d6bfa:	fa23 f505 	lsr.w	r5, r3, r5
  m_lastCluster = clusterCount + 1;
   d6bfe:	1c6b      	adds	r3, r5, #1
   d6c00:	61e3      	str	r3, [r4, #28]

  // Indicate unknown number of free clusters.
  setFreeClusterCount(-1);
  // FAT type is determined by cluster count
  if (clusterCount < 4085) {
   d6c02:	f640 73f4 	movw	r3, #4084	; 0xff4
   d6c06:	429d      	cmp	r5, r3
   d6c08:	d803      	bhi.n	d6c12 <_ZN9FatVolume4initEh+0xec>
    m_fatType = 12;
   d6c0a:	230c      	movs	r3, #12
   d6c0c:	71e3      	strb	r3, [r4, #7]
    m_fatType = 32;
  }
  return true;

fail:
  return false;
   d6c0e:	2000      	movs	r0, #0
  // FAT type is determined by cluster count
  if (clusterCount < 4085) {
    m_fatType = 12;
    if (!FAT12_SUPPORT) {
      DBG_FAIL_MACRO;
      goto fail;
   d6c10:	bd70      	pop	{r4, r5, r6, pc}
    }
  } else if (clusterCount < 65525) {
   d6c12:	f64f 73f4 	movw	r3, #65524	; 0xfff4
   d6c16:	429d      	cmp	r5, r3
    m_fatType = 16;
  } else {
    m_rootDirStart = fbs->fat32RootCluster;
   d6c18:	bf85      	ittet	hi
   d6c1a:	6ac3      	ldrhi	r3, [r0, #44]	; 0x2c
   d6c1c:	6223      	strhi	r3, [r4, #32]
    if (!FAT12_SUPPORT) {
      DBG_FAIL_MACRO;
      goto fail;
    }
  } else if (clusterCount < 65525) {
    m_fatType = 16;
   d6c1e:	2310      	movls	r3, #16
  } else {
    m_rootDirStart = fbs->fat32RootCluster;
    m_fatType = 32;
   d6c20:	2320      	movhi	r3, #32
   d6c22:	71e3      	strb	r3, [r4, #7]
  }
  return true;
   d6c24:	2001      	movs	r0, #1

fail:
  return false;
}
   d6c26:	bd70      	pop	{r4, r5, r6, pc}

000d6c28 <_GLOBAL__sub_I__ZN8FatCache4readEmh>:
   d6c28:	f000 bb24 	b.w	d7274 <HAL_Pin_Map>

000d6c2c <_GLOBAL__sub_I__ZN10SdioCardEX9readBlockEmPh>:
   d6c2c:	f000 bb22 	b.w	d7274 <HAL_Pin_Map>

000d6c30 <_GLOBAL__sub_I__ZN11SdSpiCardEX9readBlockEmPh>:
   d6c30:	f000 bb20 	b.w	d7274 <HAL_Pin_Map>

000d6c34 <_ZN9SdSpiCard10isTimedOutEtt>:
    spiStop();
  }
  return rtn;
}
//------------------------------------------------------------------------------
bool SdSpiCard::isTimedOut(uint16_t startMS, uint16_t timeoutMS) {
   d6c34:	b570      	push	{r4, r5, r6, lr}
#if WDT_YIELD_TIME_MICROS
  static uint32_t last;
  if ((micros() - last) > WDT_YIELD_TIME_MICROS) {
   d6c36:	4c0e      	ldr	r4, [pc, #56]	; (d6c70 <_ZN9SdSpiCard10isTimedOutEtt+0x3c>)
    spiStop();
  }
  return rtn;
}
//------------------------------------------------------------------------------
bool SdSpiCard::isTimedOut(uint16_t startMS, uint16_t timeoutMS) {
   d6c38:	460e      	mov	r6, r1
   d6c3a:	4615      	mov	r5, r2
inline unsigned long micros(void) { return HAL_Timer_Get_Micro_Seconds(); }
   d6c3c:	f000 fbca 	bl	d73d4 <HAL_Timer_Get_Micro_Seconds>
#if WDT_YIELD_TIME_MICROS
  static uint32_t last;
  if ((micros() - last) > WDT_YIELD_TIME_MICROS) {
   d6c40:	6823      	ldr	r3, [r4, #0]
   d6c42:	1ac0      	subs	r0, r0, r3
   d6c44:	4b0b      	ldr	r3, [pc, #44]	; (d6c74 <_ZN9SdSpiCard10isTimedOutEtt+0x40>)
   d6c46:	4298      	cmp	r0, r3
   d6c48:	d908      	bls.n	d6c5c <_ZN9SdSpiCard10isTimedOutEtt+0x28>
		return !timeout_fn;
	}

	static inline system_tick_t current_time()
	{
		return HAL_Timer_Get_Milli_Seconds();
   d6c4a:	f000 fbcb 	bl	d73e4 <HAL_Timer_Get_Milli_Seconds>
	/**
	 * Lifesign that the application is still working normally.
	 */
	static void checkin()
	{
		last_checkin = current_time();
   d6c4e:	4b0a      	ldr	r3, [pc, #40]	; (d6c78 <_ZN9SdSpiCard10isTimedOutEtt+0x44>)
   d6c50:	6018      	str	r0, [r3, #0]
        spark_cloud_flag_connect();
    }
    static void disconnect(void) { spark_cloud_flag_disconnect(); }
    static void process(void) {
    		application_checkin();
    		spark_process();
   d6c52:	f000 fdbb 	bl	d77cc <spark_process>
   d6c56:	f000 fbbd 	bl	d73d4 <HAL_Timer_Get_Micro_Seconds>
    SysCall::yield();
    last = micros();
   d6c5a:	6020      	str	r0, [r4, #0]

#ifdef __cplusplus
extern "C" {
#endif

inline system_tick_t millis(void) { return HAL_Timer_Get_Milli_Seconds(); }
   d6c5c:	f000 fbc2 	bl	d73e4 <HAL_Timer_Get_Milli_Seconds>
  }
#endif  // WDT_YIELD_TIME_MICROS
  return (curTimeMS() - startMS) > timeoutMS;
   d6c60:	b280      	uxth	r0, r0
   d6c62:	1b80      	subs	r0, r0, r6
}
   d6c64:	42a8      	cmp	r0, r5
   d6c66:	bfd4      	ite	le
   d6c68:	2000      	movle	r0, #0
   d6c6a:	2001      	movgt	r0, #1
   d6c6c:	bd70      	pop	{r4, r5, r6, pc}
   d6c6e:	bf00      	nop
   d6c70:	2003e3a4 	.word	0x2003e3a4
   d6c74:	000186a0 	.word	0x000186a0
   d6c78:	2003e708 	.word	0x2003e708

000d6c7c <_ZN9SdSpiCard8spiStartEv>:
fail:
  spiStop();
  return false;
}
//-----------------------------------------------------------------------------
void SdSpiCard::spiStart() {
   d6c7c:	b538      	push	{r3, r4, r5, lr}
  if (!m_spiActive) {
   d6c7e:	7a05      	ldrb	r5, [r0, #8]
fail:
  spiStop();
  return false;
}
//-----------------------------------------------------------------------------
void SdSpiCard::spiStart() {
   d6c80:	4604      	mov	r4, r0
  if (!m_spiActive) {
   d6c82:	b94d      	cbnz	r5, d6c98 <_ZN9SdSpiCard8spiStartEv+0x1c>
  bool writeData(uint8_t token, const uint8_t* src);

  //---------------------------------------------------------------------------
  // functions defined in SdSpiDriver.h
  void spiActivate() {
    m_spiDriver->activate();
   d6c84:	6840      	ldr	r0, [r0, #4]
   d6c86:	f000 fa7d 	bl	d7184 <_ZN14SdSpiAltDriver8activateEv>
   d6c8a:	6863      	ldr	r3, [r4, #4]
   * \param[in] n Number of bytes to send.
   */
  void send(const uint8_t* buf, size_t n);
  /** Set CS low. */
  void select() {
     digitalWrite(m_csPin, LOW);
   d6c8c:	4629      	mov	r1, r5
   d6c8e:	7d18      	ldrb	r0, [r3, #20]
   d6c90:	f002 f8c3 	bl	d8e1a <digitalWrite>
    spiActivate();
    spiSelect();
    m_spiActive = true;
   d6c94:	2301      	movs	r3, #1
   d6c96:	7223      	strb	r3, [r4, #8]
   d6c98:	bd38      	pop	{r3, r4, r5, pc}

000d6c9a <_ZN9SdSpiCard7spiStopEv>:
  }
}
//-----------------------------------------------------------------------------
void SdSpiCard::spiStop() {
   d6c9a:	b510      	push	{r4, lr}
  if (m_spiActive) {
   d6c9c:	7a03      	ldrb	r3, [r0, #8]
    spiSelect();
    m_spiActive = true;
  }
}
//-----------------------------------------------------------------------------
void SdSpiCard::spiStop() {
   d6c9e:	4604      	mov	r4, r0
  if (m_spiActive) {
   d6ca0:	b16b      	cbz	r3, d6cbe <_ZN9SdSpiCard7spiStopEv+0x24>
   d6ca2:	6843      	ldr	r3, [r0, #4]
  void setSpiSettings(SPISettings spiSettings) {
    m_spiSettings = spiSettings;
  }
  /** Set CS high. */
  void unselect() {
    digitalWrite(m_csPin, HIGH);
   d6ca4:	2101      	movs	r1, #1
   d6ca6:	7d18      	ldrb	r0, [r3, #20]
   d6ca8:	f002 f8b7 	bl	d8e1a <digitalWrite>
  }
  uint8_t spiReceive(uint8_t* buf, size_t n) {
    return  m_spiDriver->receive(buf, n);
  }
  void spiSend(uint8_t data) {
     m_spiDriver->send(data);
   d6cac:	21ff      	movs	r1, #255	; 0xff
   d6cae:	6860      	ldr	r0, [r4, #4]
   d6cb0:	f000 fa9a 	bl	d71e8 <_ZN14SdSpiAltDriver4sendEh>
  // functions defined in SdSpiDriver.h
  void spiActivate() {
    m_spiDriver->activate();
  }
  void spiDeactivate() {
    m_spiDriver->deactivate();
   d6cb4:	6860      	ldr	r0, [r4, #4]
   d6cb6:	f000 fa79 	bl	d71ac <_ZN14SdSpiAltDriver10deactivateEv>
    spiUnselect();
    spiSend(0XFF);
    spiDeactivate();
    m_spiActive = false;
   d6cba:	2300      	movs	r3, #0
   d6cbc:	7223      	strb	r3, [r4, #8]
   d6cbe:	bd10      	pop	{r4, pc}

000d6cc0 <_ZN9SdSpiCard8readDataEPhj>:
//------------------------------------------------------------------------------
bool SdSpiCard::readData(uint8_t *dst) {
  return readData(dst, 512);
}
//------------------------------------------------------------------------------
bool SdSpiCard::readData(uint8_t* dst, size_t count) {
   d6cc0:	b5f8      	push	{r3, r4, r5, r6, r7, lr}
   d6cc2:	4604      	mov	r4, r0
   d6cc4:	460d      	mov	r5, r1
   d6cc6:	4616      	mov	r6, r2
   d6cc8:	f000 fb8c 	bl	d73e4 <HAL_Timer_Get_Milli_Seconds>
#define F(str) (str)
#endif  // F
//------------------------------------------------------------------------------
/** \return the time in milliseconds. */
inline uint16_t curTimeMS() {
  return millis();
   d6ccc:	b287      	uxth	r7, r0
  }
  uint8_t spiReceive() {
    return m_spiDriver->receive();
   d6cce:	6860      	ldr	r0, [r4, #4]
   d6cd0:	f000 fa6f 	bl	d71b2 <_ZN14SdSpiAltDriver7receiveEv>
  uint16_t crc;
#endif  // USE_SD_CRC
  DBG_BEGIN_TIME(DBG_WAIT_READ);
  // wait for start block token
  uint16_t t0 = curTimeMS();
  while ((m_status = spiReceive()) == 0XFF) {
   d6cd4:	28ff      	cmp	r0, #255	; 0xff
   d6cd6:	7260      	strb	r0, [r4, #9]
   d6cd8:	d109      	bne.n	d6cee <_ZN9SdSpiCard8readDataEPhj+0x2e>
    if (isTimedOut(t0, SD_READ_TIMEOUT)) {
   d6cda:	f44f 727a 	mov.w	r2, #1000	; 0x3e8
   d6cde:	4639      	mov	r1, r7
   d6ce0:	4620      	mov	r0, r4
   d6ce2:	f7ff ffa7 	bl	d6c34 <_ZN9SdSpiCard10isTimedOutEtt>
   d6ce6:	2800      	cmp	r0, #0
   d6ce8:	d0f1      	beq.n	d6cce <_ZN9SdSpiCard8readDataEPhj+0xe>
  /**
   *  Set SD error code.
   *  \param[in] code value for error code.
   */
  void error(uint8_t code) {
    m_errorCode = code;
   d6cea:	2355      	movs	r3, #85	; 0x55
   d6cec:	e00b      	b.n	d6d06 <_ZN9SdSpiCard8readDataEPhj+0x46>
      error(SD_CARD_ERROR_READ_TIMEOUT);
      goto fail;
    }
  }
  DBG_END_TIME(DBG_WAIT_READ);
  if (m_status != DATA_START_BLOCK) {
   d6cee:	28fe      	cmp	r0, #254	; 0xfe
   d6cf0:	d001      	beq.n	d6cf6 <_ZN9SdSpiCard8readDataEPhj+0x36>
   d6cf2:	2350      	movs	r3, #80	; 0x50
   d6cf4:	e007      	b.n	d6d06 <_ZN9SdSpiCard8readDataEPhj+0x46>
  }
  uint8_t spiReceive() {
    return m_spiDriver->receive();
  }
  uint8_t spiReceive(uint8_t* buf, size_t n) {
    return  m_spiDriver->receive(buf, n);
   d6cf6:	4632      	mov	r2, r6
   d6cf8:	4629      	mov	r1, r5
   d6cfa:	6860      	ldr	r0, [r4, #4]
   d6cfc:	f000 fa5e 	bl	d71bc <_ZN14SdSpiAltDriver7receiveEPhj>
    error(SD_CARD_ERROR_READ);
    goto fail;
  }
  // transfer data
  if ((m_status = spiReceive(dst, count))) {
   d6d00:	7260      	strb	r0, [r4, #9]
   d6d02:	b130      	cbz	r0, d6d12 <_ZN9SdSpiCard8readDataEPhj+0x52>
  /**
   *  Set SD error code.
   *  \param[in] code value for error code.
   */
  void error(uint8_t code) {
    m_errorCode = code;
   d6d04:	2360      	movs	r3, #96	; 0x60
  spiReceive();
#endif  // USE_SD_CRC
  return true;

fail:
  spiStop();
   d6d06:	4620      	mov	r0, r4
   d6d08:	7023      	strb	r3, [r4, #0]
   d6d0a:	f7ff ffc6 	bl	d6c9a <_ZN9SdSpiCard7spiStopEv>
  return false;
   d6d0e:	2000      	movs	r0, #0
}
   d6d10:	bdf8      	pop	{r3, r4, r5, r6, r7, pc}
  }
  void spiDeactivate() {
    m_spiDriver->deactivate();
  }
  uint8_t spiReceive() {
    return m_spiDriver->receive();
   d6d12:	6860      	ldr	r0, [r4, #4]
   d6d14:	f000 fa4d 	bl	d71b2 <_ZN14SdSpiAltDriver7receiveEv>
   d6d18:	6860      	ldr	r0, [r4, #4]
   d6d1a:	f000 fa4a 	bl	d71b2 <_ZN14SdSpiAltDriver7receiveEv>
   d6d1e:	2001      	movs	r0, #1
   d6d20:	bdf8      	pop	{r3, r4, r5, r6, r7, pc}

000d6d22 <_ZN9SdSpiCard11waitNotBusyEt>:
  spiStop();
  return false;
}
//------------------------------------------------------------------------------
// wait for card to go not busy
bool SdSpiCard::waitNotBusy(uint16_t timeoutMS) {
   d6d22:	b570      	push	{r4, r5, r6, lr}
   d6d24:	4604      	mov	r4, r0
   d6d26:	460e      	mov	r6, r1
   d6d28:	f000 fb5c 	bl	d73e4 <HAL_Timer_Get_Milli_Seconds>
   d6d2c:	b285      	uxth	r5, r0
  uint16_t t0 = curTimeMS();
#if WDT_YIELD_TIME_MICROS
  // Call isTimedOut first to insure yield is called.
  while (!isTimedOut(t0, timeoutMS)) {
   d6d2e:	4632      	mov	r2, r6
   d6d30:	4629      	mov	r1, r5
   d6d32:	4620      	mov	r0, r4
   d6d34:	f7ff ff7e 	bl	d6c34 <_ZN9SdSpiCard10isTimedOutEtt>
   d6d38:	b930      	cbnz	r0, d6d48 <_ZN9SdSpiCard11waitNotBusyEt+0x26>
   d6d3a:	6860      	ldr	r0, [r4, #4]
   d6d3c:	f000 fa39 	bl	d71b2 <_ZN14SdSpiAltDriver7receiveEv>
    if (spiReceive() == 0XFF) {
   d6d40:	28ff      	cmp	r0, #255	; 0xff
   d6d42:	d1f4      	bne.n	d6d2e <_ZN9SdSpiCard11waitNotBusyEt+0xc>
      return true;
   d6d44:	2001      	movs	r0, #1
   d6d46:	bd70      	pop	{r4, r5, r6, pc}
    }
  }
  return false;
   d6d48:	2000      	movs	r0, #0
      return false;
    }
  }
  return true;
#endif  // WDT_YIELD_TIME_MICROS
}
   d6d4a:	bd70      	pop	{r4, r5, r6, pc}

000d6d4c <_ZN9SdSpiCard11cardCommandEhm>:
  spiStop();
  return false;
}
//------------------------------------------------------------------------------
// send command and return error code.  Return zero for OK
uint8_t SdSpiCard::cardCommand(uint8_t cmd, uint32_t arg) {
   d6d4c:	b5f7      	push	{r0, r1, r2, r4, r5, r6, r7, lr}
  // select card
  if (!m_spiActive) {
   d6d4e:	7a03      	ldrb	r3, [r0, #8]
  spiStop();
  return false;
}
//------------------------------------------------------------------------------
// send command and return error code.  Return zero for OK
uint8_t SdSpiCard::cardCommand(uint8_t cmd, uint32_t arg) {
   d6d50:	9201      	str	r2, [sp, #4]
   d6d52:	4604      	mov	r4, r0
   d6d54:	460d      	mov	r5, r1
  // select card
  if (!m_spiActive) {
   d6d56:	b90b      	cbnz	r3, d6d5c <_ZN9SdSpiCard11cardCommandEhm+0x10>
    spiStart();
   d6d58:	f7ff ff90 	bl	d6c7c <_ZN9SdSpiCard8spiStartEv>
  }
  // wait if busy unless CMD0
  if (cmd != CMD0) {
   d6d5c:	b125      	cbz	r5, d6d68 <_ZN9SdSpiCard11cardCommandEhm+0x1c>
    DBG_BEGIN_TIME(DBG_CMD_BUSY);
    waitNotBusy(SD_CMD_TIMEOUT);
   d6d5e:	f44f 7196 	mov.w	r1, #300	; 0x12c
   d6d62:	4620      	mov	r0, r4
   d6d64:	f7ff ffdd 	bl	d6d22 <_ZN9SdSpiCard11waitNotBusyEt>
  }
  uint8_t spiReceive(uint8_t* buf, size_t n) {
    return  m_spiDriver->receive(buf, n);
  }
  void spiSend(uint8_t data) {
     m_spiDriver->send(data);
   d6d68:	f045 0140 	orr.w	r1, r5, #64	; 0x40
   d6d6c:	6860      	ldr	r0, [r4, #4]
   d6d6e:	f000 fa3b 	bl	d71e8 <_ZN14SdSpiAltDriver4sendEh>
   d6d72:	f10d 0607 	add.w	r6, sp, #7
   d6d76:	f10d 0703 	add.w	r7, sp, #3
   d6d7a:	f816 1901 	ldrb.w	r1, [r6], #-1
   d6d7e:	6860      	ldr	r0, [r4, #4]
   d6d80:	f000 fa32 	bl	d71e8 <_ZN14SdSpiAltDriver4sendEh>
  // send command
  spiSend(cmd | 0x40);

  // send argument
  uint8_t *pa = reinterpret_cast<uint8_t *>(&arg);
  for (int8_t i = 3; i >= 0; i--) {
   d6d84:	42be      	cmp	r6, r7
   d6d86:	d1f8      	bne.n	d6d7a <_ZN9SdSpiCard11cardCommandEhm+0x2e>
    spiSend(pa[i]);
  }
  // send CRC - correct for CMD0 with arg zero or CMD8 with arg 0X1AA
  spiSend(cmd == CMD0 ? 0X95 : 0X87);
   d6d88:	2d00      	cmp	r5, #0
   d6d8a:	bf0c      	ite	eq
   d6d8c:	2195      	moveq	r1, #149	; 0x95
   d6d8e:	2187      	movne	r1, #135	; 0x87
   d6d90:	6860      	ldr	r0, [r4, #4]
   d6d92:	f000 fa29 	bl	d71e8 <_ZN14SdSpiAltDriver4sendEh>
  }
  void spiDeactivate() {
    m_spiDriver->deactivate();
  }
  uint8_t spiReceive() {
    return m_spiDriver->receive();
   d6d96:	6860      	ldr	r0, [r4, #4]
   d6d98:	f000 fa0b 	bl	d71b2 <_ZN14SdSpiAltDriver7receiveEv>
   d6d9c:	250b      	movs	r5, #11
   d6d9e:	6860      	ldr	r0, [r4, #4]
   d6da0:	f000 fa07 	bl	d71b2 <_ZN14SdSpiAltDriver7receiveEv>

  // discard first fill byte to avoid MISO pull-up problem.
  spiReceive();

  // there are 1-8 fill bytes before response.  fill bytes should be 0XFF.
  for (uint8_t i = 0; ((m_status = spiReceive()) & 0X80) && i < 10; i++) {
   d6da4:	0603      	lsls	r3, r0, #24
   d6da6:	7260      	strb	r0, [r4, #9]
   d6da8:	d503      	bpl.n	d6db2 <_ZN9SdSpiCard11cardCommandEhm+0x66>
   d6daa:	3d01      	subs	r5, #1
   d6dac:	f015 05ff 	ands.w	r5, r5, #255	; 0xff
   d6db0:	d1f5      	bne.n	d6d9e <_ZN9SdSpiCard11cardCommandEhm+0x52>
  }
  return m_status;
}
   d6db2:	b003      	add	sp, #12
   d6db4:	bdf0      	pop	{r4, r5, r6, r7, pc}

000d6db6 <_ZN9SdSpiCard8cardAcmdEhm>:
  /** Set CS high and deactivate the card. */
  void spiStop();

 private:
  // private functions
  uint8_t cardAcmd(uint8_t cmd, uint32_t arg) {
   d6db6:	b570      	push	{r4, r5, r6, lr}
   d6db8:	4604      	mov	r4, r0
   d6dba:	460d      	mov	r5, r1
   d6dbc:	4616      	mov	r6, r2
    cardCommand(CMD55, 0);
   d6dbe:	2137      	movs	r1, #55	; 0x37
   d6dc0:	2200      	movs	r2, #0
   d6dc2:	f7ff ffc3 	bl	d6d4c <_ZN9SdSpiCard11cardCommandEhm>
    return cardCommand(cmd, arg);
   d6dc6:	4632      	mov	r2, r6
   d6dc8:	4629      	mov	r1, r5
   d6dca:	4620      	mov	r0, r4
  }
   d6dcc:	e8bd 4070 	ldmia.w	sp!, {r4, r5, r6, lr}

 private:
  // private functions
  uint8_t cardAcmd(uint8_t cmd, uint32_t arg) {
    cardCommand(CMD55, 0);
    return cardCommand(cmd, arg);
   d6dd0:	f7ff bfbc 	b.w	d6d4c <_ZN9SdSpiCard11cardCommandEhm>

000d6dd4 <_ZN9SdSpiCard5beginEP14SdSpiAltDriverhN8particle13__SPISettingsE>:
#endif  // CRC_CCITT
#endif  // USE_SD_CRC
//==============================================================================
// SdSpiCard member functions
//------------------------------------------------------------------------------
bool SdSpiCard::begin(SdSpiDriver* spi, uint8_t csPin, SPISettings settings) {
   d6dd4:	e92d 41f0 	stmdb	sp!, {r4, r5, r6, r7, r8, lr}
  m_spiActive = false;
   d6dd8:	2500      	movs	r5, #0
   d6dda:	7205      	strb	r5, [r0, #8]
  m_errorCode = SD_CARD_ERROR_NONE;
   d6ddc:	7005      	strb	r5, [r0, #0]
  m_type = 0;
   d6dde:	7285      	strb	r5, [r0, #10]
  m_spiDriver = spi;
   d6de0:	6041      	str	r1, [r0, #4]
#endif  // CRC_CCITT
#endif  // USE_SD_CRC
//==============================================================================
// SdSpiCard member functions
//------------------------------------------------------------------------------
bool SdSpiCard::begin(SdSpiDriver* spi, uint8_t csPin, SPISettings settings) {
   d6de2:	4604      	mov	r4, r0
   d6de4:	4690      	mov	r8, r2
   d6de6:	461e      	mov	r6, r3
   d6de8:	f000 fafc 	bl	d73e4 <HAL_Timer_Get_Milli_Seconds>
  m_type = 0;
  m_spiDriver = spi;
  uint16_t t0 = curTimeMS();
  uint32_t arg;

  m_spiDriver->begin(csPin);
   d6dec:	4641      	mov	r1, r8
   d6dee:	4607      	mov	r7, r0
   d6df0:	6860      	ldr	r0, [r4, #4]
   d6df2:	f000 f9cb 	bl	d718c <_ZN14SdSpiAltDriver5beginEh>
  m_spiDriver->setSpiSettings(SD_SCK_HZ(250000));
   d6df6:	6863      	ldr	r3, [r4, #4]
    SPI_CLK_ARDUINO = 16*MHZ,
    SPI_CLK_PHOTON = 60*MHZ
};

namespace particle {
class __SPISettings : public Printable {
   d6df8:	4a4f      	ldr	r2, [pc, #316]	; (d6f38 <_ZN9SdSpiCard5beginEP14SdSpiAltDriverhN8particle13__SPISettingsE+0x164>)
   d6dfa:	721d      	strb	r5, [r3, #8]
   d6dfc:	f04f 0801 	mov.w	r8, #1
   d6e00:	60da      	str	r2, [r3, #12]
   d6e02:	745d      	strb	r5, [r3, #17]
   d6e04:	f883 8010 	strb.w	r8, [r3, #16]
  spiStart();
   d6e08:	4620      	mov	r0, r4
   d6e0a:	f7ff ff37 	bl	d6c7c <_ZN9SdSpiCard8spiStartEv>
   d6e0e:	6863      	ldr	r3, [r4, #4]
   d6e10:	4641      	mov	r1, r8
   d6e12:	7d18      	ldrb	r0, [r3, #20]
   d6e14:	f002 f801 	bl	d8e1a <digitalWrite>
   d6e18:	250a      	movs	r5, #10
  }
  uint8_t spiReceive(uint8_t* buf, size_t n) {
    return  m_spiDriver->receive(buf, n);
  }
  void spiSend(uint8_t data) {
     m_spiDriver->send(data);
   d6e1a:	21ff      	movs	r1, #255	; 0xff
   d6e1c:	6860      	ldr	r0, [r4, #4]
   d6e1e:	3d01      	subs	r5, #1
   d6e20:	f000 f9e2 	bl	d71e8 <_ZN14SdSpiAltDriver4sendEh>

  // must supply min of 74 clock cycles with CS high.
  spiUnselect();
  for (uint8_t i = 0; i < 10; i++) {
   d6e24:	f015 05ff 	ands.w	r5, r5, #255	; 0xff
   d6e28:	d1f7      	bne.n	d6e1a <_ZN9SdSpiCard5beginEP14SdSpiAltDriverhN8particle13__SPISettingsE+0x46>
   d6e2a:	6863      	ldr	r3, [r4, #4]
   * \param[in] n Number of bytes to send.
   */
  void send(const uint8_t* buf, size_t n);
  /** Set CS low. */
  void select() {
     digitalWrite(m_csPin, LOW);
   d6e2c:	4629      	mov	r1, r5
   d6e2e:	7d18      	ldrb	r0, [r3, #20]
   d6e30:	f001 fff3 	bl	d8e1a <digitalWrite>
   d6e34:	250a      	movs	r5, #10

  DBG_BEGIN_TIME(DBG_CMD0_TIME);
  // command to go idle in SPI mode
  for (uint8_t i = 1;; i++) {
    DBG_EVENT_COUNT(DBG_CMD0_COUNT);
    if (cardCommand(CMD0, 0) == R1_IDLE_STATE) {
   d6e36:	2200      	movs	r2, #0
   d6e38:	4611      	mov	r1, r2
   d6e3a:	4620      	mov	r0, r4
   d6e3c:	f7ff ff86 	bl	d6d4c <_ZN9SdSpiCard11cardCommandEhm>
   d6e40:	2801      	cmp	r0, #1
   d6e42:	4680      	mov	r8, r0
   d6e44:	d012      	beq.n	d6e6c <_ZN9SdSpiCard5beginEP14SdSpiAltDriverhN8particle13__SPISettingsE+0x98>
   d6e46:	3d01      	subs	r5, #1
      break;
    }
    if (i == SD_CMD0_RETRY) {
   d6e48:	f015 05ff 	ands.w	r5, r5, #255	; 0xff
   d6e4c:	d101      	bne.n	d6e52 <_ZN9SdSpiCard5beginEP14SdSpiAltDriverhN8particle13__SPISettingsE+0x7e>
  /**
   *  Set SD error code.
   *  \param[in] code value for error code.
   */
  void error(uint8_t code) {
    m_errorCode = code;
   d6e4e:	2320      	movs	r3, #32
   d6e50:	e057      	b.n	d6f02 <_ZN9SdSpiCard5beginEP14SdSpiAltDriverhN8particle13__SPISettingsE+0x12e>
  }
  uint8_t spiReceive(uint8_t* buf, size_t n) {
    return  m_spiDriver->receive(buf, n);
  }
  void spiSend(uint8_t data) {
     m_spiDriver->send(data);
   d6e52:	21fd      	movs	r1, #253	; 0xfd
   d6e54:	6860      	ldr	r0, [r4, #4]
   d6e56:	f000 f9c7 	bl	d71e8 <_ZN14SdSpiAltDriver4sendEh>
   d6e5a:	f44f 7802 	mov.w	r8, #520	; 0x208
  }
  void spiDeactivate() {
    m_spiDriver->deactivate();
  }
  uint8_t spiReceive() {
    return m_spiDriver->receive();
   d6e5e:	6860      	ldr	r0, [r4, #4]
   d6e60:	f000 f9a7 	bl	d71b2 <_ZN14SdSpiAltDriver7receiveEv>
      goto fail;
    }
    // stop multi-block write
    spiSend(STOP_TRAN_TOKEN);
    // finish block transfer
    for (int i = 0; i < 520; i++) {
   d6e64:	f1b8 0801 	subs.w	r8, r8, #1
   d6e68:	d1f9      	bne.n	d6e5e <_ZN9SdSpiCard5beginEP14SdSpiAltDriverhN8particle13__SPISettingsE+0x8a>
   d6e6a:	e7e4      	b.n	d6e36 <_ZN9SdSpiCard5beginEP14SdSpiAltDriverhN8particle13__SPISettingsE+0x62>
    error(SD_CARD_ERROR_CMD59);
    goto fail;
  }
#endif  // USE_SD_CRC
  // check SD version
  if (cardCommand(CMD8, 0x1AA) == (R1_ILLEGAL_COMMAND | R1_IDLE_STATE)) {
   d6e6c:	f44f 72d5 	mov.w	r2, #426	; 0x1aa
   d6e70:	2108      	movs	r1, #8
   d6e72:	4620      	mov	r0, r4
   d6e74:	f7ff ff6a 	bl	d6d4c <_ZN9SdSpiCard11cardCommandEhm>
   d6e78:	2805      	cmp	r0, #5
   d6e7a:	d102      	bne.n	d6e82 <_ZN9SdSpiCard5beginEP14SdSpiAltDriverhN8particle13__SPISettingsE+0xae>
  bool isTimedOut(uint16_t startMS, uint16_t timeoutMS);
  bool readData(uint8_t* dst, size_t count);
  bool readRegister(uint8_t cmd, void* buf);

  void type(uint8_t value) {
    m_type = value;
   d6e7c:	f884 800a 	strb.w	r8, [r4, #10]
   d6e80:	e00f      	b.n	d6ea2 <_ZN9SdSpiCard5beginEP14SdSpiAltDriverhN8particle13__SPISettingsE+0xce>
   d6e82:	2504      	movs	r5, #4
  }
  void spiDeactivate() {
    m_spiDriver->deactivate();
  }
  uint8_t spiReceive() {
    return m_spiDriver->receive();
   d6e84:	6860      	ldr	r0, [r4, #4]
   d6e86:	f000 f994 	bl	d71b2 <_ZN14SdSpiAltDriver7receiveEv>
   d6e8a:	3d01      	subs	r5, #1
    type(SD_CARD_TYPE_SD1);
  } else {
    for (uint8_t i = 0; i < 4; i++) {
   d6e8c:	f015 05ff 	ands.w	r5, r5, #255	; 0xff
      m_status = spiReceive();
   d6e90:	7260      	strb	r0, [r4, #9]
#endif  // USE_SD_CRC
  // check SD version
  if (cardCommand(CMD8, 0x1AA) == (R1_ILLEGAL_COMMAND | R1_IDLE_STATE)) {
    type(SD_CARD_TYPE_SD1);
  } else {
    for (uint8_t i = 0; i < 4; i++) {
   d6e92:	d1f7      	bne.n	d6e84 <_ZN9SdSpiCard5beginEP14SdSpiAltDriverhN8particle13__SPISettingsE+0xb0>
      m_status = spiReceive();
    }
    if (m_status == 0XAA) {
   d6e94:	28aa      	cmp	r0, #170	; 0xaa
   d6e96:	d102      	bne.n	d6e9e <_ZN9SdSpiCard5beginEP14SdSpiAltDriverhN8particle13__SPISettingsE+0xca>
  bool isTimedOut(uint16_t startMS, uint16_t timeoutMS);
  bool readData(uint8_t* dst, size_t count);
  bool readRegister(uint8_t cmd, void* buf);

  void type(uint8_t value) {
    m_type = value;
   d6e98:	2302      	movs	r3, #2
   d6e9a:	72a3      	strb	r3, [r4, #10]
   d6e9c:	e001      	b.n	d6ea2 <_ZN9SdSpiCard5beginEP14SdSpiAltDriverhN8particle13__SPISettingsE+0xce>
  /**
   *  Set SD error code.
   *  \param[in] code value for error code.
   */
  void error(uint8_t code) {
    m_errorCode = code;
   d6e9e:	2325      	movs	r3, #37	; 0x25
   d6ea0:	e02f      	b.n	d6f02 <_ZN9SdSpiCard5beginEP14SdSpiAltDriverhN8particle13__SPISettingsE+0x12e>
      error(SD_CARD_ERROR_CMD8);
      goto fail;
    }
  }
  // initialize card and send host supports SDHC if SD2
  arg = type() == SD_CARD_TYPE_SD2 ? 0X40000000 : 0;
   d6ea2:	7aa3      	ldrb	r3, [r4, #10]
   d6ea4:	2b02      	cmp	r3, #2
   d6ea6:	bf0c      	ite	eq
   d6ea8:	f04f 4580 	moveq.w	r5, #1073741824	; 0x40000000
   d6eac:	2500      	movne	r5, #0
  DBG_BEGIN_TIME(DBG_ACMD41_TIME);
  while (cardAcmd(ACMD41, arg) != R1_READY_STATE) {
    DBG_EVENT_COUNT(DBG_ACMD41_COUNT);
    // check for timeout
    if (isTimedOut(t0, SD_INIT_TIMEOUT)) {
   d6eae:	b2bf      	uxth	r7, r7
    }
  }
  // initialize card and send host supports SDHC if SD2
  arg = type() == SD_CARD_TYPE_SD2 ? 0X40000000 : 0;
  DBG_BEGIN_TIME(DBG_ACMD41_TIME);
  while (cardAcmd(ACMD41, arg) != R1_READY_STATE) {
   d6eb0:	462a      	mov	r2, r5
   d6eb2:	2129      	movs	r1, #41	; 0x29
   d6eb4:	4620      	mov	r0, r4
   d6eb6:	f7ff ff7e 	bl	d6db6 <_ZN9SdSpiCard8cardAcmdEhm>
   d6eba:	4602      	mov	r2, r0
   d6ebc:	b148      	cbz	r0, d6ed2 <_ZN9SdSpiCard5beginEP14SdSpiAltDriverhN8particle13__SPISettingsE+0xfe>
    DBG_EVENT_COUNT(DBG_ACMD41_COUNT);
    // check for timeout
    if (isTimedOut(t0, SD_INIT_TIMEOUT)) {
   d6ebe:	f44f 62fa 	mov.w	r2, #2000	; 0x7d0
   d6ec2:	4639      	mov	r1, r7
   d6ec4:	4620      	mov	r0, r4
   d6ec6:	f7ff feb5 	bl	d6c34 <_ZN9SdSpiCard10isTimedOutEtt>
   d6eca:	2800      	cmp	r0, #0
   d6ecc:	d0f0      	beq.n	d6eb0 <_ZN9SdSpiCard5beginEP14SdSpiAltDriverhN8particle13__SPISettingsE+0xdc>
   d6ece:	2343      	movs	r3, #67	; 0x43
   d6ed0:	e017      	b.n	d6f02 <_ZN9SdSpiCard5beginEP14SdSpiAltDriverhN8particle13__SPISettingsE+0x12e>
      goto fail;
    }
  }
  DBG_END_TIME(DBG_ACMD41_TIME);
  // if SD2 read OCR register to check for SDHC card
  if (type() == SD_CARD_TYPE_SD2) {
   d6ed2:	7aa3      	ldrb	r3, [r4, #10]
   d6ed4:	2b02      	cmp	r3, #2
   d6ed6:	d00e      	beq.n	d6ef6 <_ZN9SdSpiCard5beginEP14SdSpiAltDriverhN8particle13__SPISettingsE+0x122>
    // Discard rest of ocr - contains allowed voltage range.
    for (uint8_t i = 0; i < 3; i++) {
      spiReceive();
    }
  }
  spiStop();
   d6ed8:	4620      	mov	r0, r4
   d6eda:	f7ff fede 	bl	d6c9a <_ZN9SdSpiCard7spiStopEv>
  m_spiDriver->setSpiSettings(settings);
   d6ede:	6863      	ldr	r3, [r4, #4]
   d6ee0:	68b0      	ldr	r0, [r6, #8]
   d6ee2:	7934      	ldrb	r4, [r6, #4]
   d6ee4:	7b31      	ldrb	r1, [r6, #12]
   d6ee6:	7b72      	ldrb	r2, [r6, #13]
   d6ee8:	745a      	strb	r2, [r3, #17]
   d6eea:	60d8      	str	r0, [r3, #12]
   d6eec:	721c      	strb	r4, [r3, #8]
   d6eee:	7419      	strb	r1, [r3, #16]
  return true;
   d6ef0:	2001      	movs	r0, #1
   d6ef2:	e8bd 81f0 	ldmia.w	sp!, {r4, r5, r6, r7, r8, pc}
    }
  }
  DBG_END_TIME(DBG_ACMD41_TIME);
  // if SD2 read OCR register to check for SDHC card
  if (type() == SD_CARD_TYPE_SD2) {
    if (cardCommand(CMD58, 0)) {
   d6ef6:	213a      	movs	r1, #58	; 0x3a
   d6ef8:	4620      	mov	r0, r4
   d6efa:	f7ff ff27 	bl	d6d4c <_ZN9SdSpiCard11cardCommandEhm>
   d6efe:	b138      	cbz	r0, d6f10 <_ZN9SdSpiCard5beginEP14SdSpiAltDriverhN8particle13__SPISettingsE+0x13c>
   d6f00:	2337      	movs	r3, #55	; 0x37
  spiStop();
  m_spiDriver->setSpiSettings(settings);
  return true;

fail:
  spiStop();
   d6f02:	4620      	mov	r0, r4
   d6f04:	7023      	strb	r3, [r4, #0]
   d6f06:	f7ff fec8 	bl	d6c9a <_ZN9SdSpiCard7spiStopEv>
  return false;
   d6f0a:	2000      	movs	r0, #0
}
   d6f0c:	e8bd 81f0 	ldmia.w	sp!, {r4, r5, r6, r7, r8, pc}
  }
  void spiDeactivate() {
    m_spiDriver->deactivate();
  }
  uint8_t spiReceive() {
    return m_spiDriver->receive();
   d6f10:	6860      	ldr	r0, [r4, #4]
   d6f12:	f000 f94e 	bl	d71b2 <_ZN14SdSpiAltDriver7receiveEv>
  if (type() == SD_CARD_TYPE_SD2) {
    if (cardCommand(CMD58, 0)) {
      error(SD_CARD_ERROR_CMD58);
      goto fail;
    }
    if ((spiReceive() & 0XC0) == 0XC0) {
   d6f16:	f000 00c0 	and.w	r0, r0, #192	; 0xc0
   d6f1a:	28c0      	cmp	r0, #192	; 0xc0
  bool isTimedOut(uint16_t startMS, uint16_t timeoutMS);
  bool readData(uint8_t* dst, size_t count);
  bool readRegister(uint8_t cmd, void* buf);

  void type(uint8_t value) {
    m_type = value;
   d6f1c:	bf04      	itt	eq
   d6f1e:	2303      	moveq	r3, #3
   d6f20:	72a3      	strbeq	r3, [r4, #10]
  }
  void spiDeactivate() {
    m_spiDriver->deactivate();
  }
  uint8_t spiReceive() {
    return m_spiDriver->receive();
   d6f22:	6860      	ldr	r0, [r4, #4]
   d6f24:	f000 f945 	bl	d71b2 <_ZN14SdSpiAltDriver7receiveEv>
   d6f28:	6860      	ldr	r0, [r4, #4]
   d6f2a:	f000 f942 	bl	d71b2 <_ZN14SdSpiAltDriver7receiveEv>
   d6f2e:	6860      	ldr	r0, [r4, #4]
   d6f30:	f000 f93f 	bl	d71b2 <_ZN14SdSpiAltDriver7receiveEv>
   d6f34:	e7d0      	b.n	d6ed8 <_ZN9SdSpiCard5beginEP14SdSpiAltDriverhN8particle13__SPISettingsE+0x104>
   d6f36:	bf00      	nop
   d6f38:	0003d090 	.word	0x0003d090

000d6f3c <_ZN9SdSpiCard9readBlockEmPh>:
  }
#endif  // WDT_YIELD_TIME_MICROS
  return (curTimeMS() - startMS) > timeoutMS;
}
//------------------------------------------------------------------------------
bool SdSpiCard::readBlock(uint32_t blockNumber, uint8_t* dst) {
   d6f3c:	b538      	push	{r3, r4, r5, lr}
  SD_TRACE("RB", blockNumber);
  // use address if not SDHC card
  if (type() != SD_CARD_TYPE_SDHC) {
   d6f3e:	7a83      	ldrb	r3, [r0, #10]
   d6f40:	2b03      	cmp	r3, #3
    blockNumber <<= 9;
   d6f42:	bf18      	it	ne
   d6f44:	0249      	lslne	r1, r1, #9
  }
#endif  // WDT_YIELD_TIME_MICROS
  return (curTimeMS() - startMS) > timeoutMS;
}
//------------------------------------------------------------------------------
bool SdSpiCard::readBlock(uint32_t blockNumber, uint8_t* dst) {
   d6f46:	4615      	mov	r5, r2
  SD_TRACE("RB", blockNumber);
  // use address if not SDHC card
  if (type() != SD_CARD_TYPE_SDHC) {
    blockNumber <<= 9;
  }
  if (cardCommand(CMD17, blockNumber)) {
   d6f48:	460a      	mov	r2, r1
   d6f4a:	2111      	movs	r1, #17
  }
#endif  // WDT_YIELD_TIME_MICROS
  return (curTimeMS() - startMS) > timeoutMS;
}
//------------------------------------------------------------------------------
bool SdSpiCard::readBlock(uint32_t blockNumber, uint8_t* dst) {
   d6f4c:	4604      	mov	r4, r0
  SD_TRACE("RB", blockNumber);
  // use address if not SDHC card
  if (type() != SD_CARD_TYPE_SDHC) {
    blockNumber <<= 9;
  }
  if (cardCommand(CMD17, blockNumber)) {
   d6f4e:	f7ff fefd 	bl	d6d4c <_ZN9SdSpiCard11cardCommandEhm>
   d6f52:	b110      	cbz	r0, d6f5a <_ZN9SdSpiCard9readBlockEmPh+0x1e>
  /**
   *  Set SD error code.
   *  \param[in] code value for error code.
   */
  void error(uint8_t code) {
    m_errorCode = code;
   d6f54:	2330      	movs	r3, #48	; 0x30
   d6f56:	7023      	strb	r3, [r4, #0]
   d6f58:	e00b      	b.n	d6f72 <_ZN9SdSpiCard9readBlockEmPh+0x36>
    error(SD_CARD_ERROR_CMD17);
    goto fail;
  }
  if (!readData(dst, 512)) {
   d6f5a:	4629      	mov	r1, r5
   d6f5c:	f44f 7200 	mov.w	r2, #512	; 0x200
   d6f60:	4620      	mov	r0, r4
   d6f62:	f7ff fead 	bl	d6cc0 <_ZN9SdSpiCard8readDataEPhj>
   d6f66:	4605      	mov	r5, r0
   d6f68:	b118      	cbz	r0, d6f72 <_ZN9SdSpiCard9readBlockEmPh+0x36>
    goto fail;
  }
  spiStop();
   d6f6a:	4620      	mov	r0, r4
   d6f6c:	f7ff fe95 	bl	d6c9a <_ZN9SdSpiCard7spiStopEv>
  return true;
   d6f70:	e003      	b.n	d6f7a <_ZN9SdSpiCard9readBlockEmPh+0x3e>

fail:
  spiStop();
   d6f72:	4620      	mov	r0, r4
   d6f74:	f7ff fe91 	bl	d6c9a <_ZN9SdSpiCard7spiStopEv>
  return false;
   d6f78:	2500      	movs	r5, #0
}
   d6f7a:	4628      	mov	r0, r5
   d6f7c:	bd38      	pop	{r3, r4, r5, pc}

000d6f7e <_ZN9SdSpiCard9readStartEm>:
fail:
  spiStop();
  return false;
}
//------------------------------------------------------------------------------
bool SdSpiCard::readStart(uint32_t blockNumber) {
   d6f7e:	b510      	push	{r4, lr}
  SD_TRACE("RS", blockNumber);
  if (type() != SD_CARD_TYPE_SDHC) {
   d6f80:	7a83      	ldrb	r3, [r0, #10]
   d6f82:	2b03      	cmp	r3, #3
fail:
  spiStop();
  return false;
}
//------------------------------------------------------------------------------
bool SdSpiCard::readStart(uint32_t blockNumber) {
   d6f84:	460a      	mov	r2, r1
  SD_TRACE("RS", blockNumber);
  if (type() != SD_CARD_TYPE_SDHC) {
    blockNumber <<= 9;
   d6f86:	bf18      	it	ne
   d6f88:	024a      	lslne	r2, r1, #9
  }
  if (cardCommand(CMD18, blockNumber)) {
   d6f8a:	2112      	movs	r1, #18
fail:
  spiStop();
  return false;
}
//------------------------------------------------------------------------------
bool SdSpiCard::readStart(uint32_t blockNumber) {
   d6f8c:	4604      	mov	r4, r0
  SD_TRACE("RS", blockNumber);
  if (type() != SD_CARD_TYPE_SDHC) {
    blockNumber <<= 9;
  }
  if (cardCommand(CMD18, blockNumber)) {
   d6f8e:	f7ff fedd 	bl	d6d4c <_ZN9SdSpiCard11cardCommandEhm>
   d6f92:	b130      	cbz	r0, d6fa2 <_ZN9SdSpiCard9readStartEm+0x24>
   d6f94:	2331      	movs	r3, #49	; 0x31
  }
//  spiStop();
  return true;

fail:
  spiStop();
   d6f96:	4620      	mov	r0, r4
   d6f98:	7023      	strb	r3, [r4, #0]
   d6f9a:	f7ff fe7e 	bl	d6c9a <_ZN9SdSpiCard7spiStopEv>
  return false;
   d6f9e:	2000      	movs	r0, #0
   d6fa0:	bd10      	pop	{r4, pc}
  if (cardCommand(CMD18, blockNumber)) {
    error(SD_CARD_ERROR_CMD18);
    goto fail;
  }
//  spiStop();
  return true;
   d6fa2:	2001      	movs	r0, #1

fail:
  spiStop();
  return false;
}
   d6fa4:	bd10      	pop	{r4, pc}

000d6fa6 <_ZN9SdSpiCard8readStopEv>:
    spiDeactivate();
    m_spiActive = false;
  }
}
//------------------------------------------------------------------------------
bool SdSpiCard::readStop() {
   d6fa6:	b510      	push	{r4, lr}
  if (cardCommand(CMD12, 0)) {
   d6fa8:	2200      	movs	r2, #0
   d6faa:	210c      	movs	r1, #12
    spiDeactivate();
    m_spiActive = false;
  }
}
//------------------------------------------------------------------------------
bool SdSpiCard::readStop() {
   d6fac:	4604      	mov	r4, r0
  if (cardCommand(CMD12, 0)) {
   d6fae:	f7ff fecd 	bl	d6d4c <_ZN9SdSpiCard11cardCommandEhm>
   d6fb2:	b130      	cbz	r0, d6fc2 <_ZN9SdSpiCard8readStopEv+0x1c>
   d6fb4:	2328      	movs	r3, #40	; 0x28
  }
  spiStop();
  return true;

fail:
  spiStop();
   d6fb6:	4620      	mov	r0, r4
   d6fb8:	7023      	strb	r3, [r4, #0]
   d6fba:	f7ff fe6e 	bl	d6c9a <_ZN9SdSpiCard7spiStopEv>
  return false;
   d6fbe:	2000      	movs	r0, #0
   d6fc0:	bd10      	pop	{r4, pc}
bool SdSpiCard::readStop() {
  if (cardCommand(CMD12, 0)) {
    error(SD_CARD_ERROR_CMD12);
    goto fail;
  }
  spiStop();
   d6fc2:	4620      	mov	r0, r4
   d6fc4:	f7ff fe69 	bl	d6c9a <_ZN9SdSpiCard7spiStopEv>
  return true;
   d6fc8:	2001      	movs	r0, #1

fail:
  spiStop();
  return false;
}
   d6fca:	bd10      	pop	{r4, pc}

000d6fcc <_ZN9SdSpiCard10readBlocksEmPhj>:
fail:
  spiStop();
  return false;
}
//------------------------------------------------------------------------------
bool SdSpiCard::readBlocks(uint32_t block, uint8_t* dst, size_t count) {
   d6fcc:	b5f8      	push	{r3, r4, r5, r6, r7, lr}
   d6fce:	4605      	mov	r5, r0
   d6fd0:	4616      	mov	r6, r2
   d6fd2:	461f      	mov	r7, r3
  if (!readStart(block)) {
   d6fd4:	f7ff ffd3 	bl	d6f7e <_ZN9SdSpiCard9readStartEm>
   d6fd8:	b198      	cbz	r0, d7002 <_ZN9SdSpiCard10readBlocksEmPhj+0x36>
   d6fda:	2400      	movs	r4, #0
   d6fdc:	b2a3      	uxth	r3, r4
    return false;
  }
  for (uint16_t b = 0; b < count; b++, dst += 512) {
   d6fde:	429f      	cmp	r7, r3
   d6fe0:	eb06 2144 	add.w	r1, r6, r4, lsl #9
   d6fe4:	d908      	bls.n	d6ff8 <_ZN9SdSpiCard10readBlocksEmPhj+0x2c>
    if (!readData(dst, 512)) {
   d6fe6:	f44f 7200 	mov.w	r2, #512	; 0x200
   d6fea:	4628      	mov	r0, r5
   d6fec:	f7ff fe68 	bl	d6cc0 <_ZN9SdSpiCard8readDataEPhj>
   d6ff0:	3401      	adds	r4, #1
   d6ff2:	2800      	cmp	r0, #0
   d6ff4:	d1f2      	bne.n	d6fdc <_ZN9SdSpiCard10readBlocksEmPhj+0x10>
   d6ff6:	e004      	b.n	d7002 <_ZN9SdSpiCard10readBlocksEmPhj+0x36>
      return false;
    }
  }
  return readStop();
   d6ff8:	4628      	mov	r0, r5
}
   d6ffa:	e8bd 40f8 	ldmia.w	sp!, {r3, r4, r5, r6, r7, lr}
  for (uint16_t b = 0; b < count; b++, dst += 512) {
    if (!readData(dst, 512)) {
      return false;
    }
  }
  return readStop();
   d6ffe:	f7ff bfd2 	b.w	d6fa6 <_ZN9SdSpiCard8readStopEv>
}
   d7002:	2000      	movs	r0, #0
   d7004:	bdf8      	pop	{r3, r4, r5, r6, r7, pc}

000d7006 <_ZN9SdSpiCard9writeDataEhPKh>:
  spiStop();
  return false;
}
//------------------------------------------------------------------------------
// send one block of data for write block or write multiple blocks
bool SdSpiCard::writeData(uint8_t token, const uint8_t* src) {
   d7006:	b538      	push	{r3, r4, r5, lr}
   d7008:	4604      	mov	r4, r0
   d700a:	4615      	mov	r5, r2
  }
  uint8_t spiReceive(uint8_t* buf, size_t n) {
    return  m_spiDriver->receive(buf, n);
  }
  void spiSend(uint8_t data) {
     m_spiDriver->send(data);
   d700c:	6840      	ldr	r0, [r0, #4]
   d700e:	f000 f8eb 	bl	d71e8 <_ZN14SdSpiAltDriver4sendEh>
  }
  void spiSend(const uint8_t* buf, size_t n) {
    m_spiDriver->send(buf, n);
   d7012:	f44f 7200 	mov.w	r2, #512	; 0x200
   d7016:	4629      	mov	r1, r5
   d7018:	6860      	ldr	r0, [r4, #4]
   d701a:	f000 f8e9 	bl	d71f0 <_ZN14SdSpiAltDriver4sendEPKhj>
  }
  uint8_t spiReceive(uint8_t* buf, size_t n) {
    return  m_spiDriver->receive(buf, n);
  }
  void spiSend(uint8_t data) {
     m_spiDriver->send(data);
   d701e:	21ff      	movs	r1, #255	; 0xff
   d7020:	6860      	ldr	r0, [r4, #4]
   d7022:	f000 f8e1 	bl	d71e8 <_ZN14SdSpiAltDriver4sendEh>
   d7026:	21ff      	movs	r1, #255	; 0xff
   d7028:	6860      	ldr	r0, [r4, #4]
   d702a:	f000 f8dd 	bl	d71e8 <_ZN14SdSpiAltDriver4sendEh>
  }
  void spiDeactivate() {
    m_spiDriver->deactivate();
  }
  uint8_t spiReceive() {
    return m_spiDriver->receive();
   d702e:	6860      	ldr	r0, [r4, #4]
   d7030:	f000 f8bf 	bl	d71b2 <_ZN14SdSpiAltDriver7receiveEv>
  spiSend(token);
  spiSend(src, 512);
  spiSend(crc >> 8);
  spiSend(crc & 0XFF);

  m_status = spiReceive();
   d7034:	7260      	strb	r0, [r4, #9]
  if ((m_status & DATA_RES_MASK) != DATA_RES_ACCEPTED) {
   d7036:	f000 001f 	and.w	r0, r0, #31
   d703a:	2805      	cmp	r0, #5
   d703c:	d006      	beq.n	d704c <_ZN9SdSpiCard9writeDataEhPKh+0x46>
  /**
   *  Set SD error code.
   *  \param[in] code value for error code.
   */
  void error(uint8_t code) {
    m_errorCode = code;
   d703e:	2357      	movs	r3, #87	; 0x57
    goto fail;
  }
  return true;

fail:
  spiStop();
   d7040:	4620      	mov	r0, r4
   d7042:	7023      	strb	r3, [r4, #0]
   d7044:	f7ff fe29 	bl	d6c9a <_ZN9SdSpiCard7spiStopEv>
  return false;
   d7048:	2000      	movs	r0, #0
   d704a:	bd38      	pop	{r3, r4, r5, pc}
  m_status = spiReceive();
  if ((m_status & DATA_RES_MASK) != DATA_RES_ACCEPTED) {
    error(SD_CARD_ERROR_WRITE);
    goto fail;
  }
  return true;
   d704c:	2001      	movs	r0, #1

fail:
  spiStop();
  return false;
}
   d704e:	bd38      	pop	{r3, r4, r5, pc}

000d7050 <_ZN9SdSpiCard10writeBlockEmPKh>:
  }
  return true;
#endif  // WDT_YIELD_TIME_MICROS
}
//------------------------------------------------------------------------------
bool SdSpiCard::writeBlock(uint32_t blockNumber, const uint8_t* src) {
   d7050:	b570      	push	{r4, r5, r6, lr}
  SD_TRACE("WB", blockNumber);
  // use address if not SDHC card
  if (type() != SD_CARD_TYPE_SDHC) {
   d7052:	7a83      	ldrb	r3, [r0, #10]
   d7054:	2b03      	cmp	r3, #3
    blockNumber <<= 9;
   d7056:	bf18      	it	ne
   d7058:	0249      	lslne	r1, r1, #9
  }
  return true;
#endif  // WDT_YIELD_TIME_MICROS
}
//------------------------------------------------------------------------------
bool SdSpiCard::writeBlock(uint32_t blockNumber, const uint8_t* src) {
   d705a:	4615      	mov	r5, r2
  SD_TRACE("WB", blockNumber);
  // use address if not SDHC card
  if (type() != SD_CARD_TYPE_SDHC) {
    blockNumber <<= 9;
  }
  if (cardCommand(CMD24, blockNumber)) {
   d705c:	460a      	mov	r2, r1
   d705e:	2118      	movs	r1, #24
  }
  return true;
#endif  // WDT_YIELD_TIME_MICROS
}
//------------------------------------------------------------------------------
bool SdSpiCard::writeBlock(uint32_t blockNumber, const uint8_t* src) {
   d7060:	4604      	mov	r4, r0
  SD_TRACE("WB", blockNumber);
  // use address if not SDHC card
  if (type() != SD_CARD_TYPE_SDHC) {
    blockNumber <<= 9;
  }
  if (cardCommand(CMD24, blockNumber)) {
   d7062:	f7ff fe73 	bl	d6d4c <_ZN9SdSpiCard11cardCommandEhm>
   d7066:	4606      	mov	r6, r0
   d7068:	b108      	cbz	r0, d706e <_ZN9SdSpiCard10writeBlockEmPKh+0x1e>
   d706a:	2332      	movs	r3, #50	; 0x32
   d706c:	e01d      	b.n	d70aa <_ZN9SdSpiCard10writeBlockEmPKh+0x5a>
    error(SD_CARD_ERROR_CMD24);
    goto fail;
  }
  if (!writeData(DATA_START_BLOCK, src)) {
   d706e:	462a      	mov	r2, r5
   d7070:	21fe      	movs	r1, #254	; 0xfe
   d7072:	4620      	mov	r0, r4
   d7074:	f7ff ffc7 	bl	d7006 <_ZN9SdSpiCard9writeDataEhPKh>
   d7078:	b1c0      	cbz	r0, d70ac <_ZN9SdSpiCard10writeBlockEmPKh+0x5c>


#if CHECK_FLASH_PROGRAMMING
  // wait for flash programming to complete
  DBG_BEGIN_TIME(DBG_WRITE_FLASH);
  if (!waitNotBusy(SD_WRITE_TIMEOUT)) {
   d707a:	f44f 61fa 	mov.w	r1, #2000	; 0x7d0
   d707e:	4620      	mov	r0, r4
   d7080:	f7ff fe4f 	bl	d6d22 <_ZN9SdSpiCard11waitNotBusyEt>
   d7084:	4605      	mov	r5, r0
   d7086:	b908      	cbnz	r0, d708c <_ZN9SdSpiCard10writeBlockEmPKh+0x3c>
   d7088:	235a      	movs	r3, #90	; 0x5a
   d708a:	e00e      	b.n	d70aa <_ZN9SdSpiCard10writeBlockEmPKh+0x5a>
    error(SD_CARD_ERROR_FLASH_PROGRAMMING);
    goto fail;
  }
  DBG_END_TIME(DBG_WRITE_FLASH);
  // response is r2 so get and check two bytes for nonzero
  if (cardCommand(CMD13, 0) || spiReceive()) {
   d708c:	4632      	mov	r2, r6
   d708e:	210d      	movs	r1, #13
   d7090:	4620      	mov	r0, r4
   d7092:	f7ff fe5b 	bl	d6d4c <_ZN9SdSpiCard11cardCommandEhm>
   d7096:	b938      	cbnz	r0, d70a8 <_ZN9SdSpiCard10writeBlockEmPKh+0x58>
  }
  void spiDeactivate() {
    m_spiDriver->deactivate();
  }
  uint8_t spiReceive() {
    return m_spiDriver->receive();
   d7098:	6860      	ldr	r0, [r4, #4]
   d709a:	f000 f88a 	bl	d71b2 <_ZN14SdSpiAltDriver7receiveEv>
   d709e:	b918      	cbnz	r0, d70a8 <_ZN9SdSpiCard10writeBlockEmPKh+0x58>
    error(SD_CARD_ERROR_CMD13);
    goto fail;
  }
#endif  // CHECK_PROGRAMMING

  spiStop();
   d70a0:	4620      	mov	r0, r4
   d70a2:	f7ff fdfa 	bl	d6c9a <_ZN9SdSpiCard7spiStopEv>
  return true;
   d70a6:	e005      	b.n	d70b4 <_ZN9SdSpiCard10writeBlockEmPKh+0x64>
  /**
   *  Set SD error code.
   *  \param[in] code value for error code.
   */
  void error(uint8_t code) {
    m_errorCode = code;
   d70a8:	2329      	movs	r3, #41	; 0x29
   d70aa:	7023      	strb	r3, [r4, #0]

fail:
  spiStop();
   d70ac:	4620      	mov	r0, r4
   d70ae:	f7ff fdf4 	bl	d6c9a <_ZN9SdSpiCard7spiStopEv>
  return false;
   d70b2:	2500      	movs	r5, #0
}
   d70b4:	4628      	mov	r0, r5
   d70b6:	bd70      	pop	{r4, r5, r6, pc}

000d70b8 <_ZN9SdSpiCard9writeDataEPKh>:
 fail:
  spiStop();
  return false;
}
//------------------------------------------------------------------------------
bool SdSpiCard::writeData(const uint8_t* src) {
   d70b8:	b538      	push	{r3, r4, r5, lr}
   d70ba:	460d      	mov	r5, r1
  // wait for previous write to finish
  DBG_BEGIN_TIME(DBG_WRITE_BUSY);
  if (!waitNotBusy(SD_WRITE_TIMEOUT)) {
   d70bc:	f44f 61fa 	mov.w	r1, #2000	; 0x7d0
 fail:
  spiStop();
  return false;
}
//------------------------------------------------------------------------------
bool SdSpiCard::writeData(const uint8_t* src) {
   d70c0:	4604      	mov	r4, r0
  // wait for previous write to finish
  DBG_BEGIN_TIME(DBG_WRITE_BUSY);
  if (!waitNotBusy(SD_WRITE_TIMEOUT)) {
   d70c2:	f7ff fe2e 	bl	d6d22 <_ZN9SdSpiCard11waitNotBusyEt>
   d70c6:	b910      	cbnz	r0, d70ce <_ZN9SdSpiCard9writeDataEPKh+0x16>
   d70c8:	235b      	movs	r3, #91	; 0x5b
   d70ca:	7023      	strb	r3, [r4, #0]
   d70cc:	e005      	b.n	d70da <_ZN9SdSpiCard9writeDataEPKh+0x22>
    error(SD_CARD_ERROR_WRITE_TIMEOUT);
    goto fail;
  }
  DBG_END_TIME(DBG_WRITE_BUSY);
  if (!writeData(WRITE_MULTIPLE_TOKEN, src)) {
   d70ce:	462a      	mov	r2, r5
   d70d0:	21fc      	movs	r1, #252	; 0xfc
   d70d2:	4620      	mov	r0, r4
   d70d4:	f7ff ff97 	bl	d7006 <_ZN9SdSpiCard9writeDataEhPKh>
   d70d8:	b918      	cbnz	r0, d70e2 <_ZN9SdSpiCard9writeDataEPKh+0x2a>
    goto fail;
  }
  return true;

fail:
  spiStop();
   d70da:	4620      	mov	r0, r4
   d70dc:	f7ff fddd 	bl	d6c9a <_ZN9SdSpiCard7spiStopEv>
  return false;
   d70e0:	2000      	movs	r0, #0
}
   d70e2:	bd38      	pop	{r3, r4, r5, pc}

000d70e4 <_ZN9SdSpiCard10writeStartEm>:
fail:
  spiStop();
  return false;
}
//------------------------------------------------------------------------------
bool SdSpiCard::writeStart(uint32_t blockNumber) {
   d70e4:	b510      	push	{r4, lr}
  // use address if not SDHC card
  if (type() != SD_CARD_TYPE_SDHC) {
   d70e6:	7a83      	ldrb	r3, [r0, #10]
   d70e8:	2b03      	cmp	r3, #3
fail:
  spiStop();
  return false;
}
//------------------------------------------------------------------------------
bool SdSpiCard::writeStart(uint32_t blockNumber) {
   d70ea:	460a      	mov	r2, r1
  // use address if not SDHC card
  if (type() != SD_CARD_TYPE_SDHC) {
    blockNumber <<= 9;
   d70ec:	bf18      	it	ne
   d70ee:	024a      	lslne	r2, r1, #9
  }
  if (cardCommand(CMD25, blockNumber)) {
   d70f0:	2119      	movs	r1, #25
fail:
  spiStop();
  return false;
}
//------------------------------------------------------------------------------
bool SdSpiCard::writeStart(uint32_t blockNumber) {
   d70f2:	4604      	mov	r4, r0
  // use address if not SDHC card
  if (type() != SD_CARD_TYPE_SDHC) {
    blockNumber <<= 9;
  }
  if (cardCommand(CMD25, blockNumber)) {
   d70f4:	f7ff fe2a 	bl	d6d4c <_ZN9SdSpiCard11cardCommandEhm>
   d70f8:	b130      	cbz	r0, d7108 <_ZN9SdSpiCard10writeStartEm+0x24>
   d70fa:	2333      	movs	r3, #51	; 0x33
    goto fail;
  }
  return true;

fail:
  spiStop();
   d70fc:	4620      	mov	r0, r4
   d70fe:	7023      	strb	r3, [r4, #0]
   d7100:	f7ff fdcb 	bl	d6c9a <_ZN9SdSpiCard7spiStopEv>
  return false;
   d7104:	2000      	movs	r0, #0
   d7106:	bd10      	pop	{r4, pc}
  }
  if (cardCommand(CMD25, blockNumber)) {
    error(SD_CARD_ERROR_CMD25);
    goto fail;
  }
  return true;
   d7108:	2001      	movs	r0, #1

fail:
  spiStop();
  return false;
}
   d710a:	bd10      	pop	{r4, pc}

000d710c <_ZN9SdSpiCard9writeStopEv>:
fail:
  spiStop();
  return false;
}
//------------------------------------------------------------------------------
bool SdSpiCard::writeStop() {
   d710c:	b538      	push	{r3, r4, r5, lr}
  DBG_BEGIN_TIME(DBG_WRITE_STOP);
  if (!waitNotBusy(SD_WRITE_TIMEOUT)) {
   d710e:	f44f 61fa 	mov.w	r1, #2000	; 0x7d0
fail:
  spiStop();
  return false;
}
//------------------------------------------------------------------------------
bool SdSpiCard::writeStop() {
   d7112:	4604      	mov	r4, r0
  DBG_BEGIN_TIME(DBG_WRITE_STOP);
  if (!waitNotBusy(SD_WRITE_TIMEOUT)) {
   d7114:	f7ff fe05 	bl	d6d22 <_ZN9SdSpiCard11waitNotBusyEt>
   d7118:	4605      	mov	r5, r0
   d711a:	b120      	cbz	r0, d7126 <_ZN9SdSpiCard9writeStopEv+0x1a>
  }
  uint8_t spiReceive(uint8_t* buf, size_t n) {
    return  m_spiDriver->receive(buf, n);
  }
  void spiSend(uint8_t data) {
     m_spiDriver->send(data);
   d711c:	21fd      	movs	r1, #253	; 0xfd
   d711e:	6860      	ldr	r0, [r4, #4]
   d7120:	f000 f862 	bl	d71e8 <_ZN14SdSpiAltDriver4sendEh>
   d7124:	e001      	b.n	d712a <_ZN9SdSpiCard9writeStopEv+0x1e>
  /**
   *  Set SD error code.
   *  \param[in] code value for error code.
   */
  void error(uint8_t code) {
    m_errorCode = code;
   d7126:	2356      	movs	r3, #86	; 0x56
   d7128:	7023      	strb	r3, [r4, #0]
  spiStop();
  return true;

fail:
  error(SD_CARD_ERROR_STOP_TRAN);
  spiStop();
   d712a:	4620      	mov	r0, r4
   d712c:	f7ff fdb5 	bl	d6c9a <_ZN9SdSpiCard7spiStopEv>
  return false;
}
   d7130:	4628      	mov	r0, r5
   d7132:	bd38      	pop	{r3, r4, r5, pc}

000d7134 <_ZN9SdSpiCard11writeBlocksEmPKhj>:
fail:
  spiStop();
  return false;
}
//------------------------------------------------------------------------------
bool SdSpiCard::writeBlocks(uint32_t block, const uint8_t* src, size_t count) {
   d7134:	b5f8      	push	{r3, r4, r5, r6, r7, lr}
   d7136:	4605      	mov	r5, r0
   d7138:	4616      	mov	r6, r2
   d713a:	461f      	mov	r7, r3
  if (!writeStart(block)) {
   d713c:	f7ff ffd2 	bl	d70e4 <_ZN9SdSpiCard10writeStartEm>
   d7140:	b170      	cbz	r0, d7160 <_ZN9SdSpiCard11writeBlocksEmPKhj+0x2c>
   d7142:	2400      	movs	r4, #0
    goto fail;
  }
  for (size_t b = 0; b < count; b++, src += 512) {
   d7144:	42bc      	cmp	r4, r7
   d7146:	eb06 2144 	add.w	r1, r6, r4, lsl #9
    if (!writeData(src)) {
      goto fail;
    }
  }
  return writeStop();
   d714a:	4628      	mov	r0, r5
//------------------------------------------------------------------------------
bool SdSpiCard::writeBlocks(uint32_t block, const uint8_t* src, size_t count) {
  if (!writeStart(block)) {
    goto fail;
  }
  for (size_t b = 0; b < count; b++, src += 512) {
   d714c:	d004      	beq.n	d7158 <_ZN9SdSpiCard11writeBlocksEmPKhj+0x24>
    if (!writeData(src)) {
   d714e:	f7ff ffb3 	bl	d70b8 <_ZN9SdSpiCard9writeDataEPKh>
   d7152:	b128      	cbz	r0, d7160 <_ZN9SdSpiCard11writeBlocksEmPKhj+0x2c>
//------------------------------------------------------------------------------
bool SdSpiCard::writeBlocks(uint32_t block, const uint8_t* src, size_t count) {
  if (!writeStart(block)) {
    goto fail;
  }
  for (size_t b = 0; b < count; b++, src += 512) {
   d7154:	3401      	adds	r4, #1
   d7156:	e7f5      	b.n	d7144 <_ZN9SdSpiCard11writeBlocksEmPKhj+0x10>
  return writeStop();

 fail:
  spiStop();
  return false;
}
   d7158:	e8bd 40f8 	ldmia.w	sp!, {r3, r4, r5, r6, r7, lr}
  for (size_t b = 0; b < count; b++, src += 512) {
    if (!writeData(src)) {
      goto fail;
    }
  }
  return writeStop();
   d715c:	f7ff bfd6 	b.w	d710c <_ZN9SdSpiCard9writeStopEv>

 fail:
  spiStop();
   d7160:	4628      	mov	r0, r5
   d7162:	f7ff fd9a 	bl	d6c9a <_ZN9SdSpiCard7spiStopEv>
  return false;
}
   d7166:	2000      	movs	r0, #0
   d7168:	bdf8      	pop	{r3, r4, r5, r6, r7, pc}

000d716a <_GLOBAL__sub_I__ZN9SdSpiCard5beginEP14SdSpiAltDriverhN8particle13__SPISettingsE>:
   d716a:	f000 b883 	b.w	d7274 <HAL_Pin_Map>

000d716e <_GLOBAL__sub_I_SdSpiSAM3X.cpp>:
   d716e:	f000 b881 	b.w	d7274 <HAL_Pin_Map>

000d7172 <_GLOBAL__sub_I_SdSpiTeensy3.cpp>:
   d7172:	f000 b87f 	b.w	d7274 <HAL_Pin_Map>
	...

000d7178 <_ZL36SD_SPI_DMA_TransferComplete_Callbackv>:
#if defined(PLATFORM_ID)
#include "SdSpiDriver.h"
static volatile bool SPI_DMA_TransferCompleted = false;
//-----------------------------------------------------------------------------
static void SD_SPI_DMA_TransferComplete_Callback(void) {
    SPI_DMA_TransferCompleted = true;
   d7178:	4b01      	ldr	r3, [pc, #4]	; (d7180 <_ZL36SD_SPI_DMA_TransferComplete_Callbackv+0x8>)
   d717a:	2201      	movs	r2, #1
   d717c:	701a      	strb	r2, [r3, #0]
   d717e:	4770      	bx	lr
   d7180:	2003e3a8 	.word	0x2003e3a8

000d7184 <_ZN14SdSpiAltDriver8activateEv>:
/** Set SPI options for access to SD/SDHC cards.
 *
 * \param[in] divisor SCK clock divider relative to the APB1 or APB2 clock.
 */
void SdSpiAltDriver::activate() {
  m_spi->beginTransaction(m_spiSettings);
   d7184:	1d01      	adds	r1, r0, #4
   d7186:	6800      	ldr	r0, [r0, #0]
   d7188:	f000 bc00 	b.w	d798c <_ZN8SPIClass16beginTransactionERKN8particle13__SPISettingsE>

000d718c <_ZN14SdSpiAltDriver5beginEh>:
//------------------------------------------------------------------------------
/** Initialize the SPI bus.
 *
 * \param[in] chipSelectPin SD card chip select pin.
 */
void SdSpiAltDriver::begin(uint8_t csPin) {
   d718c:	b510      	push	{r4, lr}
   d718e:	4604      	mov	r4, r0
  m_csPin = csPin;
   d7190:	7501      	strb	r1, [r0, #20]
  m_spi->begin();
   d7192:	6800      	ldr	r0, [r0, #0]
   d7194:	f000 fbd0 	bl	d7938 <_ZN8SPIClass5beginEv>
  pinMode(m_csPin, OUTPUT);
   d7198:	7d20      	ldrb	r0, [r4, #20]
   d719a:	2101      	movs	r1, #1
   d719c:	f001 fe2c 	bl	d8df8 <pinMode>
  digitalWrite(m_csPin, HIGH);
   d71a0:	7d20      	ldrb	r0, [r4, #20]
   d71a2:	2101      	movs	r1, #1
}
   d71a4:	e8bd 4010 	ldmia.w	sp!, {r4, lr}
 */
void SdSpiAltDriver::begin(uint8_t csPin) {
  m_csPin = csPin;
  m_spi->begin();
  pinMode(m_csPin, OUTPUT);
  digitalWrite(m_csPin, HIGH);
   d71a8:	f001 be37 	b.w	d8e1a <digitalWrite>

000d71ac <_ZN14SdSpiAltDriver10deactivateEv>:
//------------------------------------------------------------------------------
/**
 * End SPI transaction.
 */
void SdSpiAltDriver::deactivate() {
  m_spi->endTransaction();
   d71ac:	6800      	ldr	r0, [r0, #0]
   d71ae:	f000 bbd4 	b.w	d795a <_ZN8SPIClass14endTransactionEv>

000d71b2 <_ZN14SdSpiAltDriver7receiveEv>:
/** Receive a byte.
 *
 * \return The byte.
 */
uint8_t SdSpiAltDriver::receive() {
  return m_spi->transfer(0XFF);
   d71b2:	21ff      	movs	r1, #255	; 0xff
   d71b4:	6800      	ldr	r0, [r0, #0]
   d71b6:	f000 bc59 	b.w	d7a6c <_ZN8SPIClass8transferEh>
	...

000d71bc <_ZN14SdSpiAltDriver7receiveEPhj>:
 * \param[out] buf Buffer to receive the data.
 * \param[in] n Number of bytes to receive.
 *
 * \return Zero for no error or nonzero error code.
 */
uint8_t SdSpiAltDriver::receive(uint8_t* buf, size_t n) {
   d71bc:	b537      	push	{r0, r1, r2, r4, r5, lr}
  SPI_DMA_TransferCompleted = false;
  m_spi->transfer(nullptr, buf, n, SD_SPI_DMA_TransferComplete_Callback);
   d71be:	4b08      	ldr	r3, [pc, #32]	; (d71e0 <_ZN14SdSpiAltDriver7receiveEPhj+0x24>)
   d71c0:	9300      	str	r3, [sp, #0]
 * \param[in] n Number of bytes to receive.
 *
 * \return Zero for no error or nonzero error code.
 */
uint8_t SdSpiAltDriver::receive(uint8_t* buf, size_t n) {
  SPI_DMA_TransferCompleted = false;
   d71c2:	2500      	movs	r5, #0
   d71c4:	4c07      	ldr	r4, [pc, #28]	; (d71e4 <_ZN14SdSpiAltDriver7receiveEPhj+0x28>)
  m_spi->transfer(nullptr, buf, n, SD_SPI_DMA_TransferComplete_Callback);
   d71c6:	6800      	ldr	r0, [r0, #0]
 * \param[in] n Number of bytes to receive.
 *
 * \return Zero for no error or nonzero error code.
 */
uint8_t SdSpiAltDriver::receive(uint8_t* buf, size_t n) {
  SPI_DMA_TransferCompleted = false;
   d71c8:	7025      	strb	r5, [r4, #0]
  m_spi->transfer(nullptr, buf, n, SD_SPI_DMA_TransferComplete_Callback);
   d71ca:	4613      	mov	r3, r2
   d71cc:	460a      	mov	r2, r1
   d71ce:	4629      	mov	r1, r5
   d71d0:	f000 fc52 	bl	d7a78 <_ZN8SPIClass8transferEPvS0_jPFvvE>
  while (!SPI_DMA_TransferCompleted) {}
   d71d4:	7823      	ldrb	r3, [r4, #0]
   d71d6:	2b00      	cmp	r3, #0
   d71d8:	d0fc      	beq.n	d71d4 <_ZN14SdSpiAltDriver7receiveEPhj+0x18>
  return 0;
}
   d71da:	2000      	movs	r0, #0
   d71dc:	b003      	add	sp, #12
   d71de:	bd30      	pop	{r4, r5, pc}
   d71e0:	000d7179 	.word	0x000d7179
   d71e4:	2003e3a8 	.word	0x2003e3a8

000d71e8 <_ZN14SdSpiAltDriver4sendEh>:
/** Send a byte.
 *
 * \param[in] b Byte to send
 */
void SdSpiAltDriver::send(uint8_t b) {
  m_spi->transfer(b);
   d71e8:	6800      	ldr	r0, [r0, #0]
   d71ea:	f000 bc3f 	b.w	d7a6c <_ZN8SPIClass8transferEh>
	...

000d71f0 <_ZN14SdSpiAltDriver4sendEPKhj>:
/** Send multiple bytes.
 *
 * \param[in] buf Buffer for data to be sent.
 * \param[in] n Number of bytes to send.
 */
void SdSpiAltDriver::send(const uint8_t* buf , size_t n) {
   d71f0:	b537      	push	{r0, r1, r2, r4, r5, lr}
  SPI_DMA_TransferCompleted = false;

  m_spi->transfer(const_cast<uint8_t*>(buf), nullptr, n,
                            SD_SPI_DMA_TransferComplete_Callback);
   d71f2:	4b07      	ldr	r3, [pc, #28]	; (d7210 <_ZN14SdSpiAltDriver4sendEPKhj+0x20>)
   d71f4:	9300      	str	r3, [sp, #0]
 *
 * \param[in] buf Buffer for data to be sent.
 * \param[in] n Number of bytes to send.
 */
void SdSpiAltDriver::send(const uint8_t* buf , size_t n) {
  SPI_DMA_TransferCompleted = false;
   d71f6:	2500      	movs	r5, #0
   d71f8:	4c06      	ldr	r4, [pc, #24]	; (d7214 <_ZN14SdSpiAltDriver4sendEPKhj+0x24>)

  m_spi->transfer(const_cast<uint8_t*>(buf), nullptr, n,
                            SD_SPI_DMA_TransferComplete_Callback);
   d71fa:	6800      	ldr	r0, [r0, #0]
 *
 * \param[in] buf Buffer for data to be sent.
 * \param[in] n Number of bytes to send.
 */
void SdSpiAltDriver::send(const uint8_t* buf , size_t n) {
  SPI_DMA_TransferCompleted = false;
   d71fc:	7025      	strb	r5, [r4, #0]

  m_spi->transfer(const_cast<uint8_t*>(buf), nullptr, n,
                            SD_SPI_DMA_TransferComplete_Callback);
   d71fe:	4613      	mov	r3, r2
   d7200:	462a      	mov	r2, r5
   d7202:	f000 fc39 	bl	d7a78 <_ZN8SPIClass8transferEPvS0_jPFvvE>

  while (!SPI_DMA_TransferCompleted) {}
   d7206:	7823      	ldrb	r3, [r4, #0]
   d7208:	2b00      	cmp	r3, #0
   d720a:	d0fc      	beq.n	d7206 <_ZN14SdSpiAltDriver4sendEPKhj+0x16>
}
   d720c:	b003      	add	sp, #12
   d720e:	bd30      	pop	{r4, r5, pc}
   d7210:	000d7179 	.word	0x000d7179
   d7214:	2003e3a8 	.word	0x2003e3a8

000d7218 <_GLOBAL__sub_I__ZN14SdSpiAltDriver8activateEv>:
   d7218:	f000 b82c 	b.w	d7274 <HAL_Pin_Map>

000d721c <_ZN16AirQualitySensorC1Ei>:
const int AirQualitySensor::HIGH_POLLUTION = 1;
const int AirQualitySensor::LOW_POLLUTION  = 2;
const int AirQualitySensor::FRESH_AIR      = 3;

AirQualitySensor::AirQualitySensor(int pin) 
: _pin(pin), _voltageSum(0), _volSumCount(0) {
   d721c:	2200      	movs	r2, #0
   d721e:	6001      	str	r1, [r0, #0]
   d7220:	6102      	str	r2, [r0, #16]
   d7222:	6142      	str	r2, [r0, #20]
    // do nothing
}
   d7224:	4770      	bx	lr

000d7226 <_ZN16AirQualitySensor4initEv>:

bool AirQualitySensor::init(void) {
   d7226:	b510      	push	{r4, lr}
   d7228:	4604      	mov	r4, r0
    int initVoltage = analogRead(_pin);
   d722a:	8800      	ldrh	r0, [r0, #0]
   d722c:	f001 fe21 	bl	d8e72 <analogRead>

    if (10 < initVoltage && initVoltage < 798) {
   d7230:	f240 3312 	movw	r3, #786	; 0x312
   d7234:	f1a0 020b 	sub.w	r2, r0, #11
   d7238:	429a      	cmp	r2, r3
   d723a:	d807      	bhi.n	d724c <_ZN16AirQualitySensor4initEv+0x26>
        _currentVoltage = initVoltage;
   d723c:	60a0      	str	r0, [r4, #8]
        _lastVoltage = _currentVoltage;
   d723e:	6060      	str	r0, [r4, #4]

        _standardVoltage = initVoltage;
   d7240:	60e0      	str	r0, [r4, #12]
   d7242:	f000 f8cf 	bl	d73e4 <HAL_Timer_Get_Milli_Seconds>
        _lastStdVolUpdated = millis();
   d7246:	61a0      	str	r0, [r4, #24]

        return true;
   d7248:	2001      	movs	r0, #1
   d724a:	bd10      	pop	{r4, pc}
    }
    else {
        return false;
   d724c:	2000      	movs	r0, #0
    }
}
   d724e:	bd10      	pop	{r4, pc}

000d7250 <_GLOBAL__sub_I__ZN16AirQualitySensor12FORCE_SIGNALE>:
   d7250:	f000 b810 	b.w	d7274 <HAL_Pin_Map>

000d7254 <netdb_freeaddrinfo>:

DYNALIB_BEGIN(hal_netdb)

DYNALIB_FN(0, hal_netdb, netdb_gethostbyname, struct hostent*(const char*))
DYNALIB_FN(1, hal_netdb, netdb_gethostbyname_r, int(const char*, struct hostent*, char*, size_t, struct hostent**, int*))
DYNALIB_FN(2, hal_netdb, netdb_freeaddrinfo, void(struct addrinfo*))
   d7254:	b508      	push	{r3, lr}
   d7256:	4b02      	ldr	r3, [pc, #8]	; (d7260 <netdb_freeaddrinfo+0xc>)
   d7258:	681b      	ldr	r3, [r3, #0]
   d725a:	689b      	ldr	r3, [r3, #8]
   d725c:	9301      	str	r3, [sp, #4]
   d725e:	bd08      	pop	{r3, pc}
   d7260:	00030268 	.word	0x00030268

000d7264 <netdb_getaddrinfo>:
DYNALIB_FN(3, hal_netdb, netdb_getaddrinfo, int(const char*, const char*, const struct addrinfo*, struct addrinfo**))
   d7264:	b508      	push	{r3, lr}
   d7266:	4b02      	ldr	r3, [pc, #8]	; (d7270 <netdb_getaddrinfo+0xc>)
   d7268:	681b      	ldr	r3, [r3, #0]
   d726a:	68db      	ldr	r3, [r3, #12]
   d726c:	9301      	str	r3, [sp, #4]
   d726e:	bd08      	pop	{r3, pc}
   d7270:	00030268 	.word	0x00030268

000d7274 <HAL_Pin_Map>:
// New HAL functions must be added to the end of this list.
// GNINRAW

DYNALIB_BEGIN(hal_gpio)

DYNALIB_FN(0, hal_gpio, HAL_Pin_Map, Hal_Pin_Info*(void))
   d7274:	b508      	push	{r3, lr}
   d7276:	4b02      	ldr	r3, [pc, #8]	; (d7280 <HAL_Pin_Map+0xc>)
   d7278:	681b      	ldr	r3, [r3, #0]
   d727a:	681b      	ldr	r3, [r3, #0]
   d727c:	9301      	str	r3, [sp, #4]
   d727e:	bd08      	pop	{r3, pc}
   d7280:	0003022c 	.word	0x0003022c

000d7284 <HAL_Validate_Pin_Function>:
DYNALIB_FN(1, hal_gpio, HAL_Validate_Pin_Function, PinFunction(pin_t, PinFunction))
   d7284:	b508      	push	{r3, lr}
   d7286:	4b02      	ldr	r3, [pc, #8]	; (d7290 <HAL_Validate_Pin_Function+0xc>)
   d7288:	681b      	ldr	r3, [r3, #0]
   d728a:	685b      	ldr	r3, [r3, #4]
   d728c:	9301      	str	r3, [sp, #4]
   d728e:	bd08      	pop	{r3, pc}
   d7290:	0003022c 	.word	0x0003022c

000d7294 <HAL_Pin_Mode>:
DYNALIB_FN(2, hal_gpio, HAL_Pin_Mode, void(pin_t, PinMode))
   d7294:	b508      	push	{r3, lr}
   d7296:	4b02      	ldr	r3, [pc, #8]	; (d72a0 <HAL_Pin_Mode+0xc>)
   d7298:	681b      	ldr	r3, [r3, #0]
   d729a:	689b      	ldr	r3, [r3, #8]
   d729c:	9301      	str	r3, [sp, #4]
   d729e:	bd08      	pop	{r3, pc}
   d72a0:	0003022c 	.word	0x0003022c

000d72a4 <HAL_Get_Pin_Mode>:
DYNALIB_FN(3, hal_gpio, HAL_Get_Pin_Mode, PinMode(pin_t))
   d72a4:	b508      	push	{r3, lr}
   d72a6:	4b02      	ldr	r3, [pc, #8]	; (d72b0 <HAL_Get_Pin_Mode+0xc>)
   d72a8:	681b      	ldr	r3, [r3, #0]
   d72aa:	68db      	ldr	r3, [r3, #12]
   d72ac:	9301      	str	r3, [sp, #4]
   d72ae:	bd08      	pop	{r3, pc}
   d72b0:	0003022c 	.word	0x0003022c

000d72b4 <HAL_GPIO_Write>:
DYNALIB_FN(4, hal_gpio, HAL_GPIO_Write, void(pin_t, uint8_t))
   d72b4:	b508      	push	{r3, lr}
   d72b6:	4b02      	ldr	r3, [pc, #8]	; (d72c0 <HAL_GPIO_Write+0xc>)
   d72b8:	681b      	ldr	r3, [r3, #0]
   d72ba:	691b      	ldr	r3, [r3, #16]
   d72bc:	9301      	str	r3, [sp, #4]
   d72be:	bd08      	pop	{r3, pc}
   d72c0:	0003022c 	.word	0x0003022c

000d72c4 <HAL_GPIO_Read>:
DYNALIB_FN(5, hal_gpio, HAL_GPIO_Read, int32_t(pin_t))
   d72c4:	b508      	push	{r3, lr}
   d72c6:	4b02      	ldr	r3, [pc, #8]	; (d72d0 <HAL_GPIO_Read+0xc>)
   d72c8:	681b      	ldr	r3, [r3, #0]
   d72ca:	695b      	ldr	r3, [r3, #20]
   d72cc:	9301      	str	r3, [sp, #4]
   d72ce:	bd08      	pop	{r3, pc}
   d72d0:	0003022c 	.word	0x0003022c

000d72d4 <HAL_Interrupts_Attach>:
DYNALIB_FN(6, hal_gpio, HAL_Interrupts_Attach, int(uint16_t, HAL_InterruptHandler, void*, InterruptMode, HAL_InterruptExtraConfiguration*))
   d72d4:	b508      	push	{r3, lr}
   d72d6:	4b02      	ldr	r3, [pc, #8]	; (d72e0 <HAL_Interrupts_Attach+0xc>)
   d72d8:	681b      	ldr	r3, [r3, #0]
   d72da:	699b      	ldr	r3, [r3, #24]
   d72dc:	9301      	str	r3, [sp, #4]
   d72de:	bd08      	pop	{r3, pc}
   d72e0:	0003022c 	.word	0x0003022c

000d72e4 <HAL_Interrupts_Detach>:
DYNALIB_FN(7, hal_gpio, HAL_Interrupts_Detach, int(uint16_t))
   d72e4:	b508      	push	{r3, lr}
   d72e6:	4b02      	ldr	r3, [pc, #8]	; (d72f0 <HAL_Interrupts_Detach+0xc>)
   d72e8:	681b      	ldr	r3, [r3, #0]
   d72ea:	69db      	ldr	r3, [r3, #28]
   d72ec:	9301      	str	r3, [sp, #4]
   d72ee:	bd08      	pop	{r3, pc}
   d72f0:	0003022c 	.word	0x0003022c

000d72f4 <HAL_ADC_Read>:
DYNALIB_FN(8, hal_gpio, HAL_Interrupts_Enable_All, void(void))
DYNALIB_FN(9, hal_gpio, HAL_Interrupts_Disable_All, void(void))

DYNALIB_FN(10, hal_gpio, HAL_DAC_Write, void(pin_t, uint16_t))
DYNALIB_FN(11, hal_gpio, HAL_ADC_Set_Sample_Time, void(uint8_t))
DYNALIB_FN(12, hal_gpio, HAL_ADC_Read, int32_t(uint16_t))
   d72f4:	b508      	push	{r3, lr}
   d72f6:	4b02      	ldr	r3, [pc, #8]	; (d7300 <HAL_ADC_Read+0xc>)
   d72f8:	681b      	ldr	r3, [r3, #0]
   d72fa:	6b1b      	ldr	r3, [r3, #48]	; 0x30
   d72fc:	9301      	str	r3, [sp, #4]
   d72fe:	bd08      	pop	{r3, pc}
   d7300:	0003022c 	.word	0x0003022c

000d7304 <HAL_SPI_Begin>:
// New HAL functions must be added to the end of this list.
// GNINRAW

DYNALIB_BEGIN(hal_spi)

DYNALIB_FN(0, hal_spi, HAL_SPI_Begin, void(HAL_SPI_Interface, uint16_t))
   d7304:	b508      	push	{r3, lr}
   d7306:	4b02      	ldr	r3, [pc, #8]	; (d7310 <HAL_SPI_Begin+0xc>)
   d7308:	681b      	ldr	r3, [r3, #0]
   d730a:	681b      	ldr	r3, [r3, #0]
   d730c:	9301      	str	r3, [sp, #4]
   d730e:	bd08      	pop	{r3, pc}
   d7310:	00030230 	.word	0x00030230

000d7314 <HAL_SPI_Send_Receive_Data>:
DYNALIB_FN(1, hal_spi, HAL_SPI_End, void(HAL_SPI_Interface))
DYNALIB_FN(2, hal_spi, HAL_SPI_Set_Bit_Order, void(HAL_SPI_Interface, uint8_t))
DYNALIB_FN(3, hal_spi, HAL_SPI_Set_Data_Mode, void(HAL_SPI_Interface, uint8_t))
DYNALIB_FN(4, hal_spi, HAL_SPI_Set_Clock_Divider, void(HAL_SPI_Interface, uint8_t))
DYNALIB_FN(5, hal_spi, HAL_SPI_Send_Receive_Data, uint16_t(HAL_SPI_Interface, uint16_t))
   d7314:	b508      	push	{r3, lr}
   d7316:	4b02      	ldr	r3, [pc, #8]	; (d7320 <HAL_SPI_Send_Receive_Data+0xc>)
   d7318:	681b      	ldr	r3, [r3, #0]
   d731a:	695b      	ldr	r3, [r3, #20]
   d731c:	9301      	str	r3, [sp, #4]
   d731e:	bd08      	pop	{r3, pc}
   d7320:	00030230 	.word	0x00030230

000d7324 <HAL_SPI_Init>:
DYNALIB_FN(6, hal_spi, HAL_SPI_Is_Enabled_Old, bool(void))
DYNALIB_FN(7, hal_spi, HAL_SPI_Init, void(HAL_SPI_Interface))
   d7324:	b508      	push	{r3, lr}
   d7326:	4b02      	ldr	r3, [pc, #8]	; (d7330 <HAL_SPI_Init+0xc>)
   d7328:	681b      	ldr	r3, [r3, #0]
   d732a:	69db      	ldr	r3, [r3, #28]
   d732c:	9301      	str	r3, [sp, #4]
   d732e:	bd08      	pop	{r3, pc}
   d7330:	00030230 	.word	0x00030230

000d7334 <HAL_SPI_Is_Enabled>:
DYNALIB_FN(8, hal_spi, HAL_SPI_Is_Enabled, bool(HAL_SPI_Interface))
   d7334:	b508      	push	{r3, lr}
   d7336:	4b02      	ldr	r3, [pc, #8]	; (d7340 <HAL_SPI_Is_Enabled+0xc>)
   d7338:	681b      	ldr	r3, [r3, #0]
   d733a:	6a1b      	ldr	r3, [r3, #32]
   d733c:	9301      	str	r3, [sp, #4]
   d733e:	bd08      	pop	{r3, pc}
   d7340:	00030230 	.word	0x00030230

000d7344 <HAL_SPI_Info>:
DYNALIB_FN(9, hal_spi, HAL_SPI_Info, void(HAL_SPI_Interface, hal_spi_info_t*, void*))
   d7344:	b508      	push	{r3, lr}
   d7346:	4b02      	ldr	r3, [pc, #8]	; (d7350 <HAL_SPI_Info+0xc>)
   d7348:	681b      	ldr	r3, [r3, #0]
   d734a:	6a5b      	ldr	r3, [r3, #36]	; 0x24
   d734c:	9301      	str	r3, [sp, #4]
   d734e:	bd08      	pop	{r3, pc}
   d7350:	00030230 	.word	0x00030230

000d7354 <HAL_SPI_DMA_Transfer>:
DYNALIB_FN(10, hal_spi, HAL_SPI_DMA_Transfer, void(HAL_SPI_Interface, void*, void*, uint32_t, HAL_SPI_DMA_UserCallback))
   d7354:	b508      	push	{r3, lr}
   d7356:	4b02      	ldr	r3, [pc, #8]	; (d7360 <HAL_SPI_DMA_Transfer+0xc>)
   d7358:	681b      	ldr	r3, [r3, #0]
   d735a:	6a9b      	ldr	r3, [r3, #40]	; 0x28
   d735c:	9301      	str	r3, [sp, #4]
   d735e:	bd08      	pop	{r3, pc}
   d7360:	00030230 	.word	0x00030230

000d7364 <HAL_SPI_DMA_Transfer_Status>:
DYNALIB_FN(11, hal_spi, HAL_SPI_Begin_Ext, void(HAL_SPI_Interface, SPI_Mode, uint16_t, void*))
DYNALIB_FN(12, hal_spi, HAL_SPI_Set_Callback_On_Select, void(HAL_SPI_Interface, HAL_SPI_Select_UserCallback, void*))
DYNALIB_FN(13, hal_spi, HAL_SPI_DMA_Transfer_Cancel, void(HAL_SPI_Interface))
DYNALIB_FN(14, hal_spi, HAL_SPI_DMA_Transfer_Status, int32_t(HAL_SPI_Interface, HAL_SPI_TransferStatus*))
   d7364:	b508      	push	{r3, lr}
   d7366:	4b02      	ldr	r3, [pc, #8]	; (d7370 <HAL_SPI_DMA_Transfer_Status+0xc>)
   d7368:	681b      	ldr	r3, [r3, #0]
   d736a:	6b9b      	ldr	r3, [r3, #56]	; 0x38
   d736c:	9301      	str	r3, [sp, #4]
   d736e:	bd08      	pop	{r3, pc}
   d7370:	00030230 	.word	0x00030230

000d7374 <HAL_SPI_Set_Settings>:
DYNALIB_FN(15, hal_spi, HAL_SPI_Set_Settings, int32_t(HAL_SPI_Interface, uint8_t, uint8_t, uint8_t, uint8_t, void*))
   d7374:	b508      	push	{r3, lr}
   d7376:	4b02      	ldr	r3, [pc, #8]	; (d7380 <HAL_SPI_Set_Settings+0xc>)
   d7378:	681b      	ldr	r3, [r3, #0]
   d737a:	6bdb      	ldr	r3, [r3, #60]	; 0x3c
   d737c:	9301      	str	r3, [sp, #4]
   d737e:	bd08      	pop	{r3, pc}
   d7380:	00030230 	.word	0x00030230

000d7384 <HAL_SPI_Acquire>:
#if HAL_PLATFORM_SPI_HAL_THREAD_SAFETY
DYNALIB_FN(16, hal_spi, HAL_SPI_Acquire, int32_t(HAL_SPI_Interface, const HAL_SPI_AcquireConfig*))
   d7384:	b508      	push	{r3, lr}
   d7386:	4b02      	ldr	r3, [pc, #8]	; (d7390 <HAL_SPI_Acquire+0xc>)
   d7388:	681b      	ldr	r3, [r3, #0]
   d738a:	6c1b      	ldr	r3, [r3, #64]	; 0x40
   d738c:	9301      	str	r3, [sp, #4]
   d738e:	bd08      	pop	{r3, pc}
   d7390:	00030230 	.word	0x00030230

000d7394 <HAL_SPI_Release>:
DYNALIB_FN(17, hal_spi, HAL_SPI_Release, int32_t(HAL_SPI_Interface, void*))
   d7394:	b508      	push	{r3, lr}
   d7396:	4b02      	ldr	r3, [pc, #8]	; (d73a0 <HAL_SPI_Release+0xc>)
   d7398:	681b      	ldr	r3, [r3, #0]
   d739a:	6c5b      	ldr	r3, [r3, #68]	; 0x44
   d739c:	9301      	str	r3, [sp, #4]
   d739e:	bd08      	pop	{r3, pc}
   d73a0:	00030230 	.word	0x00030230

000d73a4 <if_index_to_name>:
DYNALIB_FN(0, hal_ifapi, if_get_list, int(struct if_list**))
DYNALIB_FN(1, hal_ifapi, if_free_list, int(struct if_list*))
DYNALIB_FN(2, hal_ifapi, if_get_name_index, int(struct if_nameindex**))
DYNALIB_FN(3, hal_ifapi, if_free_name_index, int(struct if_nameindex*))
DYNALIB_FN(4, hal_ifapi, if_name_to_index, int(const char*, uint8_t*))
DYNALIB_FN(5, hal_ifapi, if_index_to_name, int(uint8_t, char*))
   d73a4:	b508      	push	{r3, lr}
   d73a6:	4b02      	ldr	r3, [pc, #8]	; (d73b0 <if_index_to_name+0xc>)
   d73a8:	681b      	ldr	r3, [r3, #0]
   d73aa:	695b      	ldr	r3, [r3, #20]
   d73ac:	9301      	str	r3, [sp, #4]
   d73ae:	bd08      	pop	{r3, pc}
   d73b0:	0003026c 	.word	0x0003026c

000d73b4 <HAL_RNG_GetRandomNumber>:

DYNALIB_BEGIN(hal)

#if PLATFORM_ID > 3
DYNALIB_FN(0, hal, HAL_RNG_Configuration, void(void))
DYNALIB_FN(1, hal, HAL_RNG_GetRandomNumber, uint32_t(void))
   d73b4:	b508      	push	{r3, lr}
   d73b6:	4b02      	ldr	r3, [pc, #8]	; (d73c0 <HAL_RNG_GetRandomNumber+0xc>)
   d73b8:	681b      	ldr	r3, [r3, #0]
   d73ba:	685b      	ldr	r3, [r3, #4]
   d73bc:	9301      	str	r3, [sp, #4]
   d73be:	bd08      	pop	{r3, pc}
   d73c0:	00030218 	.word	0x00030218

000d73c4 <HAL_Delay_Microseconds>:
#else
#define BASE_IDX 0
#endif

DYNALIB_FN(BASE_IDX + 0, hal, HAL_Delay_Milliseconds, void(uint32_t))
DYNALIB_FN(BASE_IDX + 1, hal, HAL_Delay_Microseconds, void(uint32_t))
   d73c4:	b508      	push	{r3, lr}
   d73c6:	4b02      	ldr	r3, [pc, #8]	; (d73d0 <HAL_Delay_Microseconds+0xc>)
   d73c8:	681b      	ldr	r3, [r3, #0]
   d73ca:	68db      	ldr	r3, [r3, #12]
   d73cc:	9301      	str	r3, [sp, #4]
   d73ce:	bd08      	pop	{r3, pc}
   d73d0:	00030218 	.word	0x00030218

000d73d4 <HAL_Timer_Get_Micro_Seconds>:
DYNALIB_FN(BASE_IDX + 2, hal, HAL_Timer_Get_Micro_Seconds, system_tick_t(void))
   d73d4:	b508      	push	{r3, lr}
   d73d6:	4b02      	ldr	r3, [pc, #8]	; (d73e0 <HAL_Timer_Get_Micro_Seconds+0xc>)
   d73d8:	681b      	ldr	r3, [r3, #0]
   d73da:	691b      	ldr	r3, [r3, #16]
   d73dc:	9301      	str	r3, [sp, #4]
   d73de:	bd08      	pop	{r3, pc}
   d73e0:	00030218 	.word	0x00030218

000d73e4 <HAL_Timer_Get_Milli_Seconds>:
DYNALIB_FN(BASE_IDX + 3, hal, HAL_Timer_Get_Milli_Seconds, system_tick_t(void))
   d73e4:	b508      	push	{r3, lr}
   d73e6:	4b02      	ldr	r3, [pc, #8]	; (d73f0 <HAL_Timer_Get_Milli_Seconds+0xc>)
   d73e8:	681b      	ldr	r3, [r3, #0]
   d73ea:	695b      	ldr	r3, [r3, #20]
   d73ec:	9301      	str	r3, [sp, #4]
   d73ee:	bd08      	pop	{r3, pc}
   d73f0:	00030218 	.word	0x00030218

000d73f4 <HAL_RTC_Get_UnixTime>:

DYNALIB_FN(BASE_IDX + 4, hal, HAL_RTC_Configuration, void(void))
DYNALIB_FN(BASE_IDX + 5, hal, HAL_RTC_Get_UnixTime, time_t(void))
   d73f4:	b508      	push	{r3, lr}
   d73f6:	4b02      	ldr	r3, [pc, #8]	; (d7400 <HAL_RTC_Get_UnixTime+0xc>)
   d73f8:	681b      	ldr	r3, [r3, #0]
   d73fa:	69db      	ldr	r3, [r3, #28]
   d73fc:	9301      	str	r3, [sp, #4]
   d73fe:	bd08      	pop	{r3, pc}
   d7400:	00030218 	.word	0x00030218

000d7404 <HAL_RTC_Time_Is_Valid>:
DYNALIB_FN(BASE_IDX + 15, hal,HAL_EEPROM_Get, void(uint32_t, void *, size_t))
DYNALIB_FN(BASE_IDX + 16, hal,HAL_EEPROM_Put, void(uint32_t, const void *, size_t))
DYNALIB_FN(BASE_IDX + 17, hal,HAL_EEPROM_Clear, void(void))
DYNALIB_FN(BASE_IDX + 18, hal,HAL_EEPROM_Has_Pending_Erase, bool(void))
DYNALIB_FN(BASE_IDX + 19, hal,HAL_EEPROM_Perform_Pending_Erase, void(void))
DYNALIB_FN(BASE_IDX + 20, hal, HAL_RTC_Time_Is_Valid, uint8_t(void*))
   d7404:	b508      	push	{r3, lr}
   d7406:	4b02      	ldr	r3, [pc, #8]	; (d7410 <HAL_RTC_Time_Is_Valid+0xc>)
   d7408:	681b      	ldr	r3, [r3, #0]
   d740a:	6d9b      	ldr	r3, [r3, #88]	; 0x58
   d740c:	9301      	str	r3, [sp, #4]
   d740e:	bd08      	pop	{r3, pc}
   d7410:	00030218 	.word	0x00030218

000d7414 <os_thread_is_current>:
DYNALIB_BEGIN(hal_concurrent)

#if PLATFORM_THREADING
DYNALIB_FN(0, hal_concurrent, __gthread_equal, bool(__gthread_t, __gthread_t))
DYNALIB_FN(1, hal_concurrent, os_thread_create, os_result_t(os_thread_t*, const char*, os_thread_prio_t, os_thread_fn_t, void*, size_t))
DYNALIB_FN(2, hal_concurrent, os_thread_is_current, bool(os_thread_t))
   d7414:	b508      	push	{r3, lr}
   d7416:	4b02      	ldr	r3, [pc, #8]	; (d7420 <os_thread_is_current+0xc>)
   d7418:	681b      	ldr	r3, [r3, #0]
   d741a:	689b      	ldr	r3, [r3, #8]
   d741c:	9301      	str	r3, [sp, #4]
   d741e:	bd08      	pop	{r3, pc}
   d7420:	00030248 	.word	0x00030248

000d7424 <os_thread_join>:
DYNALIB_FN(3, hal_concurrent, os_thread_yield, os_result_t(void))
DYNALIB_FN(4, hal_concurrent, os_thread_join, os_result_t(os_thread_t))
   d7424:	b508      	push	{r3, lr}
   d7426:	4b02      	ldr	r3, [pc, #8]	; (d7430 <os_thread_join+0xc>)
   d7428:	681b      	ldr	r3, [r3, #0]
   d742a:	691b      	ldr	r3, [r3, #16]
   d742c:	9301      	str	r3, [sp, #4]
   d742e:	bd08      	pop	{r3, pc}
   d7430:	00030248 	.word	0x00030248

000d7434 <os_thread_cleanup>:
DYNALIB_FN(5, hal_concurrent, os_thread_cleanup, os_result_t(os_thread_t))
   d7434:	b508      	push	{r3, lr}
   d7436:	4b02      	ldr	r3, [pc, #8]	; (d7440 <os_thread_cleanup+0xc>)
   d7438:	681b      	ldr	r3, [r3, #0]
   d743a:	695b      	ldr	r3, [r3, #20]
   d743c:	9301      	str	r3, [sp, #4]
   d743e:	bd08      	pop	{r3, pc}
   d7440:	00030248 	.word	0x00030248

000d7444 <os_mutex_recursive_create>:
DYNALIB_FN(13, hal_concurrent, os_mutex_destroy, int(os_mutex_t))
DYNALIB_FN(14, hal_concurrent, os_mutex_lock, int(os_mutex_t))
DYNALIB_FN(15, hal_concurrent, os_mutex_trylock, int(os_mutex_t))
DYNALIB_FN(16, hal_concurrent, os_mutex_unlock, int(os_mutex_t))

DYNALIB_FN(17, hal_concurrent, os_mutex_recursive_create, int(os_mutex_recursive_t*))
   d7444:	b508      	push	{r3, lr}
   d7446:	4b02      	ldr	r3, [pc, #8]	; (d7450 <os_mutex_recursive_create+0xc>)
   d7448:	681b      	ldr	r3, [r3, #0]
   d744a:	6c5b      	ldr	r3, [r3, #68]	; 0x44
   d744c:	9301      	str	r3, [sp, #4]
   d744e:	bd08      	pop	{r3, pc}
   d7450:	00030248 	.word	0x00030248

000d7454 <os_mutex_recursive_destroy>:
DYNALIB_FN(18, hal_concurrent, os_mutex_recursive_destroy, int(os_mutex_recursive_t))
   d7454:	b508      	push	{r3, lr}
   d7456:	4b02      	ldr	r3, [pc, #8]	; (d7460 <os_mutex_recursive_destroy+0xc>)
   d7458:	681b      	ldr	r3, [r3, #0]
   d745a:	6c9b      	ldr	r3, [r3, #72]	; 0x48
   d745c:	9301      	str	r3, [sp, #4]
   d745e:	bd08      	pop	{r3, pc}
   d7460:	00030248 	.word	0x00030248

000d7464 <inet_inet_ntop>:
DYNALIB_FN(0, hal_inet, inet_inet_addr, in_addr_t(const char*))
DYNALIB_FN(1, hal_inet, inet_inet_aton, int(const char*, struct in_addr*))
DYNALIB_FN(2, hal_inet, inet_inet_network, in_addr_t(const char*))
DYNALIB_FN(3, hal_inet, inet_inet_ntoa, char*(struct in_addr))
DYNALIB_FN(4, hal_inet, inet_inet_ntoa_r, char*(struct in_addr, char*, socklen_t))
DYNALIB_FN(5, hal_inet, inet_inet_ntop, const char*(int, const void*, char*, socklen_t))
   d7464:	b508      	push	{r3, lr}
   d7466:	4b02      	ldr	r3, [pc, #8]	; (d7470 <inet_inet_ntop+0xc>)
   d7468:	681b      	ldr	r3, [r3, #0]
   d746a:	695b      	ldr	r3, [r3, #20]
   d746c:	9301      	str	r3, [sp, #4]
   d746e:	bd08      	pop	{r3, pc}
   d7470:	00030264 	.word	0x00030264

000d7474 <inet_htonl>:
DYNALIB_FN(6, hal_inet, inet_inet_pton, int(int, const char*, void*))
DYNALIB_FN(7, hal_inet, inet_ntohl, uint32_t(uint32_t))
DYNALIB_FN(8, hal_inet, inet_htonl, uint32_t(uint32_t))
   d7474:	b508      	push	{r3, lr}
   d7476:	4b02      	ldr	r3, [pc, #8]	; (d7480 <inet_htonl+0xc>)
   d7478:	681b      	ldr	r3, [r3, #0]
   d747a:	6a1b      	ldr	r3, [r3, #32]
   d747c:	9301      	str	r3, [sp, #4]
   d747e:	bd08      	pop	{r3, pc}
   d7480:	00030264 	.word	0x00030264

000d7484 <inet_htons>:
DYNALIB_FN(9, hal_inet, inet_ntohs, uint16_t(uint16_t))
DYNALIB_FN(10, hal_inet, inet_htons, uint16_t(uint16_t))
   d7484:	b508      	push	{r3, lr}
   d7486:	4b02      	ldr	r3, [pc, #8]	; (d7490 <inet_htons+0xc>)
   d7488:	681b      	ldr	r3, [r3, #0]
   d748a:	6a9b      	ldr	r3, [r3, #40]	; 0x28
   d748c:	9301      	str	r3, [sp, #4]
   d748e:	bd08      	pop	{r3, pc}
   d7490:	00030264 	.word	0x00030264

000d7494 <HAL_USART_Init>:
#define BASE_IDX 6 // Base index for all subsequent functions
#else
#define BASE_IDX 0
#endif

DYNALIB_FN(BASE_IDX + 0, hal_usart, HAL_USART_Init, void(HAL_USART_Serial, Ring_Buffer*, Ring_Buffer*))
   d7494:	b508      	push	{r3, lr}
   d7496:	4b02      	ldr	r3, [pc, #8]	; (d74a0 <HAL_USART_Init+0xc>)
   d7498:	681b      	ldr	r3, [r3, #0]
   d749a:	681b      	ldr	r3, [r3, #0]
   d749c:	9301      	str	r3, [sp, #4]
   d749e:	bd08      	pop	{r3, pc}
   d74a0:	0003023c 	.word	0x0003023c

000d74a4 <HAL_USART_Write_Data>:
DYNALIB_FN(BASE_IDX + 1, hal_usart, HAL_USART_Begin, void(HAL_USART_Serial, uint32_t))
DYNALIB_FN(BASE_IDX + 2, hal_usart, HAL_USART_End, void(HAL_USART_Serial))
DYNALIB_FN(BASE_IDX + 3, hal_usart, HAL_USART_Write_Data, uint32_t(HAL_USART_Serial, uint8_t))
   d74a4:	b508      	push	{r3, lr}
   d74a6:	4b02      	ldr	r3, [pc, #8]	; (d74b0 <HAL_USART_Write_Data+0xc>)
   d74a8:	681b      	ldr	r3, [r3, #0]
   d74aa:	68db      	ldr	r3, [r3, #12]
   d74ac:	9301      	str	r3, [sp, #4]
   d74ae:	bd08      	pop	{r3, pc}
   d74b0:	0003023c 	.word	0x0003023c

000d74b4 <HAL_USART_Available_Data>:
DYNALIB_FN(BASE_IDX + 4, hal_usart, HAL_USART_Available_Data, int32_t(HAL_USART_Serial))
   d74b4:	b508      	push	{r3, lr}
   d74b6:	4b02      	ldr	r3, [pc, #8]	; (d74c0 <HAL_USART_Available_Data+0xc>)
   d74b8:	681b      	ldr	r3, [r3, #0]
   d74ba:	691b      	ldr	r3, [r3, #16]
   d74bc:	9301      	str	r3, [sp, #4]
   d74be:	bd08      	pop	{r3, pc}
   d74c0:	0003023c 	.word	0x0003023c

000d74c4 <HAL_USART_Read_Data>:
DYNALIB_FN(BASE_IDX + 5, hal_usart, HAL_USART_Read_Data, int32_t(HAL_USART_Serial))
   d74c4:	b508      	push	{r3, lr}
   d74c6:	4b02      	ldr	r3, [pc, #8]	; (d74d0 <HAL_USART_Read_Data+0xc>)
   d74c8:	681b      	ldr	r3, [r3, #0]
   d74ca:	695b      	ldr	r3, [r3, #20]
   d74cc:	9301      	str	r3, [sp, #4]
   d74ce:	bd08      	pop	{r3, pc}
   d74d0:	0003023c 	.word	0x0003023c

000d74d4 <HAL_USART_Peek_Data>:
DYNALIB_FN(BASE_IDX + 6, hal_usart, HAL_USART_Peek_Data, int32_t(HAL_USART_Serial))
   d74d4:	b508      	push	{r3, lr}
   d74d6:	4b02      	ldr	r3, [pc, #8]	; (d74e0 <HAL_USART_Peek_Data+0xc>)
   d74d8:	681b      	ldr	r3, [r3, #0]
   d74da:	699b      	ldr	r3, [r3, #24]
   d74dc:	9301      	str	r3, [sp, #4]
   d74de:	bd08      	pop	{r3, pc}
   d74e0:	0003023c 	.word	0x0003023c

000d74e4 <HAL_USART_Flush_Data>:
DYNALIB_FN(BASE_IDX + 7, hal_usart, HAL_USART_Flush_Data, void(HAL_USART_Serial))
   d74e4:	b508      	push	{r3, lr}
   d74e6:	4b02      	ldr	r3, [pc, #8]	; (d74f0 <HAL_USART_Flush_Data+0xc>)
   d74e8:	681b      	ldr	r3, [r3, #0]
   d74ea:	69db      	ldr	r3, [r3, #28]
   d74ec:	9301      	str	r3, [sp, #4]
   d74ee:	bd08      	pop	{r3, pc}
   d74f0:	0003023c 	.word	0x0003023c

000d74f4 <HAL_USART_Is_Enabled>:
DYNALIB_FN(BASE_IDX + 8, hal_usart, HAL_USART_Is_Enabled, bool(HAL_USART_Serial))
   d74f4:	b508      	push	{r3, lr}
   d74f6:	4b02      	ldr	r3, [pc, #8]	; (d7500 <HAL_USART_Is_Enabled+0xc>)
   d74f8:	681b      	ldr	r3, [r3, #0]
   d74fa:	6a1b      	ldr	r3, [r3, #32]
   d74fc:	9301      	str	r3, [sp, #4]
   d74fe:	bd08      	pop	{r3, pc}
   d7500:	0003023c 	.word	0x0003023c

000d7504 <HAL_USART_Available_Data_For_Write>:
DYNALIB_FN(BASE_IDX + 9, hal_usart, HAL_USART_Half_Duplex, void(HAL_USART_Serial, bool))
DYNALIB_FN(BASE_IDX + 10, hal_usart, HAL_USART_Available_Data_For_Write, int32_t(HAL_USART_Serial))
   d7504:	b508      	push	{r3, lr}
   d7506:	4b02      	ldr	r3, [pc, #8]	; (d7510 <HAL_USART_Available_Data_For_Write+0xc>)
   d7508:	681b      	ldr	r3, [r3, #0]
   d750a:	6a9b      	ldr	r3, [r3, #40]	; 0x28
   d750c:	9301      	str	r3, [sp, #4]
   d750e:	bd08      	pop	{r3, pc}
   d7510:	0003023c 	.word	0x0003023c

000d7514 <HAL_USART_BeginConfig>:
#define BASE_IDX2 (BASE_IDX+13)
#else
#define BASE_IDX2 (BASE_IDX+11)
#endif

DYNALIB_FN(BASE_IDX2 + 0, hal_usart, HAL_USART_BeginConfig, void(HAL_USART_Serial serial, uint32_t baud, uint32_t config, void *ptr))
   d7514:	b508      	push	{r3, lr}
   d7516:	4b02      	ldr	r3, [pc, #8]	; (d7520 <HAL_USART_BeginConfig+0xc>)
   d7518:	681b      	ldr	r3, [r3, #0]
   d751a:	6adb      	ldr	r3, [r3, #44]	; 0x2c
   d751c:	9301      	str	r3, [sp, #4]
   d751e:	bd08      	pop	{r3, pc}
   d7520:	0003023c 	.word	0x0003023c

000d7524 <HAL_I2C_Begin>:
#endif

DYNALIB_FN(BASE_IDX + 0, hal_i2c, HAL_I2C_Set_Speed, void(HAL_I2C_Interface, uint32_t, void*))
DYNALIB_FN(BASE_IDX + 1, hal_i2c, HAL_I2C_Enable_DMA_Mode, void(HAL_I2C_Interface, bool, void*))
DYNALIB_FN(BASE_IDX + 2, hal_i2c, HAL_I2C_Stretch_Clock, void(HAL_I2C_Interface, bool, void*))
DYNALIB_FN(BASE_IDX + 3, hal_i2c, HAL_I2C_Begin, void(HAL_I2C_Interface, I2C_Mode, uint8_t, void*))
   d7524:	b508      	push	{r3, lr}
   d7526:	4b02      	ldr	r3, [pc, #8]	; (d7530 <HAL_I2C_Begin+0xc>)
   d7528:	681b      	ldr	r3, [r3, #0]
   d752a:	68db      	ldr	r3, [r3, #12]
   d752c:	9301      	str	r3, [sp, #4]
   d752e:	bd08      	pop	{r3, pc}
   d7530:	00030228 	.word	0x00030228

000d7534 <HAL_I2C_Begin_Transmission>:
DYNALIB_FN(BASE_IDX + 4, hal_i2c, HAL_I2C_End, void(HAL_I2C_Interface, void*))
DYNALIB_FN(BASE_IDX + 5, hal_i2c, HAL_I2C_Request_Data, uint32_t(HAL_I2C_Interface, uint8_t, uint8_t, uint8_t, void*))
DYNALIB_FN(BASE_IDX + 6, hal_i2c, HAL_I2C_Begin_Transmission, void(HAL_I2C_Interface, uint8_t, const HAL_I2C_Transmission_Config*))
   d7534:	b508      	push	{r3, lr}
   d7536:	4b02      	ldr	r3, [pc, #8]	; (d7540 <HAL_I2C_Begin_Transmission+0xc>)
   d7538:	681b      	ldr	r3, [r3, #0]
   d753a:	699b      	ldr	r3, [r3, #24]
   d753c:	9301      	str	r3, [sp, #4]
   d753e:	bd08      	pop	{r3, pc}
   d7540:	00030228 	.word	0x00030228

000d7544 <HAL_I2C_End_Transmission>:
DYNALIB_FN(BASE_IDX + 7, hal_i2c, HAL_I2C_End_Transmission, uint8_t(HAL_I2C_Interface, uint8_t, void*))
   d7544:	b508      	push	{r3, lr}
   d7546:	4b02      	ldr	r3, [pc, #8]	; (d7550 <HAL_I2C_End_Transmission+0xc>)
   d7548:	681b      	ldr	r3, [r3, #0]
   d754a:	69db      	ldr	r3, [r3, #28]
   d754c:	9301      	str	r3, [sp, #4]
   d754e:	bd08      	pop	{r3, pc}
   d7550:	00030228 	.word	0x00030228

000d7554 <HAL_I2C_Write_Data>:
DYNALIB_FN(BASE_IDX + 8, hal_i2c, HAL_I2C_Write_Data, uint32_t(HAL_I2C_Interface, uint8_t, void*))
   d7554:	b508      	push	{r3, lr}
   d7556:	4b02      	ldr	r3, [pc, #8]	; (d7560 <HAL_I2C_Write_Data+0xc>)
   d7558:	681b      	ldr	r3, [r3, #0]
   d755a:	6a1b      	ldr	r3, [r3, #32]
   d755c:	9301      	str	r3, [sp, #4]
   d755e:	bd08      	pop	{r3, pc}
   d7560:	00030228 	.word	0x00030228

000d7564 <HAL_I2C_Available_Data>:
DYNALIB_FN(BASE_IDX + 9, hal_i2c, HAL_I2C_Available_Data, int32_t(HAL_I2C_Interface, void*))
   d7564:	b508      	push	{r3, lr}
   d7566:	4b02      	ldr	r3, [pc, #8]	; (d7570 <HAL_I2C_Available_Data+0xc>)
   d7568:	681b      	ldr	r3, [r3, #0]
   d756a:	6a5b      	ldr	r3, [r3, #36]	; 0x24
   d756c:	9301      	str	r3, [sp, #4]
   d756e:	bd08      	pop	{r3, pc}
   d7570:	00030228 	.word	0x00030228

000d7574 <HAL_I2C_Read_Data>:
DYNALIB_FN(BASE_IDX + 10, hal_i2c, HAL_I2C_Read_Data, int32_t(HAL_I2C_Interface, void*))
   d7574:	b508      	push	{r3, lr}
   d7576:	4b02      	ldr	r3, [pc, #8]	; (d7580 <HAL_I2C_Read_Data+0xc>)
   d7578:	681b      	ldr	r3, [r3, #0]
   d757a:	6a9b      	ldr	r3, [r3, #40]	; 0x28
   d757c:	9301      	str	r3, [sp, #4]
   d757e:	bd08      	pop	{r3, pc}
   d7580:	00030228 	.word	0x00030228

000d7584 <HAL_I2C_Peek_Data>:
DYNALIB_FN(BASE_IDX + 11, hal_i2c, HAL_I2C_Peek_Data, int32_t(HAL_I2C_Interface, void*))
   d7584:	b508      	push	{r3, lr}
   d7586:	4b02      	ldr	r3, [pc, #8]	; (d7590 <HAL_I2C_Peek_Data+0xc>)
   d7588:	681b      	ldr	r3, [r3, #0]
   d758a:	6adb      	ldr	r3, [r3, #44]	; 0x2c
   d758c:	9301      	str	r3, [sp, #4]
   d758e:	bd08      	pop	{r3, pc}
   d7590:	00030228 	.word	0x00030228

000d7594 <HAL_I2C_Flush_Data>:
DYNALIB_FN(BASE_IDX + 12, hal_i2c, HAL_I2C_Flush_Data, void(HAL_I2C_Interface, void*))
   d7594:	b508      	push	{r3, lr}
   d7596:	4b02      	ldr	r3, [pc, #8]	; (d75a0 <HAL_I2C_Flush_Data+0xc>)
   d7598:	681b      	ldr	r3, [r3, #0]
   d759a:	6b1b      	ldr	r3, [r3, #48]	; 0x30
   d759c:	9301      	str	r3, [sp, #4]
   d759e:	bd08      	pop	{r3, pc}
   d75a0:	00030228 	.word	0x00030228

000d75a4 <HAL_I2C_Is_Enabled>:
DYNALIB_FN(BASE_IDX + 13, hal_i2c, HAL_I2C_Is_Enabled, bool(HAL_I2C_Interface, void*))
   d75a4:	b508      	push	{r3, lr}
   d75a6:	4b02      	ldr	r3, [pc, #8]	; (d75b0 <HAL_I2C_Is_Enabled+0xc>)
   d75a8:	681b      	ldr	r3, [r3, #0]
   d75aa:	6b5b      	ldr	r3, [r3, #52]	; 0x34
   d75ac:	9301      	str	r3, [sp, #4]
   d75ae:	bd08      	pop	{r3, pc}
   d75b0:	00030228 	.word	0x00030228

000d75b4 <HAL_I2C_Init>:
DYNALIB_FN(BASE_IDX + 14, hal_i2c, HAL_I2C_Set_Callback_On_Receive, void(HAL_I2C_Interface, void(*)(int), void*))
DYNALIB_FN(BASE_IDX + 15, hal_i2c, HAL_I2C_Set_Callback_On_Request, void(HAL_I2C_Interface, void(*)(void), void*))
DYNALIB_FN(BASE_IDX + 16, hal_i2c, HAL_I2C_Init, int(HAL_I2C_Interface, const HAL_I2C_Config*))
   d75b4:	b508      	push	{r3, lr}
   d75b6:	4b02      	ldr	r3, [pc, #8]	; (d75c0 <HAL_I2C_Init+0xc>)
   d75b8:	681b      	ldr	r3, [r3, #0]
   d75ba:	6c1b      	ldr	r3, [r3, #64]	; 0x40
   d75bc:	9301      	str	r3, [sp, #4]
   d75be:	bd08      	pop	{r3, pc}
   d75c0:	00030228 	.word	0x00030228

000d75c4 <HAL_I2C_Request_Data_Ex>:
DYNALIB_FN(BASE_IDX + 17, hal_i2c, HAL_I2C_Reset, uint8_t(HAL_I2C_Interface, uint32_t, void*))
DYNALIB_FN(BASE_IDX + 18, hal_i2c, HAL_I2C_Acquire, int32_t(HAL_I2C_Interface, void*))
DYNALIB_FN(BASE_IDX + 19, hal_i2c, HAL_I2C_Release, int32_t(HAL_I2C_Interface, void*))
DYNALIB_FN(BASE_IDX + 20, hal_i2c, HAL_I2C_Request_Data_Ex, int32_t(HAL_I2C_Interface, const HAL_I2C_Transmission_Config*, void*))
   d75c4:	b508      	push	{r3, lr}
   d75c6:	4b02      	ldr	r3, [pc, #8]	; (d75d0 <HAL_I2C_Request_Data_Ex+0xc>)
   d75c8:	681b      	ldr	r3, [r3, #0]
   d75ca:	6d1b      	ldr	r3, [r3, #80]	; 0x50
   d75cc:	9301      	str	r3, [sp, #4]
   d75ce:	bd08      	pop	{r3, pc}
   d75d0:	00030228 	.word	0x00030228

000d75d4 <sock_setsockopt>:
DYNALIB_FN(1, hal_socket, sock_bind, int(int, const struct sockaddr*, socklen_t))
DYNALIB_FN(2, hal_socket, sock_shutdown, int(int, int))
DYNALIB_FN(3, hal_socket, sock_getpeername, int(int, struct sockaddr*, socklen_t*))
DYNALIB_FN(4, hal_socket, sock_getsockname, int(int, struct sockaddr*, socklen_t*))
DYNALIB_FN(5, hal_socket, sock_getsockopt, int(int, int, int, void*, socklen_t*))
DYNALIB_FN(6, hal_socket, sock_setsockopt, int(int, int, int, const void*, socklen_t))
   d75d4:	b508      	push	{r3, lr}
   d75d6:	4b02      	ldr	r3, [pc, #8]	; (d75e0 <sock_setsockopt+0xc>)
   d75d8:	681b      	ldr	r3, [r3, #0]
   d75da:	699b      	ldr	r3, [r3, #24]
   d75dc:	9301      	str	r3, [sp, #4]
   d75de:	bd08      	pop	{r3, pc}
   d75e0:	00030238 	.word	0x00030238

000d75e4 <sock_close>:
DYNALIB_FN(7, hal_socket, sock_close, int(int))
   d75e4:	b508      	push	{r3, lr}
   d75e6:	4b02      	ldr	r3, [pc, #8]	; (d75f0 <sock_close+0xc>)
   d75e8:	681b      	ldr	r3, [r3, #0]
   d75ea:	69db      	ldr	r3, [r3, #28]
   d75ec:	9301      	str	r3, [sp, #4]
   d75ee:	bd08      	pop	{r3, pc}
   d75f0:	00030238 	.word	0x00030238

000d75f4 <sock_connect>:
DYNALIB_FN(8, hal_socket, sock_connect, int(int, const struct sockaddr*, socklen_t))
   d75f4:	b508      	push	{r3, lr}
   d75f6:	4b02      	ldr	r3, [pc, #8]	; (d7600 <sock_connect+0xc>)
   d75f8:	681b      	ldr	r3, [r3, #0]
   d75fa:	6a1b      	ldr	r3, [r3, #32]
   d75fc:	9301      	str	r3, [sp, #4]
   d75fe:	bd08      	pop	{r3, pc}
   d7600:	00030238 	.word	0x00030238

000d7604 <sock_recv>:
DYNALIB_FN(9, hal_socket, sock_listen, int(int, int))
DYNALIB_FN(10, hal_socket, sock_recv, int(int, void*, size_t, int))
   d7604:	b508      	push	{r3, lr}
   d7606:	4b02      	ldr	r3, [pc, #8]	; (d7610 <sock_recv+0xc>)
   d7608:	681b      	ldr	r3, [r3, #0]
   d760a:	6a9b      	ldr	r3, [r3, #40]	; 0x28
   d760c:	9301      	str	r3, [sp, #4]
   d760e:	bd08      	pop	{r3, pc}
   d7610:	00030238 	.word	0x00030238

000d7614 <sock_send>:
DYNALIB_FN(11, hal_socket, sock_recvfrom, int(int, void*, size_t, int, struct sockaddr*, socklen_t*))
DYNALIB_FN(12, hal_socket, sock_send, int(int, const void*, size_t, int))
   d7614:	b508      	push	{r3, lr}
   d7616:	4b02      	ldr	r3, [pc, #8]	; (d7620 <sock_send+0xc>)
   d7618:	681b      	ldr	r3, [r3, #0]
   d761a:	6b1b      	ldr	r3, [r3, #48]	; 0x30
   d761c:	9301      	str	r3, [sp, #4]
   d761e:	bd08      	pop	{r3, pc}
   d7620:	00030238 	.word	0x00030238

000d7624 <sock_socket>:
DYNALIB_FN(13, hal_socket, sock_sendto, int(int, const void*, size_t, int, const struct sockaddr*, socklen_t))
DYNALIB_FN(14, hal_socket, sock_socket, int(int, int, int))
   d7624:	b508      	push	{r3, lr}
   d7626:	4b02      	ldr	r3, [pc, #8]	; (d7630 <sock_socket+0xc>)
   d7628:	681b      	ldr	r3, [r3, #0]
   d762a:	6b9b      	ldr	r3, [r3, #56]	; 0x38
   d762c:	9301      	str	r3, [sp, #4]
   d762e:	bd08      	pop	{r3, pc}
   d7630:	00030238 	.word	0x00030238

000d7634 <HAL_USB_USART_Init>:
#endif

DYNALIB_BEGIN(hal_usb)

#ifdef USB_CDC_ENABLE
DYNALIB_FN(0, hal_usb, HAL_USB_USART_Init, void(HAL_USB_USART_Serial, const HAL_USB_USART_Config*))
   d7634:	b508      	push	{r3, lr}
   d7636:	4b02      	ldr	r3, [pc, #8]	; (d7640 <HAL_USB_USART_Init+0xc>)
   d7638:	681b      	ldr	r3, [r3, #0]
   d763a:	681b      	ldr	r3, [r3, #0]
   d763c:	9301      	str	r3, [sp, #4]
   d763e:	bd08      	pop	{r3, pc}
   d7640:	0003024c 	.word	0x0003024c

000d7644 <HAL_USB_USART_Begin>:
DYNALIB_FN(1, hal_usb, HAL_USB_USART_Begin, void(HAL_USB_USART_Serial, uint32_t, void *))
   d7644:	b508      	push	{r3, lr}
   d7646:	4b02      	ldr	r3, [pc, #8]	; (d7650 <HAL_USB_USART_Begin+0xc>)
   d7648:	681b      	ldr	r3, [r3, #0]
   d764a:	685b      	ldr	r3, [r3, #4]
   d764c:	9301      	str	r3, [sp, #4]
   d764e:	bd08      	pop	{r3, pc}
   d7650:	0003024c 	.word	0x0003024c

000d7654 <HAL_USB_USART_Available_Data>:
DYNALIB_FN(2, hal_usb, HAL_USB_USART_End, void(HAL_USB_USART_Serial))
DYNALIB_FN(3, hal_usb, HAL_USB_USART_Baud_Rate, unsigned int(HAL_USB_USART_Serial))
DYNALIB_FN(4, hal_usb, HAL_USB_USART_Available_Data, int32_t(HAL_USB_USART_Serial))
   d7654:	b508      	push	{r3, lr}
   d7656:	4b02      	ldr	r3, [pc, #8]	; (d7660 <HAL_USB_USART_Available_Data+0xc>)
   d7658:	681b      	ldr	r3, [r3, #0]
   d765a:	691b      	ldr	r3, [r3, #16]
   d765c:	9301      	str	r3, [sp, #4]
   d765e:	bd08      	pop	{r3, pc}
   d7660:	0003024c 	.word	0x0003024c

000d7664 <HAL_USB_USART_Available_Data_For_Write>:
DYNALIB_FN(5, hal_usb, HAL_USB_USART_Available_Data_For_Write, int32_t(HAL_USB_USART_Serial))
   d7664:	b508      	push	{r3, lr}
   d7666:	4b02      	ldr	r3, [pc, #8]	; (d7670 <HAL_USB_USART_Available_Data_For_Write+0xc>)
   d7668:	681b      	ldr	r3, [r3, #0]
   d766a:	695b      	ldr	r3, [r3, #20]
   d766c:	9301      	str	r3, [sp, #4]
   d766e:	bd08      	pop	{r3, pc}
   d7670:	0003024c 	.word	0x0003024c

000d7674 <HAL_USB_USART_Receive_Data>:
DYNALIB_FN(6, hal_usb, HAL_USB_USART_Receive_Data, int32_t(HAL_USB_USART_Serial, uint8_t))
   d7674:	b508      	push	{r3, lr}
   d7676:	4b02      	ldr	r3, [pc, #8]	; (d7680 <HAL_USB_USART_Receive_Data+0xc>)
   d7678:	681b      	ldr	r3, [r3, #0]
   d767a:	699b      	ldr	r3, [r3, #24]
   d767c:	9301      	str	r3, [sp, #4]
   d767e:	bd08      	pop	{r3, pc}
   d7680:	0003024c 	.word	0x0003024c

000d7684 <HAL_USB_USART_Send_Data>:
DYNALIB_FN(7, hal_usb, HAL_USB_USART_Send_Data, int32_t(HAL_USB_USART_Serial, uint8_t))
   d7684:	b508      	push	{r3, lr}
   d7686:	4b02      	ldr	r3, [pc, #8]	; (d7690 <HAL_USB_USART_Send_Data+0xc>)
   d7688:	681b      	ldr	r3, [r3, #0]
   d768a:	69db      	ldr	r3, [r3, #28]
   d768c:	9301      	str	r3, [sp, #4]
   d768e:	bd08      	pop	{r3, pc}
   d7690:	0003024c 	.word	0x0003024c

000d7694 <HAL_USB_USART_Flush_Data>:
DYNALIB_FN(8, hal_usb, HAL_USB_USART_Flush_Data, void(HAL_USB_USART_Serial))
   d7694:	b508      	push	{r3, lr}
   d7696:	4b02      	ldr	r3, [pc, #8]	; (d76a0 <HAL_USB_USART_Flush_Data+0xc>)
   d7698:	681b      	ldr	r3, [r3, #0]
   d769a:	6a1b      	ldr	r3, [r3, #32]
   d769c:	9301      	str	r3, [sp, #4]
   d769e:	bd08      	pop	{r3, pc}
   d76a0:	0003024c 	.word	0x0003024c

000d76a4 <panic_>:
DYNALIB_FN(9, services, LED_Toggle, void(Led_TypeDef))
DYNALIB_FN(10, services, LED_Fade, void(Led_TypeDef))
DYNALIB_FN(11, services, Get_LED_Brightness, uint8_t(void))

DYNALIB_FN(12, services, set_logger_output, void(debug_output_fn, LoggerOutputLevel)) // Deprecated
DYNALIB_FN(13, services, panic_, void(ePanicCode, void*, void(*)(uint32_t)))
   d76a4:	b508      	push	{r3, lr}
   d76a6:	4b02      	ldr	r3, [pc, #8]	; (d76b0 <panic_+0xc>)
   d76a8:	681b      	ldr	r3, [r3, #0]
   d76aa:	6b5b      	ldr	r3, [r3, #52]	; 0x34
   d76ac:	9301      	str	r3, [sp, #4]
   d76ae:	bd08      	pop	{r3, pc}
   d76b0:	00030260 	.word	0x00030260

000d76b4 <log_message>:
DYNALIB_FN(16, services, log_print_, void(int, int, const char*, const char*, const char*, ...)) // Deprecated
DYNALIB_FN(17, services, LED_RGB_SetChangeHandler, void(led_update_handler_fn, void*))
DYNALIB_FN(18, services, log_print_direct_, void(int, void*, const char*, ...)) // Deprecated
DYNALIB_FN(19, services, LED_GetColor, uint32_t(uint32_t, void*))

DYNALIB_FN(20, services, log_message, void(int, const char*, LogAttributes*, void*, const char*, ...))
   d76b4:	b508      	push	{r3, lr}
   d76b6:	4b02      	ldr	r3, [pc, #8]	; (d76c0 <log_message+0xc>)
   d76b8:	681b      	ldr	r3, [r3, #0]
   d76ba:	6d1b      	ldr	r3, [r3, #80]	; 0x50
   d76bc:	9301      	str	r3, [sp, #4]
   d76be:	bd08      	pop	{r3, pc}
   d76c0:	00030260 	.word	0x00030260

000d76c4 <system_mode>:
#include "system_power.h"
#endif

DYNALIB_BEGIN(system)

DYNALIB_FN(0, system, system_mode, System_Mode_TypeDef(void))
   d76c4:	b508      	push	{r3, lr}
   d76c6:	4b02      	ldr	r3, [pc, #8]	; (d76d0 <system_mode+0xc>)
   d76c8:	681b      	ldr	r3, [r3, #0]
   d76ca:	681b      	ldr	r3, [r3, #0]
   d76cc:	9301      	str	r3, [sp, #4]
   d76ce:	bd08      	pop	{r3, pc}
   d76d0:	00030220 	.word	0x00030220

000d76d4 <set_system_mode>:
DYNALIB_FN(1, system, set_system_mode, void(System_Mode_TypeDef))
   d76d4:	b508      	push	{r3, lr}
   d76d6:	4b02      	ldr	r3, [pc, #8]	; (d76e0 <set_system_mode+0xc>)
   d76d8:	681b      	ldr	r3, [r3, #0]
   d76da:	685b      	ldr	r3, [r3, #4]
   d76dc:	9301      	str	r3, [sp, #4]
   d76de:	bd08      	pop	{r3, pc}
   d76e0:	00030220 	.word	0x00030220

000d76e4 <system_delay_ms>:

DYNALIB_FN(2, system, set_ymodem_serial_flash_update_handler, void(ymodem_serial_flash_update_handler))
DYNALIB_FN(3, system, system_firmwareUpdate, bool(Stream*, void*))
DYNALIB_FN(4, system, system_fileTransfer, bool(system_file_transfer_t*, void*))

DYNALIB_FN(5, system, system_delay_ms, void(unsigned long, bool))
   d76e4:	b508      	push	{r3, lr}
   d76e6:	4b02      	ldr	r3, [pc, #8]	; (d76f0 <system_delay_ms+0xc>)
   d76e8:	681b      	ldr	r3, [r3, #0]
   d76ea:	695b      	ldr	r3, [r3, #20]
   d76ec:	9301      	str	r3, [sp, #4]
   d76ee:	bd08      	pop	{r3, pc}
   d76f0:	00030220 	.word	0x00030220

000d76f4 <system_thread_get_state>:
DYNALIB_FN(18, system, Spark_Finish_Firmware_Update, int(FileTransfer::Descriptor&, uint32_t, void*))

DYNALIB_FN(19, system, application_thread_current, uint8_t(void*))
DYNALIB_FN(20, system, system_thread_current, uint8_t(void*))
DYNALIB_FN(21, system, application_thread_invoke, uint8_t(void(*)(void*), void*, void*))
DYNALIB_FN(22, system, system_thread_get_state, spark::feature::State(void*))
   d76f4:	b508      	push	{r3, lr}
   d76f6:	4b02      	ldr	r3, [pc, #8]	; (d7700 <system_thread_get_state+0xc>)
   d76f8:	681b      	ldr	r3, [r3, #0]
   d76fa:	6d9b      	ldr	r3, [r3, #88]	; 0x58
   d76fc:	9301      	str	r3, [sp, #4]
   d76fe:	bd08      	pop	{r3, pc}
   d7700:	00030220 	.word	0x00030220

000d7704 <system_ctrl_set_app_request_handler>:
DYNALIB_FN(BASE_IDX + 6, system, led_pattern_period, uint16_t(int, int, void*))
DYNALIB_FN(BASE_IDX + 7, system, system_set_tester_handlers, int(system_tester_handlers_t*, void*))
DYNALIB_FN(BASE_IDX + 8, system, system_format_diag_data, int(const uint16_t*, size_t, unsigned, appender_fn, void*, void*))

// Control requests
DYNALIB_FN(BASE_IDX + 9, system, system_ctrl_set_app_request_handler, int(ctrl_request_handler_fn, void*))
   d7704:	b508      	push	{r3, lr}
   d7706:	4b03      	ldr	r3, [pc, #12]	; (d7714 <system_ctrl_set_app_request_handler+0x10>)
   d7708:	681b      	ldr	r3, [r3, #0]
   d770a:	f8d3 3088 	ldr.w	r3, [r3, #136]	; 0x88
   d770e:	9301      	str	r3, [sp, #4]
   d7710:	bd08      	pop	{r3, pc}
   d7712:	0000      	.short	0x0000
   d7714:	00030220 	.word	0x00030220

000d7718 <system_ctrl_set_result>:
DYNALIB_FN(BASE_IDX + 10, system, system_ctrl_alloc_reply_data, int(ctrl_request*, size_t, void*))
DYNALIB_FN(BASE_IDX + 11, system, system_ctrl_free_request_data, void(ctrl_request*, void*))
DYNALIB_FN(BASE_IDX + 12, system, system_ctrl_set_result, void(ctrl_request*, int, ctrl_completion_handler_fn, void*, void*))
   d7718:	b508      	push	{r3, lr}
   d771a:	4b03      	ldr	r3, [pc, #12]	; (d7728 <system_ctrl_set_result+0x10>)
   d771c:	681b      	ldr	r3, [r3, #0]
   d771e:	f8d3 3094 	ldr.w	r3, [r3, #148]	; 0x94
   d7722:	9301      	str	r3, [sp, #4]
   d7724:	bd08      	pop	{r3, pc}
   d7726:	0000      	.short	0x0000
   d7728:	00030220 	.word	0x00030220

000d772c <network_connect>:
#endif

DYNALIB_BEGIN(system_net)

DYNALIB_FN(0, system_net, network_config, const void*(network_handle_t, uint32_t, void*))
DYNALIB_FN(1, system_net, network_connect, void(network_handle_t, uint32_t, uint32_t, void*))
   d772c:	b508      	push	{r3, lr}
   d772e:	4b02      	ldr	r3, [pc, #8]	; (d7738 <network_connect+0xc>)
   d7730:	681b      	ldr	r3, [r3, #0]
   d7732:	685b      	ldr	r3, [r3, #4]
   d7734:	9301      	str	r3, [sp, #4]
   d7736:	bd08      	pop	{r3, pc}
   d7738:	00030240 	.word	0x00030240

000d773c <network_connecting>:
DYNALIB_FN(2, system_net, network_connecting, bool(network_handle_t, uint32_t, void*))
   d773c:	b508      	push	{r3, lr}
   d773e:	4b02      	ldr	r3, [pc, #8]	; (d7748 <network_connecting+0xc>)
   d7740:	681b      	ldr	r3, [r3, #0]
   d7742:	689b      	ldr	r3, [r3, #8]
   d7744:	9301      	str	r3, [sp, #4]
   d7746:	bd08      	pop	{r3, pc}
   d7748:	00030240 	.word	0x00030240

000d774c <network_disconnect>:
DYNALIB_FN(3, system_net, network_disconnect, void(network_handle_t, uint32_t, void*))
   d774c:	b508      	push	{r3, lr}
   d774e:	4b02      	ldr	r3, [pc, #8]	; (d7758 <network_disconnect+0xc>)
   d7750:	681b      	ldr	r3, [r3, #0]
   d7752:	68db      	ldr	r3, [r3, #12]
   d7754:	9301      	str	r3, [sp, #4]
   d7756:	bd08      	pop	{r3, pc}
   d7758:	00030240 	.word	0x00030240

000d775c <network_ready>:
DYNALIB_FN(4, system_net, network_ready, bool(network_handle_t, uint32_t, void*))
   d775c:	b508      	push	{r3, lr}
   d775e:	4b02      	ldr	r3, [pc, #8]	; (d7768 <network_ready+0xc>)
   d7760:	681b      	ldr	r3, [r3, #0]
   d7762:	691b      	ldr	r3, [r3, #16]
   d7764:	9301      	str	r3, [sp, #4]
   d7766:	bd08      	pop	{r3, pc}
   d7768:	00030240 	.word	0x00030240

000d776c <network_on>:
DYNALIB_FN(5, system_net, network_on, void(network_handle_t, uint32_t, uint32_t, void*))
   d776c:	b508      	push	{r3, lr}
   d776e:	4b02      	ldr	r3, [pc, #8]	; (d7778 <network_on+0xc>)
   d7770:	681b      	ldr	r3, [r3, #0]
   d7772:	695b      	ldr	r3, [r3, #20]
   d7774:	9301      	str	r3, [sp, #4]
   d7776:	bd08      	pop	{r3, pc}
   d7778:	00030240 	.word	0x00030240

000d777c <network_off>:
DYNALIB_FN(6, system_net, network_off, void(network_handle_t, uint32_t, uint32_t, void*))
   d777c:	b508      	push	{r3, lr}
   d777e:	4b02      	ldr	r3, [pc, #8]	; (d7788 <network_off+0xc>)
   d7780:	681b      	ldr	r3, [r3, #0]
   d7782:	699b      	ldr	r3, [r3, #24]
   d7784:	9301      	str	r3, [sp, #4]
   d7786:	bd08      	pop	{r3, pc}
   d7788:	00030240 	.word	0x00030240

000d778c <network_listen>:
DYNALIB_FN(7, system_net, network_listen, void(network_handle_t, uint32_t, void*))
   d778c:	b508      	push	{r3, lr}
   d778e:	4b02      	ldr	r3, [pc, #8]	; (d7798 <network_listen+0xc>)
   d7790:	681b      	ldr	r3, [r3, #0]
   d7792:	69db      	ldr	r3, [r3, #28]
   d7794:	9301      	str	r3, [sp, #4]
   d7796:	bd08      	pop	{r3, pc}
   d7798:	00030240 	.word	0x00030240

000d779c <network_listening>:
DYNALIB_FN(8, system_net, network_listening, bool(network_handle_t, uint32_t, void*))
   d779c:	b508      	push	{r3, lr}
   d779e:	4b02      	ldr	r3, [pc, #8]	; (d77a8 <network_listening+0xc>)
   d77a0:	681b      	ldr	r3, [r3, #0]
   d77a2:	6a1b      	ldr	r3, [r3, #32]
   d77a4:	9301      	str	r3, [sp, #4]
   d77a6:	bd08      	pop	{r3, pc}
   d77a8:	00030240 	.word	0x00030240

000d77ac <network_set_listen_timeout>:
DYNALIB_FN(9, system_net, network_has_credentials, bool(network_handle_t, uint32_t, void*))
DYNALIB_FN(10, system_net, network_set_credentials, int(network_handle_t, uint32_t, NetworkCredentials*, void*))
DYNALIB_FN(11, system_net, network_clear_credentials, bool(network_handle_t, uint32_t, NetworkCredentials*, void*))
DYNALIB_FN(12, system_net, network_set_listen_timeout, void(network_handle_t, uint16_t, void*))
   d77ac:	b508      	push	{r3, lr}
   d77ae:	4b02      	ldr	r3, [pc, #8]	; (d77b8 <network_set_listen_timeout+0xc>)
   d77b0:	681b      	ldr	r3, [r3, #0]
   d77b2:	6b1b      	ldr	r3, [r3, #48]	; 0x30
   d77b4:	9301      	str	r3, [sp, #4]
   d77b6:	bd08      	pop	{r3, pc}
   d77b8:	00030240 	.word	0x00030240

000d77bc <network_get_listen_timeout>:
DYNALIB_FN(13, system_net, network_get_listen_timeout, uint16_t(network_handle_t, uint32_t, void*))
   d77bc:	b508      	push	{r3, lr}
   d77be:	4b02      	ldr	r3, [pc, #8]	; (d77c8 <network_get_listen_timeout+0xc>)
   d77c0:	681b      	ldr	r3, [r3, #0]
   d77c2:	6b5b      	ldr	r3, [r3, #52]	; 0x34
   d77c4:	9301      	str	r3, [sp, #4]
   d77c6:	bd08      	pop	{r3, pc}
   d77c8:	00030240 	.word	0x00030240

000d77cc <spark_process>:

DYNALIB_BEGIN(system_cloud)

DYNALIB_FN(0, system_cloud, spark_variable, bool(const char*, const void*, Spark_Data_TypeDef, spark_variable_t*))
DYNALIB_FN(1, system_cloud, spark_function, bool(const char*, p_user_function_int_str_t, void*))
DYNALIB_FN(2, system_cloud, spark_process, void(void))
   d77cc:	b508      	push	{r3, lr}
   d77ce:	4b02      	ldr	r3, [pc, #8]	; (d77d8 <spark_process+0xc>)
   d77d0:	681b      	ldr	r3, [r3, #0]
   d77d2:	689b      	ldr	r3, [r3, #8]
   d77d4:	9301      	str	r3, [sp, #4]
   d77d6:	bd08      	pop	{r3, pc}
   d77d8:	00030244 	.word	0x00030244

000d77dc <spark_cloud_flag_connected>:
DYNALIB_FN(3, system_cloud, spark_cloud_flag_connect, void(void))
DYNALIB_FN(4, system_cloud, spark_cloud_flag_disconnect, void(void))
DYNALIB_FN(5, system_cloud, spark_cloud_flag_connected, bool(void))
   d77dc:	b508      	push	{r3, lr}
   d77de:	4b02      	ldr	r3, [pc, #8]	; (d77e8 <spark_cloud_flag_connected+0xc>)
   d77e0:	681b      	ldr	r3, [r3, #0]
   d77e2:	695b      	ldr	r3, [r3, #20]
   d77e4:	9301      	str	r3, [sp, #4]
   d77e6:	bd08      	pop	{r3, pc}
   d77e8:	00030244 	.word	0x00030244

000d77ec <spark_sync_time>:
DYNALIB_FN(6, system_cloud, system_cloud_protocol_instance, ProtocolFacade*(void))
DYNALIB_FN(7, system_cloud, spark_deviceID, String(void))
DYNALIB_FN(8, system_cloud, spark_send_event, bool(const char*, const char*, int, uint32_t, void*))
DYNALIB_FN(9, system_cloud, spark_subscribe, bool(const char*, EventHandler, void*, Spark_Subscription_Scope_TypeDef, const char*, void*))
DYNALIB_FN(10, system_cloud, spark_unsubscribe, void(void*))
DYNALIB_FN(11, system_cloud, spark_sync_time, bool(void*))
   d77ec:	b508      	push	{r3, lr}
   d77ee:	4b02      	ldr	r3, [pc, #8]	; (d77f8 <spark_sync_time+0xc>)
   d77f0:	681b      	ldr	r3, [r3, #0]
   d77f2:	6adb      	ldr	r3, [r3, #44]	; 0x2c
   d77f4:	9301      	str	r3, [sp, #4]
   d77f6:	bd08      	pop	{r3, pc}
   d77f8:	00030244 	.word	0x00030244

000d77fc <spark_sync_time_pending>:
DYNALIB_FN(12, system_cloud, spark_sync_time_pending, bool(void*))
   d77fc:	b508      	push	{r3, lr}
   d77fe:	4b02      	ldr	r3, [pc, #8]	; (d7808 <spark_sync_time_pending+0xc>)
   d7800:	681b      	ldr	r3, [r3, #0]
   d7802:	6b1b      	ldr	r3, [r3, #48]	; 0x30
   d7804:	9301      	str	r3, [sp, #4]
   d7806:	bd08      	pop	{r3, pc}
   d7808:	00030244 	.word	0x00030244

000d780c <spark_set_random_seed_from_cloud_handler>:
DYNALIB_FN(13, system_cloud, spark_sync_time_last, system_tick_t(time_t*, void*))
DYNALIB_FN(14, system_cloud, spark_set_connection_property, int(unsigned, unsigned, particle::protocol::connection_properties_t*, void*))
DYNALIB_FN(15, system_cloud, spark_set_random_seed_from_cloud_handler, int(void (*handler)(unsigned int), void*))
   d780c:	b508      	push	{r3, lr}
   d780e:	4b02      	ldr	r3, [pc, #8]	; (d7818 <spark_set_random_seed_from_cloud_handler+0xc>)
   d7810:	681b      	ldr	r3, [r3, #0]
   d7812:	6bdb      	ldr	r3, [r3, #60]	; 0x3c
   d7814:	9301      	str	r3, [sp, #4]
   d7816:	bd08      	pop	{r3, pc}
   d7818:	00030244 	.word	0x00030244

000d781c <malloc>:
#include <assert.h>
#endif

DYNALIB_BEGIN(rt)

DYNALIB_FN(0, rt, malloc, void*(size_t))
   d781c:	b508      	push	{r3, lr}
   d781e:	4b02      	ldr	r3, [pc, #8]	; (d7828 <malloc+0xc>)
   d7820:	681b      	ldr	r3, [r3, #0]
   d7822:	681b      	ldr	r3, [r3, #0]
   d7824:	9301      	str	r3, [sp, #4]
   d7826:	bd08      	pop	{r3, pc}
   d7828:	0003021c 	.word	0x0003021c

000d782c <free>:
DYNALIB_FN(1, rt, free, void(void*))
   d782c:	b508      	push	{r3, lr}
   d782e:	4b02      	ldr	r3, [pc, #8]	; (d7838 <free+0xc>)
   d7830:	681b      	ldr	r3, [r3, #0]
   d7832:	685b      	ldr	r3, [r3, #4]
   d7834:	9301      	str	r3, [sp, #4]
   d7836:	bd08      	pop	{r3, pc}
   d7838:	0003021c 	.word	0x0003021c

000d783c <realloc>:
DYNALIB_FN(2, rt, realloc, void*(void*, size_t))
   d783c:	b508      	push	{r3, lr}
   d783e:	4b02      	ldr	r3, [pc, #8]	; (d7848 <realloc+0xc>)
   d7840:	681b      	ldr	r3, [r3, #0]
   d7842:	689b      	ldr	r3, [r3, #8]
   d7844:	9301      	str	r3, [sp, #4]
   d7846:	bd08      	pop	{r3, pc}
   d7848:	0003021c 	.word	0x0003021c

000d784c <siprintf>:
DYNALIB_FN(3, rt, sprintf, int(char*, const char*, ...))
DYNALIB_FN(4, rt, siprintf, int(char*, const char*, ...))
   d784c:	b508      	push	{r3, lr}
   d784e:	4b02      	ldr	r3, [pc, #8]	; (d7858 <siprintf+0xc>)
   d7850:	681b      	ldr	r3, [r3, #0]
   d7852:	691b      	ldr	r3, [r3, #16]
   d7854:	9301      	str	r3, [sp, #4]
   d7856:	bd08      	pop	{r3, pc}
   d7858:	0003021c 	.word	0x0003021c

000d785c <siscanf>:
DYNALIB_FN(5, rt, sscanf, int(const char*, const char*, ...))
DYNALIB_FN(6, rt, siscanf, int(const char*, const char*, ...))
   d785c:	b508      	push	{r3, lr}
   d785e:	4b02      	ldr	r3, [pc, #8]	; (d7868 <siscanf+0xc>)
   d7860:	681b      	ldr	r3, [r3, #0]
   d7862:	699b      	ldr	r3, [r3, #24]
   d7864:	9301      	str	r3, [sp, #4]
   d7866:	bd08      	pop	{r3, pc}
   d7868:	0003021c 	.word	0x0003021c

000d786c <vsnprintf>:
DYNALIB_FN(7, rt, snprintf, int(char*, size_t, const char*, ...))
DYNALIB_FN(8, rt, sniprintf, int(char*, size_t, const char*, ...))
DYNALIB_FN(9, rt, vsnprintf, int(char*, size_t, const char*, va_list))
   d786c:	b508      	push	{r3, lr}
   d786e:	4b02      	ldr	r3, [pc, #8]	; (d7878 <vsnprintf+0xc>)
   d7870:	681b      	ldr	r3, [r3, #0]
   d7872:	6a5b      	ldr	r3, [r3, #36]	; 0x24
   d7874:	9301      	str	r3, [sp, #4]
   d7876:	bd08      	pop	{r3, pc}
   d7878:	0003021c 	.word	0x0003021c

000d787c <_malloc_r>:
DYNALIB_FN(10, rt, vsniprintf, int(char*, size_t, const char*, va_list))
DYNALIB_FN(11, rt, abort, void(void))
DYNALIB_FN(12, rt, _malloc_r, void*(struct _reent*, size_t))
   d787c:	b508      	push	{r3, lr}
   d787e:	4b02      	ldr	r3, [pc, #8]	; (d7888 <_malloc_r+0xc>)
   d7880:	681b      	ldr	r3, [r3, #0]
   d7882:	6b1b      	ldr	r3, [r3, #48]	; 0x30
   d7884:	9301      	str	r3, [sp, #4]
   d7886:	bd08      	pop	{r3, pc}
   d7888:	0003021c 	.word	0x0003021c

000d788c <__errno>:
DYNALIB_FN(13, rt, _free_r, void(struct _reent*, void*))
DYNALIB_FN(14, rt, _realloc_r, void*(struct _reent*, void*, size_t))
DYNALIB_FN(15, rt, __errno, int*())
   d788c:	b508      	push	{r3, lr}
   d788e:	4b02      	ldr	r3, [pc, #8]	; (d7898 <__errno+0xc>)
   d7890:	681b      	ldr	r3, [r3, #0]
   d7892:	6bdb      	ldr	r3, [r3, #60]	; 0x3c
   d7894:	9301      	str	r3, [sp, #4]
   d7896:	bd08      	pop	{r3, pc}
   d7898:	0003021c 	.word	0x0003021c

000d789c <_ZN5spark13EthernetClass9listeningEv>:
    uint16_t getListenTimeout(void) {
        return network_get_listen_timeout(*this, 0, NULL);
    }

    bool listening(void) {
        return network_listening(*this, 0, NULL);
   d789c:	2200      	movs	r2, #0
   d789e:	4611      	mov	r1, r2
   d78a0:	6840      	ldr	r0, [r0, #4]
   d78a2:	f7ff bf7b 	b.w	d779c <network_listening>

000d78a6 <_ZN5spark13EthernetClass16getListenTimeoutEv>:
    void setListenTimeout(uint16_t timeout) {
        network_set_listen_timeout(*this, timeout, NULL);
    }

    uint16_t getListenTimeout(void) {
        return network_get_listen_timeout(*this, 0, NULL);
   d78a6:	2200      	movs	r2, #0
   d78a8:	4611      	mov	r1, r2
   d78aa:	6840      	ldr	r0, [r0, #4]
   d78ac:	f7ff bf86 	b.w	d77bc <network_get_listen_timeout>

000d78b0 <_ZN5spark13EthernetClass16setListenTimeoutEt>:
    void listen(bool begin=true) {
        network_listen(*this, begin ? 0 : 1, NULL);
    }

    void setListenTimeout(uint16_t timeout) {
        network_set_listen_timeout(*this, timeout, NULL);
   d78b0:	2200      	movs	r2, #0
   d78b2:	6840      	ldr	r0, [r0, #4]
   d78b4:	f7ff bf7a 	b.w	d77ac <network_set_listen_timeout>

000d78b8 <_ZN5spark13EthernetClass6listenEb>:
    void disconnect() {
        network_disconnect(*this, NETWORK_DISCONNECT_REASON_USER, NULL);
    }

    void listen(bool begin=true) {
        network_listen(*this, begin ? 0 : 1, NULL);
   d78b8:	2200      	movs	r2, #0
   d78ba:	f081 0101 	eor.w	r1, r1, #1
   d78be:	6840      	ldr	r0, [r0, #4]
   d78c0:	f7ff bf64 	b.w	d778c <network_listen>

000d78c4 <_ZN5spark13EthernetClass3offEv>:
    void on() {
        network_on(*this, 0, 0, NULL);
    }

    void off() {
        network_off(*this, 0, 0, NULL);
   d78c4:	2300      	movs	r3, #0
   d78c6:	461a      	mov	r2, r3
   d78c8:	4619      	mov	r1, r3
   d78ca:	6840      	ldr	r0, [r0, #4]
   d78cc:	f7ff bf56 	b.w	d777c <network_off>

000d78d0 <_ZN5spark13EthernetClass2onEv>:
    EthernetClass() :
            NetworkClass(NETWORK_INTERFACE_ETHERNET) {
    }

    void on() {
        network_on(*this, 0, 0, NULL);
   d78d0:	2300      	movs	r3, #0
   d78d2:	461a      	mov	r2, r3
   d78d4:	4619      	mov	r1, r3
   d78d6:	6840      	ldr	r0, [r0, #4]
   d78d8:	f7ff bf48 	b.w	d776c <network_on>

000d78dc <_ZN5spark13EthernetClass5readyEv>:
    bool listening(void) {
        return network_listening(*this, 0, NULL);
    }

    bool ready() {
        return network_ready(*this, 0,  NULL);
   d78dc:	2200      	movs	r2, #0
   d78de:	4611      	mov	r1, r2
   d78e0:	6840      	ldr	r0, [r0, #4]
   d78e2:	f7ff bf3b 	b.w	d775c <network_ready>

000d78e6 <_ZN5spark13EthernetClass10connectingEv>:
    void connect(unsigned flags=0) {
        network_connect(*this, flags, 0, NULL);
    }

    bool connecting(void) {
        return network_connecting(*this, 0, NULL);
   d78e6:	2200      	movs	r2, #0
   d78e8:	4611      	mov	r1, r2
   d78ea:	6840      	ldr	r0, [r0, #4]
   d78ec:	f7ff bf26 	b.w	d773c <network_connecting>

000d78f0 <_ZN5spark13EthernetClass10disconnectEv>:
    }

    void disconnect() {
        network_disconnect(*this, NETWORK_DISCONNECT_REASON_USER, NULL);
   d78f0:	2200      	movs	r2, #0
   d78f2:	2102      	movs	r1, #2
   d78f4:	6840      	ldr	r0, [r0, #4]
   d78f6:	f7ff bf29 	b.w	d774c <network_disconnect>

000d78fa <_ZN5spark13EthernetClass7connectEj>:
    void off() {
        network_off(*this, 0, 0, NULL);
    }

    void connect(unsigned flags=0) {
        network_connect(*this, flags, 0, NULL);
   d78fa:	2300      	movs	r3, #0
   d78fc:	461a      	mov	r2, r3
   d78fe:	6840      	ldr	r0, [r0, #4]
   d7900:	f7ff bf14 	b.w	d772c <network_connect>

000d7904 <_GLOBAL__sub_I__ZN5spark8EthernetE>:
    static NetworkClass& from(network_interface_t nif);

    virtual IPAddress resolve(const char* name);

    explicit NetworkClass(network_interface_t iface)
            : iface_(iface) {
   d7904:	4b02      	ldr	r3, [pc, #8]	; (d7910 <_GLOBAL__sub_I__ZN5spark8EthernetE+0xc>)
   d7906:	2203      	movs	r2, #3
   d7908:	605a      	str	r2, [r3, #4]
    }

class EthernetClass : public NetworkClass {
public:
    EthernetClass() :
            NetworkClass(NETWORK_INTERFACE_ETHERNET) {
   d790a:	4a02      	ldr	r2, [pc, #8]	; (d7914 <_GLOBAL__sub_I__ZN5spark8EthernetE+0x10>)
   d790c:	601a      	str	r2, [r3, #0]
   d790e:	4770      	bx	lr
   d7910:	2003e3ac 	.word	0x2003e3ac
   d7914:	000da624 	.word	0x000da624

000d7918 <_ZN8SPIClass4lockEv.isra.0>:
  }

  int lock()
  {
#if HAL_PLATFORM_SPI_HAL_THREAD_SAFETY
    return HAL_SPI_Acquire(_spi, nullptr);
   d7918:	2100      	movs	r1, #0
   d791a:	f7ff bd33 	b.w	d7384 <HAL_SPI_Acquire>

000d791e <_ZN8SPIClass6unlockEv.isra.1>:
  }

  void unlock()
  {
#if HAL_PLATFORM_SPI_HAL_THREAD_SAFETY
    HAL_SPI_Release(_spi, nullptr);
   d791e:	2100      	movs	r1, #0
   d7920:	f7ff bd38 	b.w	d7394 <HAL_SPI_Release>

000d7924 <_ZN8SPIClassC1E17HAL_SPI_Interface>:
    }
    return particle::__SPISettings(info->clock, info->bit_order, info->data_mode);
}
} // namespace

SPIClass::SPIClass(HAL_SPI_Interface spi)
   d7924:	b510      	push	{r4, lr}
   d7926:	4604      	mov	r4, r0
{
    _spi = spi;
   d7928:	7001      	strb	r1, [r0, #0]
    HAL_SPI_Init(_spi);
   d792a:	4608      	mov	r0, r1
   d792c:	f7ff fcfa 	bl	d7324 <HAL_SPI_Init>
    _dividerReference = SPI_CLK_SYSTEM; // 0 indicates the system clock
   d7930:	2300      	movs	r3, #0
   d7932:	6063      	str	r3, [r4, #4]
}
   d7934:	4620      	mov	r0, r4
   d7936:	bd10      	pop	{r4, pc}

000d7938 <_ZN8SPIClass5beginEv>:

void SPIClass::begin()
{
   d7938:	b510      	push	{r4, lr}
   d793a:	4604      	mov	r4, r0
    // TODO: Fetch default pin from HAL
    if (!lock())
   d793c:	7800      	ldrb	r0, [r0, #0]
   d793e:	f7ff ffeb 	bl	d7918 <_ZN8SPIClass4lockEv.isra.0>
   d7942:	b948      	cbnz	r0, d7958 <_ZN8SPIClass5beginEv+0x20>
    {
        HAL_SPI_Begin(_spi, SPI_DEFAULT_SS);
   d7944:	7820      	ldrb	r0, [r4, #0]
   d7946:	f64f 71ff 	movw	r1, #65535	; 0xffff
   d794a:	f7ff fcdb 	bl	d7304 <HAL_SPI_Begin>
        unlock();
   d794e:	7820      	ldrb	r0, [r4, #0]
    }
}
   d7950:	e8bd 4010 	ldmia.w	sp!, {r4, lr}
{
    // TODO: Fetch default pin from HAL
    if (!lock())
    {
        HAL_SPI_Begin(_spi, SPI_DEFAULT_SS);
        unlock();
   d7954:	f7ff bfe3 	b.w	d791e <_ZN8SPIClass6unlockEv.isra.1>
   d7958:	bd10      	pop	{r4, pc}

000d795a <_ZN8SPIClass14endTransactionEv>:
}

void SPIClass::endTransaction()
{
    // Release peripheral
    unlock();
   d795a:	7800      	ldrb	r0, [r0, #0]
   d795c:	f7ff bfdf 	b.w	d791e <_ZN8SPIClass6unlockEv.isra.1>

000d7960 <_ZN8SPIClass19computeClockDividerEjjRhRj>:
void SPIClass::computeClockDivider(unsigned reference, unsigned targetSpeed, uint8_t& divider,
                                   unsigned& clock)
{
    clock = reference;
    uint8_t scale = 0;
    clock >>= 1; // div2 is the first
   d7960:	0840      	lsrs	r0, r0, #1
    }
}

void SPIClass::computeClockDivider(unsigned reference, unsigned targetSpeed, uint8_t& divider,
                                   unsigned& clock)
{
   d7962:	b530      	push	{r4, r5, lr}
    clock = reference;
    uint8_t scale = 0;
    clock >>= 1; // div2 is the first
   d7964:	6018      	str	r0, [r3, #0]
   d7966:	2400      	movs	r4, #0
    while (clock > targetSpeed && scale < 7)
   d7968:	6818      	ldr	r0, [r3, #0]
   d796a:	4288      	cmp	r0, r1
   d796c:	b2e5      	uxtb	r5, r4
   d796e:	d906      	bls.n	d797e <_ZN8SPIClass19computeClockDividerEjjRhRj+0x1e>
   d7970:	3401      	adds	r4, #1
   d7972:	2c08      	cmp	r4, #8
   d7974:	d002      	beq.n	d797c <_ZN8SPIClass19computeClockDividerEjjRhRj+0x1c>
    {
        clock >>= 1;
   d7976:	0840      	lsrs	r0, r0, #1
   d7978:	6018      	str	r0, [r3, #0]
                                   unsigned& clock)
{
    clock = reference;
    uint8_t scale = 0;
    clock >>= 1; // div2 is the first
    while (clock > targetSpeed && scale < 7)
   d797a:	e7f5      	b.n	d7968 <_ZN8SPIClass19computeClockDividerEjjRhRj+0x8>
   d797c:	2507      	movs	r5, #7
    {
        clock >>= 1;
        scale++;
    }
    divider = clock_divisors[scale];
   d797e:	4b02      	ldr	r3, [pc, #8]	; (d7988 <_ZN8SPIClass19computeClockDividerEjjRhRj+0x28>)
   d7980:	5d5b      	ldrb	r3, [r3, r5]
   d7982:	7013      	strb	r3, [r2, #0]
   d7984:	bd30      	pop	{r4, r5, pc}
   d7986:	bf00      	nop
   d7988:	000da650 	.word	0x000da650

000d798c <_ZN8SPIClass16beginTransactionERKN8particle13__SPISettingsE>:
{
    return lock();
}

int32_t SPIClass::beginTransaction(const particle::__SPISettings& settings)
{
   d798c:	e92d 43f0 	stmdb	sp!, {r4, r5, r6, r7, r8, r9, lr}
   d7990:	4607      	mov	r7, r0
   d7992:	b08f      	sub	sp, #60	; 0x3c
    // Lock peripheral
    CHECK(lock());
   d7994:	7800      	ldrb	r0, [r0, #0]
{
    return lock();
}

int32_t SPIClass::beginTransaction(const particle::__SPISettings& settings)
{
   d7996:	460e      	mov	r6, r1
    // Lock peripheral
    CHECK(lock());
   d7998:	f7ff ffbe 	bl	d7918 <_ZN8SPIClass4lockEv.isra.0>
   d799c:	2800      	cmp	r0, #0
   d799e:	db62      	blt.n	d7a66 <_ZN8SPIClass16beginTransactionERKN8particle13__SPISettingsE+0xda>

    // Collect existing SPI info
    hal_spi_info_t spi_info;
    querySpiInfo(_spi, &spi_info);
   d79a0:	783c      	ldrb	r4, [r7, #0]
 * \warning This method is NOT THREADSAFE and callers will need to utilize
 *          HAL synchronization primatives.
 */
static void querySpiInfo(HAL_SPI_Interface spi, hal_spi_info_t* info)
{
    memset(info, 0, sizeof(hal_spi_info_t));
   d79a2:	2214      	movs	r2, #20
   d79a4:	2100      	movs	r1, #0
   d79a6:	a809      	add	r0, sp, #36	; 0x24
   d79a8:	f001 ff38 	bl	d981c <memset>
    info->version = HAL_SPI_INFO_VERSION_1;
   d79ac:	230b      	movs	r3, #11
    HAL_SPI_Info(spi, info, nullptr);
   d79ae:	4620      	mov	r0, r4
   d79b0:	2200      	movs	r2, #0
   d79b2:	a909      	add	r1, sp, #36	; 0x24
 *          HAL synchronization primatives.
 */
static void querySpiInfo(HAL_SPI_Interface spi, hal_spi_info_t* info)
{
    memset(info, 0, sizeof(hal_spi_info_t));
    info->version = HAL_SPI_INFO_VERSION_1;
   d79b4:	f8ad 3024 	strh.w	r3, [sp, #36]	; 0x24
    HAL_SPI_Info(spi, info, nullptr);
   d79b8:	f7ff fcc4 	bl	d7344 <HAL_SPI_Info>
/**
 * \brief Extract SPI Settings from SPI Info Structure
 */
static particle::__SPISettings spiSettingsFromSpiInfo(hal_spi_info_t* info)
{
    if (!info || !info->enabled || info->default_settings)
   d79bc:	f89d 402d 	ldrb.w	r4, [sp, #45]	; 0x2d
   d79c0:	b154      	cbz	r4, d79d8 <_ZN8SPIClass16beginTransactionERKN8particle13__SPISettingsE+0x4c>
   d79c2:	f89d 502c 	ldrb.w	r5, [sp, #44]	; 0x2c
   d79c6:	b935      	cbnz	r5, d79d6 <_ZN8SPIClass16beginTransactionERKN8particle13__SPISettingsE+0x4a>
    {
        return particle::__SPISettings();
    }
    return particle::__SPISettings(info->clock, info->bit_order, info->data_mode);
   d79c8:	f8dd 8030 	ldr.w	r8, [sp, #48]	; 0x30
   d79cc:	f89d 9034 	ldrb.w	r9, [sp, #52]	; 0x34
   d79d0:	f89d 4035 	ldrb.w	r4, [sp, #53]	; 0x35
   d79d4:	e003      	b.n	d79de <_ZN8SPIClass16beginTransactionERKN8particle13__SPISettingsE+0x52>
      dataMode_{dataMode}
  {
  }

  __SPISettings()
  {
   d79d6:	2400      	movs	r4, #0
   d79d8:	46a1      	mov	r9, r4
   d79da:	46a0      	mov	r8, r4
   d79dc:	2501      	movs	r5, #1
   d79de:	7933      	ldrb	r3, [r6, #4]
  }

  bool operator==(const __SPISettings& other) const
  {
    if (default_ && other.default_)
   d79e0:	b105      	cbz	r5, d79e4 <_ZN8SPIClass16beginTransactionERKN8particle13__SPISettingsE+0x58>
   d79e2:	b9bb      	cbnz	r3, d7a14 <_ZN8SPIClass16beginTransactionERKN8particle13__SPISettingsE+0x88>
      return true;

    if (default_ == other.default_ &&
   d79e4:	429d      	cmp	r5, r3
   d79e6:	d10b      	bne.n	d7a00 <_ZN8SPIClass16beginTransactionERKN8particle13__SPISettingsE+0x74>
   d79e8:	68b2      	ldr	r2, [r6, #8]
   d79ea:	4542      	cmp	r2, r8
   d79ec:	d108      	bne.n	d7a00 <_ZN8SPIClass16beginTransactionERKN8particle13__SPISettingsE+0x74>
        clock_ == other.clock_ &&
        bitOrder_ == other.bitOrder_ &&
   d79ee:	f88d 9020 	strb.w	r9, [sp, #32]
   d79f2:	f88d 4021 	strb.w	r4, [sp, #33]	; 0x21
   d79f6:	f8bd 1020 	ldrh.w	r1, [sp, #32]
   d79fa:	89b2      	ldrh	r2, [r6, #12]
   d79fc:	4291      	cmp	r1, r2
   d79fe:	d009      	beq.n	d7a14 <_ZN8SPIClass16beginTransactionERKN8particle13__SPISettingsE+0x88>
    particle::__SPISettings spi_settings = spiSettingsFromSpiInfo(&spi_info);

    // Reconfigure SPI peripheral (if necessary)
    if (settings != spi_settings)
    {
        if (settings.default_)
   d7a00:	b153      	cbz	r3, d7a18 <_ZN8SPIClass16beginTransactionERKN8particle13__SPISettingsE+0x8c>
        {
            HAL_SPI_Set_Settings(_spi, settings.default_, 0, 0, 0, nullptr);
   d7a02:	2400      	movs	r4, #0
   d7a04:	7838      	ldrb	r0, [r7, #0]
   d7a06:	9401      	str	r4, [sp, #4]
   d7a08:	9400      	str	r4, [sp, #0]
   d7a0a:	4623      	mov	r3, r4
   d7a0c:	4622      	mov	r2, r4
   d7a0e:	2101      	movs	r1, #1

            // Ensure inequality aside from computed clock value
            if (!(spi_settings <= settings && clock == spi_settings.clock_))
            {
                HAL_SPI_Set_Settings(_spi, settings.default_, divisor, settings.bitOrder_,
                                     settings.dataMode_, nullptr);
   d7a10:	f7ff fcb0 	bl	d7374 <HAL_SPI_Set_Settings>
            }
        }
    }

    return 0;
   d7a14:	2000      	movs	r0, #0
   d7a16:	e026      	b.n	d7a66 <_ZN8SPIClass16beginTransactionERKN8particle13__SPISettingsE+0xda>
            HAL_SPI_Set_Settings(_spi, settings.default_, 0, 0, 0, nullptr);
        }
        else
        {
            // Compute valid clock value and clock divider from supplied clock value
            uint8_t divisor = 0;
   d7a18:	f88d 300f 	strb.w	r3, [sp, #15]
            unsigned int clock; // intentionally left uninitialized
            computeClockDivider((unsigned int)spi_info.system_clock, settings.clock_, divisor,
                                clock);
   d7a1c:	68b1      	ldr	r1, [r6, #8]
   d7a1e:	980a      	ldr	r0, [sp, #40]	; 0x28
   d7a20:	ab04      	add	r3, sp, #16
   d7a22:	f10d 020f 	add.w	r2, sp, #15
   d7a26:	f7ff ff9b 	bl	d7960 <_ZN8SPIClass19computeClockDividerEjjRhRj>
   d7a2a:	7931      	ldrb	r1, [r6, #4]
    return false;
  }

  bool operator<=(const __SPISettings& other) const
  {
    if (default_ && other.default_)
   d7a2c:	b105      	cbz	r5, d7a30 <_ZN8SPIClass16beginTransactionERKN8particle13__SPISettingsE+0xa4>
   d7a2e:	b9b1      	cbnz	r1, d7a5e <_ZN8SPIClass16beginTransactionERKN8particle13__SPISettingsE+0xd2>
      return true;

    if (default_ == other.default_ &&
   d7a30:	42a9      	cmp	r1, r5
   d7a32:	d008      	beq.n	d7a46 <_ZN8SPIClass16beginTransactionERKN8particle13__SPISettingsE+0xba>

            // Ensure inequality aside from computed clock value
            if (!(spi_settings <= settings && clock == spi_settings.clock_))
            {
                HAL_SPI_Set_Settings(_spi, settings.default_, divisor, settings.bitOrder_,
                                     settings.dataMode_, nullptr);
   d7a34:	2400      	movs	r4, #0
   d7a36:	7838      	ldrb	r0, [r7, #0]
   d7a38:	9401      	str	r4, [sp, #4]
   d7a3a:	7b74      	ldrb	r4, [r6, #13]
   d7a3c:	7b33      	ldrb	r3, [r6, #12]
   d7a3e:	f89d 200f 	ldrb.w	r2, [sp, #15]
   d7a42:	9400      	str	r4, [sp, #0]
   d7a44:	e7e4      	b.n	d7a10 <_ZN8SPIClass16beginTransactionERKN8particle13__SPISettingsE+0x84>
   d7a46:	68b3      	ldr	r3, [r6, #8]
   d7a48:	4543      	cmp	r3, r8
   d7a4a:	d3f3      	bcc.n	d7a34 <_ZN8SPIClass16beginTransactionERKN8particle13__SPISettingsE+0xa8>
        clock_ <= other.clock_ &&
        bitOrder_ == other.bitOrder_ &&
   d7a4c:	f88d 9020 	strb.w	r9, [sp, #32]
   d7a50:	f88d 4021 	strb.w	r4, [sp, #33]	; 0x21
   d7a54:	f8bd 2020 	ldrh.w	r2, [sp, #32]
   d7a58:	89b3      	ldrh	r3, [r6, #12]
   d7a5a:	429a      	cmp	r2, r3
   d7a5c:	d1ea      	bne.n	d7a34 <_ZN8SPIClass16beginTransactionERKN8particle13__SPISettingsE+0xa8>
            unsigned int clock; // intentionally left uninitialized
            computeClockDivider((unsigned int)spi_info.system_clock, settings.clock_, divisor,
                                clock);

            // Ensure inequality aside from computed clock value
            if (!(spi_settings <= settings && clock == spi_settings.clock_))
   d7a5e:	9b04      	ldr	r3, [sp, #16]
   d7a60:	4543      	cmp	r3, r8
   d7a62:	d1e7      	bne.n	d7a34 <_ZN8SPIClass16beginTransactionERKN8particle13__SPISettingsE+0xa8>
   d7a64:	e7d6      	b.n	d7a14 <_ZN8SPIClass16beginTransactionERKN8particle13__SPISettingsE+0x88>
            }
        }
    }

    return 0;
}
   d7a66:	b00f      	add	sp, #60	; 0x3c
   d7a68:	e8bd 83f0 	ldmia.w	sp!, {r4, r5, r6, r7, r8, r9, pc}

000d7a6c <_ZN8SPIClass8transferEh>:

    return clock;
}

byte SPIClass::transfer(byte _data)
{
   d7a6c:	b508      	push	{r3, lr}
    return static_cast<byte>(HAL_SPI_Send_Receive_Data(_spi, _data));
   d7a6e:	7800      	ldrb	r0, [r0, #0]
   d7a70:	f7ff fc50 	bl	d7314 <HAL_SPI_Send_Receive_Data>
}
   d7a74:	b2c0      	uxtb	r0, r0
   d7a76:	bd08      	pop	{r3, pc}

000d7a78 <_ZN8SPIClass8transferEPvS0_jPFvvE>:

void SPIClass::transfer(void* tx_buffer, void* rx_buffer, size_t length,
                        wiring_spi_dma_transfercomplete_callback_t user_callback)
{
   d7a78:	b530      	push	{r4, r5, lr}
   d7a7a:	b087      	sub	sp, #28
   d7a7c:	4604      	mov	r4, r0
   d7a7e:	9d0a      	ldr	r5, [sp, #40]	; 0x28
    HAL_SPI_DMA_Transfer(_spi, tx_buffer, rx_buffer, length, user_callback);
   d7a80:	7800      	ldrb	r0, [r0, #0]
   d7a82:	9500      	str	r5, [sp, #0]
   d7a84:	f7ff fc66 	bl	d7354 <HAL_SPI_DMA_Transfer>
    if (user_callback == NULL)
   d7a88:	b93d      	cbnz	r5, d7a9a <_ZN8SPIClass8transferEPvS0_jPFvvE+0x22>
    {
        HAL_SPI_TransferStatus st;
        do
        {
            HAL_SPI_DMA_Transfer_Status(_spi, &st);
   d7a8a:	a902      	add	r1, sp, #8
   d7a8c:	7820      	ldrb	r0, [r4, #0]
   d7a8e:	f7ff fc69 	bl	d7364 <HAL_SPI_DMA_Transfer_Status>
{
    HAL_SPI_DMA_Transfer(_spi, tx_buffer, rx_buffer, length, user_callback);
    if (user_callback == NULL)
    {
        HAL_SPI_TransferStatus st;
        do
   d7a92:	f89d 3014 	ldrb.w	r3, [sp, #20]
   d7a96:	07db      	lsls	r3, r3, #31
   d7a98:	d4f7      	bmi.n	d7a8a <_ZN8SPIClass8transferEPvS0_jPFvvE+0x12>
        {
            HAL_SPI_DMA_Transfer_Status(_spi, &st);
        } while (st.transfer_ongoing);
    }
}
   d7a9a:	b007      	add	sp, #28
   d7a9c:	bd30      	pop	{r4, r5, pc}

000d7a9e <_ZN8SPIClass9isEnabledEv>:
bool SPIClass::isEnabled()
{
    // XXX: pinAvailable() will call this method potentially even from
    // interrupt context. `enabled` flag in HAL is usually just a volatile
    // variable, so it's fine not to acquire the lock here.
    return HAL_SPI_Is_Enabled(_spi);
   d7a9e:	7800      	ldrb	r0, [r0, #0]
   d7aa0:	f7ff bc48 	b.w	d7334 <HAL_SPI_Is_Enabled>

000d7aa4 <_ZN17SystemSleepResult22freeWakeupSourceMemoryEv.isra.2>:
    operator SleepResult() {
        return toSleepResult();
    }

private:
    void freeWakeupSourceMemory() {
   d7aa4:	b510      	push	{r4, lr}
   d7aa6:	4604      	mov	r4, r0
        if (wakeupSource_) {
   d7aa8:	6800      	ldr	r0, [r0, #0]
   d7aaa:	b118      	cbz	r0, d7ab4 <_ZN17SystemSleepResult22freeWakeupSourceMemoryEv.isra.2+0x10>
            free(wakeupSource_);
   d7aac:	f7ff febe 	bl	d782c <free>
            wakeupSource_ = nullptr;
   d7ab0:	2300      	movs	r3, #0
   d7ab2:	6023      	str	r3, [r4, #0]
   d7ab4:	bd10      	pop	{r4, pc}

000d7ab6 <_ZN11SystemClassD1Ev>:
    system_error_t error_;
    SleepResult compatResult_;
};


class SystemClass {
   d7ab6:	b510      	push	{r4, lr}
   d7ab8:	4604      	mov	r4, r0
        }
        return *this;
    }

    ~SystemSleepResult() {
        freeWakeupSourceMemory();
   d7aba:	f7ff fff3 	bl	d7aa4 <_ZN17SystemSleepResult22freeWakeupSourceMemoryEv.isra.2>
    system_error_t error_;
    SleepResult compatResult_;
};


class SystemClass {
   d7abe:	4620      	mov	r0, r4
   d7ac0:	bd10      	pop	{r4, pc}
	...

000d7ac4 <_GLOBAL__sub_I_System>:
    return wokenUpByRtc();
}

system_error_t SleepResult::error() const {
    return err_;
   d7ac4:	b510      	push	{r4, lr}

class SystemSleepResult {
public:
    SystemSleepResult()
            : wakeupSource_(nullptr),
              error_(SYSTEM_ERROR_NONE) {
   d7ac6:	4c09      	ldr	r4, [pc, #36]	; (d7aec <_GLOBAL__sub_I_System+0x28>)
   d7ac8:	2000      	movs	r0, #0
    WAKEUP_REASON_PIN_OR_RTC = 3,
    WAKEUP_REASON_UNKNOWN = 4
};

struct SleepResult {
    SleepResult() {}
   d7aca:	f64f 73ff 	movw	r3, #65535	; 0xffff

class SystemSleepResult {
public:
    SystemSleepResult()
            : wakeupSource_(nullptr),
              error_(SYSTEM_ERROR_NONE) {
   d7ace:	6020      	str	r0, [r4, #0]
   d7ad0:	80a0      	strh	r0, [r4, #4]
    WAKEUP_REASON_PIN_OR_RTC = 3,
    WAKEUP_REASON_UNKNOWN = 4
};

struct SleepResult {
    SleepResult() {}
   d7ad2:	71a0      	strb	r0, [r4, #6]
   d7ad4:	8120      	strh	r0, [r4, #8]
   d7ad6:	8163      	strh	r3, [r4, #10]

class SystemClass {
public:

    SystemClass(System_Mode_TypeDef mode = DEFAULT) {
        set_system_mode(mode);
   d7ad8:	f7ff fdfc 	bl	d76d4 <set_system_mode>

#if Wiring_LogConfig
extern void(*log_process_ctrl_request_callback)(ctrl_request* req);
#endif

SystemClass System;
   d7adc:	4620      	mov	r0, r4
   d7ade:	4a04      	ldr	r2, [pc, #16]	; (d7af0 <_GLOBAL__sub_I_System+0x2c>)
   d7ae0:	4904      	ldr	r1, [pc, #16]	; (d7af4 <_GLOBAL__sub_I_System+0x30>)
    return wokenUpByRtc();
}

system_error_t SleepResult::error() const {
    return err_;
   d7ae2:	e8bd 4010 	ldmia.w	sp!, {r4, lr}

#if Wiring_LogConfig
extern void(*log_process_ctrl_request_callback)(ctrl_request* req);
#endif

SystemClass System;
   d7ae6:	f001 ba1b 	b.w	d8f20 <__aeabi_atexit>
   d7aea:	bf00      	nop
   d7aec:	2003e3b4 	.word	0x2003e3b4
   d7af0:	2003dcd8 	.word	0x2003dcd8
   d7af4:	000d7ab7 	.word	0x000d7ab7

000d7af8 <_ZN6StringD1Ev>:
	init();
	char buf[33];
	dtoa(value, decimalPlaces, buf);
        *this = buf;
}
String::~String()
   d7af8:	b510      	push	{r4, lr}
   d7afa:	4604      	mov	r4, r0
{
	free(buffer);
   d7afc:	6800      	ldr	r0, [r0, #0]
   d7afe:	f7ff fe95 	bl	d782c <free>
}
   d7b02:	4620      	mov	r0, r4
   d7b04:	bd10      	pop	{r4, pc}

000d7b06 <_ZN6String10invalidateEv>:
	len = 0;
	flags = 0;
}

void String::invalidate(void)
{
   d7b06:	b510      	push	{r4, lr}
   d7b08:	4604      	mov	r4, r0
	if (buffer) free(buffer);
   d7b0a:	6800      	ldr	r0, [r0, #0]
   d7b0c:	b108      	cbz	r0, d7b12 <_ZN6String10invalidateEv+0xc>
   d7b0e:	f7ff fe8d 	bl	d782c <free>
	buffer = NULL;
   d7b12:	2300      	movs	r3, #0
   d7b14:	6023      	str	r3, [r4, #0]
	capacity = len = 0;
   d7b16:	60a3      	str	r3, [r4, #8]
   d7b18:	6063      	str	r3, [r4, #4]
   d7b1a:	bd10      	pop	{r4, pc}

000d7b1c <_ZN6String12changeBufferEj>:
	}
	return 0;
}

unsigned char String::changeBuffer(unsigned int maxStrLen)
{
   d7b1c:	b538      	push	{r3, r4, r5, lr}
   d7b1e:	4604      	mov	r4, r0
   d7b20:	460d      	mov	r5, r1
	char *newbuffer = (char *)realloc(buffer, maxStrLen + 1);
   d7b22:	6800      	ldr	r0, [r0, #0]
   d7b24:	3101      	adds	r1, #1
   d7b26:	f7ff fe89 	bl	d783c <realloc>
	if (newbuffer) {
   d7b2a:	b110      	cbz	r0, d7b32 <_ZN6String12changeBufferEj+0x16>
		buffer = newbuffer;
		capacity = maxStrLen;
   d7b2c:	e884 0021 	stmia.w	r4, {r0, r5}
		return 1;
   d7b30:	2001      	movs	r0, #1
	}
	return 0;
}
   d7b32:	bd38      	pop	{r3, r4, r5, pc}

000d7b34 <_ZN6String7reserveEj>:
	buffer = NULL;
	capacity = len = 0;
}

unsigned char String::reserve(unsigned int size)
{
   d7b34:	b510      	push	{r4, lr}
	if (buffer && capacity >= size) return 1;
   d7b36:	6803      	ldr	r3, [r0, #0]
	buffer = NULL;
	capacity = len = 0;
}

unsigned char String::reserve(unsigned int size)
{
   d7b38:	4604      	mov	r4, r0
	if (buffer && capacity >= size) return 1;
   d7b3a:	b113      	cbz	r3, d7b42 <_ZN6String7reserveEj+0xe>
   d7b3c:	6843      	ldr	r3, [r0, #4]
   d7b3e:	428b      	cmp	r3, r1
   d7b40:	d207      	bcs.n	d7b52 <_ZN6String7reserveEj+0x1e>
	if (changeBuffer(size)) {
   d7b42:	4620      	mov	r0, r4
   d7b44:	f7ff ffea 	bl	d7b1c <_ZN6String12changeBufferEj>
   d7b48:	b120      	cbz	r0, d7b54 <_ZN6String7reserveEj+0x20>
		if (len == 0) buffer[0] = 0;
   d7b4a:	68a3      	ldr	r3, [r4, #8]
   d7b4c:	b90b      	cbnz	r3, d7b52 <_ZN6String7reserveEj+0x1e>
   d7b4e:	6822      	ldr	r2, [r4, #0]
   d7b50:	7013      	strb	r3, [r2, #0]
   d7b52:	2001      	movs	r0, #1
		return 1;
	}
	return 0;
}
   d7b54:	bd10      	pop	{r4, pc}

000d7b56 <_ZN6String4copyEPKcj>:
/*********************************************/
/*  Copy and Move                            */
/*********************************************/

String & String::copy(const char *cstr, unsigned int length)
{
   d7b56:	b570      	push	{r4, r5, r6, lr}
   d7b58:	460e      	mov	r6, r1
	if (!reserve(length)) {
   d7b5a:	4611      	mov	r1, r2
/*********************************************/
/*  Copy and Move                            */
/*********************************************/

String & String::copy(const char *cstr, unsigned int length)
{
   d7b5c:	4604      	mov	r4, r0
   d7b5e:	4615      	mov	r5, r2
	if (!reserve(length)) {
   d7b60:	f7ff ffe8 	bl	d7b34 <_ZN6String7reserveEj>
   d7b64:	b918      	cbnz	r0, d7b6e <_ZN6String4copyEPKcj+0x18>
		invalidate();
   d7b66:	4620      	mov	r0, r4
   d7b68:	f7ff ffcd 	bl	d7b06 <_ZN6String10invalidateEv>
		return *this;
   d7b6c:	e009      	b.n	d7b82 <_ZN6String4copyEPKcj+0x2c>
	}
	len = length;
	memcpy(buffer, cstr, length);
   d7b6e:	462a      	mov	r2, r5
   d7b70:	4631      	mov	r1, r6
{
	if (!reserve(length)) {
		invalidate();
		return *this;
	}
	len = length;
   d7b72:	60a5      	str	r5, [r4, #8]
	memcpy(buffer, cstr, length);
   d7b74:	6820      	ldr	r0, [r4, #0]
   d7b76:	f001 fe46 	bl	d9806 <memcpy>
	buffer[len] = 0;
   d7b7a:	6822      	ldr	r2, [r4, #0]
   d7b7c:	68a3      	ldr	r3, [r4, #8]
   d7b7e:	2100      	movs	r1, #0
   d7b80:	54d1      	strb	r1, [r2, r3]
	return *this;
}
   d7b82:	4620      	mov	r0, r4
   d7b84:	bd70      	pop	{r4, r5, r6, pc}

000d7b86 <_ZN6StringC1EPK19__FlashStringHelper>:
{
	init();
	*this = value;
}

String::String(const __FlashStringHelper *pstr)
   d7b86:	b538      	push	{r3, r4, r5, lr}
/*  Memory Management                        */
/*********************************************/

inline void String::init(void)
{
	buffer = NULL;
   d7b88:	2300      	movs	r3, #0
{
	init();
	*this = value;
}

String::String(const __FlashStringHelper *pstr)
   d7b8a:	4604      	mov	r4, r0
/*  Memory Management                        */
/*********************************************/

inline void String::init(void)
{
	buffer = NULL;
   d7b8c:	6003      	str	r3, [r0, #0]
	capacity = 0;
   d7b8e:	6043      	str	r3, [r0, #4]
	len = 0;
   d7b90:	6083      	str	r3, [r0, #8]
	flags = 0;
   d7b92:	7303      	strb	r3, [r0, #12]

String::String(const __FlashStringHelper *pstr)
{
	init();
	const char* cstr = reinterpret_cast<const char*>(pstr);
	if (cstr) copy(cstr, strlen(cstr));
   d7b94:	460d      	mov	r5, r1
   d7b96:	b139      	cbz	r1, d7ba8 <_ZN6StringC1EPK19__FlashStringHelper+0x22>
   d7b98:	4608      	mov	r0, r1
   d7b9a:	f001 fe81 	bl	d98a0 <strlen>
   d7b9e:	4629      	mov	r1, r5
   d7ba0:	4602      	mov	r2, r0
   d7ba2:	4620      	mov	r0, r4
   d7ba4:	f7ff ffd7 	bl	d7b56 <_ZN6String4copyEPKcj>
}
   d7ba8:	4620      	mov	r0, r4
   d7baa:	bd38      	pop	{r3, r4, r5, pc}

000d7bac <_ZN6String4moveERS_>:
    return copy(reinterpret_cast<const char*>(pstr), length);
}

#ifdef __GXX_EXPERIMENTAL_CXX0X__
void String::move(String &rhs)
{
   d7bac:	b538      	push	{r3, r4, r5, lr}
   d7bae:	4605      	mov	r5, r0
	if (buffer) {
   d7bb0:	6800      	ldr	r0, [r0, #0]
    return copy(reinterpret_cast<const char*>(pstr), length);
}

#ifdef __GXX_EXPERIMENTAL_CXX0X__
void String::move(String &rhs)
{
   d7bb2:	460c      	mov	r4, r1
	if (buffer) {
   d7bb4:	b160      	cbz	r0, d7bd0 <_ZN6String4moveERS_+0x24>
		if (capacity >= rhs.len) {
   d7bb6:	686a      	ldr	r2, [r5, #4]
   d7bb8:	688b      	ldr	r3, [r1, #8]
   d7bba:	429a      	cmp	r2, r3
   d7bbc:	d306      	bcc.n	d7bcc <_ZN6String4moveERS_+0x20>
			strcpy(buffer, rhs.buffer);
   d7bbe:	6809      	ldr	r1, [r1, #0]
   d7bc0:	f001 fe66 	bl	d9890 <strcpy>
			len = rhs.len;
   d7bc4:	68a3      	ldr	r3, [r4, #8]
   d7bc6:	60ab      	str	r3, [r5, #8]
			rhs.len = 0;
   d7bc8:	2300      	movs	r3, #0
   d7bca:	e00a      	b.n	d7be2 <_ZN6String4moveERS_+0x36>
			return;
		} else {
			free(buffer);
   d7bcc:	f7ff fe2e 	bl	d782c <free>
		}
	}
	buffer = rhs.buffer;
   d7bd0:	6823      	ldr	r3, [r4, #0]
   d7bd2:	602b      	str	r3, [r5, #0]
	capacity = rhs.capacity;
   d7bd4:	6863      	ldr	r3, [r4, #4]
   d7bd6:	606b      	str	r3, [r5, #4]
	len = rhs.len;
   d7bd8:	68a3      	ldr	r3, [r4, #8]
   d7bda:	60ab      	str	r3, [r5, #8]
	rhs.buffer = NULL;
   d7bdc:	2300      	movs	r3, #0
   d7bde:	6023      	str	r3, [r4, #0]
	rhs.capacity = 0;
   d7be0:	6063      	str	r3, [r4, #4]
	rhs.len = 0;
   d7be2:	60a3      	str	r3, [r4, #8]
   d7be4:	bd38      	pop	{r3, r4, r5, pc}

000d7be6 <_ZN6StringaSEOS_>:
}

#ifdef __GXX_EXPERIMENTAL_CXX0X__
String & String::operator = (String &&rval)
{
	if (this != &rval) move(rval);
   d7be6:	4288      	cmp	r0, r1
    return *this;
}

#ifdef __GXX_EXPERIMENTAL_CXX0X__
String & String::operator = (String &&rval)
{
   d7be8:	b510      	push	{r4, lr}
   d7bea:	4604      	mov	r4, r0
	if (this != &rval) move(rval);
   d7bec:	d001      	beq.n	d7bf2 <_ZN6StringaSEOS_+0xc>
   d7bee:	f7ff ffdd 	bl	d7bac <_ZN6String4moveERS_>
	return *this;
}
   d7bf2:	4620      	mov	r0, r4
   d7bf4:	bd10      	pop	{r4, pc}

000d7bf6 <_ZNK6String8getBytesEPhjj>:
	if (index >= len || !buffer) return 0;
	return buffer[index];
}

void String::getBytes(unsigned char *buf, unsigned int bufsize, unsigned int index) const
{
   d7bf6:	b570      	push	{r4, r5, r6, lr}
   d7bf8:	460e      	mov	r6, r1
	if (!bufsize || !buf) return;
   d7bfa:	b19a      	cbz	r2, d7c24 <_ZNK6String8getBytesEPhjj+0x2e>
   d7bfc:	b191      	cbz	r1, d7c24 <_ZNK6String8getBytesEPhjj+0x2e>
	if (index >= len) {
   d7bfe:	6885      	ldr	r5, [r0, #8]
   d7c00:	429d      	cmp	r5, r3
   d7c02:	d802      	bhi.n	d7c0a <_ZNK6String8getBytesEPhjj+0x14>
		buf[0] = 0;
   d7c04:	2300      	movs	r3, #0
   d7c06:	700b      	strb	r3, [r1, #0]
		return;
   d7c08:	bd70      	pop	{r4, r5, r6, pc}
	}
	unsigned int n = bufsize - 1;
   d7c0a:	1e54      	subs	r4, r2, #1
	if (n > len - index) n = len - index;
   d7c0c:	1aed      	subs	r5, r5, r3
	strncpy((char *)buf, buffer + index, n);
   d7c0e:	6801      	ldr	r1, [r0, #0]
   d7c10:	42ac      	cmp	r4, r5
   d7c12:	bf28      	it	cs
   d7c14:	462c      	movcs	r4, r5
   d7c16:	4419      	add	r1, r3
   d7c18:	4622      	mov	r2, r4
   d7c1a:	4630      	mov	r0, r6
   d7c1c:	f001 fe5d 	bl	d98da <strncpy>
	buf[n] = 0;
   d7c20:	2300      	movs	r3, #0
   d7c22:	5533      	strb	r3, [r6, r4]
   d7c24:	bd70      	pop	{r4, r5, r6, pc}
	...

000d7c28 <_ZNK6String9substringEjj>:
{
	return substring(left, len);
}

String String::substring(unsigned int left, unsigned int right) const
{
   d7c28:	b5f8      	push	{r3, r4, r5, r6, r7, lr}
	if (left > right) {
   d7c2a:	429a      	cmp	r2, r3
{
	return substring(left, len);
}

String String::substring(unsigned int left, unsigned int right) const
{
   d7c2c:	460f      	mov	r7, r1
   d7c2e:	461d      	mov	r5, r3
	if (left > right) {
		unsigned int temp = right;
		right = left;
		left = temp;
	}
	String out;
   d7c30:	490c      	ldr	r1, [pc, #48]	; (d7c64 <_ZNK6String9substringEjj+0x3c>)
	return substring(left, len);
}

String String::substring(unsigned int left, unsigned int right) const
{
	if (left > right) {
   d7c32:	bf88      	it	hi
   d7c34:	4613      	movhi	r3, r2
{
	return substring(left, len);
}

String String::substring(unsigned int left, unsigned int right) const
{
   d7c36:	4614      	mov	r4, r2
   d7c38:	4606      	mov	r6, r0
	if (left > right) {
   d7c3a:	bf84      	itt	hi
   d7c3c:	462c      	movhi	r4, r5
   d7c3e:	461d      	movhi	r5, r3
		unsigned int temp = right;
		right = left;
		left = temp;
	}
	String out;
   d7c40:	f7ff ffa1 	bl	d7b86 <_ZN6StringC1EPK19__FlashStringHelper>
	if (left > len) return out;
   d7c44:	68ba      	ldr	r2, [r7, #8]
   d7c46:	4294      	cmp	r4, r2
   d7c48:	d80a      	bhi.n	d7c60 <_ZNK6String9substringEjj+0x38>
	if (right > len) right = len;
	out.copy(&buffer[left], right - left);
   d7c4a:	6839      	ldr	r1, [r7, #0]
   d7c4c:	4295      	cmp	r5, r2
   d7c4e:	bf94      	ite	ls
   d7c50:	ebc4 0205 	rsbls	r2, r4, r5
   d7c54:	ebc4 0202 	rsbhi	r2, r4, r2
   d7c58:	4421      	add	r1, r4
   d7c5a:	4630      	mov	r0, r6
   d7c5c:	f7ff ff7b 	bl	d7b56 <_ZN6String4copyEPKcj>
	return out;
}
   d7c60:	4630      	mov	r0, r6
   d7c62:	bdf8      	pop	{r3, r4, r5, r6, r7, pc}
   d7c64:	000da435 	.word	0x000da435

000d7c68 <_ZN14RecursiveMutexD1Ev>:
    RecursiveMutex() : handle_(nullptr)
    {
        os_mutex_recursive_create(&handle_);
    }

    ~RecursiveMutex() {
   d7c68:	b510      	push	{r4, lr}
   d7c6a:	4604      	mov	r4, r0
        dispose();
    }

    void dispose()
    {
        if (handle_) {
   d7c6c:	6800      	ldr	r0, [r0, #0]
   d7c6e:	b108      	cbz	r0, d7c74 <_ZN14RecursiveMutexD1Ev+0xc>
            os_mutex_recursive_destroy(handle_);
   d7c70:	f7ff fbf0 	bl	d7454 <os_mutex_recursive_destroy>
        os_mutex_recursive_create(&handle_);
    }

    ~RecursiveMutex() {
        dispose();
    }
   d7c74:	4620      	mov	r0, r4
   d7c76:	bd10      	pop	{r4, pc}

000d7c78 <_GLOBAL__sub_I__ZN8particle3ble13WiringBleLock6mutex_E>:
BleCharacteristic BleLocalDevice::addCharacteristic(const String& desc, EnumFlags<BleCharacteristicProperty> properties, BleOnDataReceivedCallback callback, void* context) {
    WiringBleLock lk;
    return addCharacteristic(desc.c_str(), properties, callback, context);
}

} /* namespace particle */
   d7c78:	b510      	push	{r4, lr}
    /**
     * Creates a shared mutex.
     */
    RecursiveMutex(os_mutex_recursive_t handle) : handle_(handle) {}

    RecursiveMutex() : handle_(nullptr)
   d7c7a:	4c06      	ldr	r4, [pc, #24]	; (d7c94 <_GLOBAL__sub_I__ZN8particle3ble13WiringBleLock6mutex_E+0x1c>)
   d7c7c:	2300      	movs	r3, #0
    {
        os_mutex_recursive_create(&handle_);
   d7c7e:	4620      	mov	r0, r4
    /**
     * Creates a shared mutex.
     */
    RecursiveMutex(os_mutex_recursive_t handle) : handle_(handle) {}

    RecursiveMutex() : handle_(nullptr)
   d7c80:	6023      	str	r3, [r4, #0]
    {
        os_mutex_recursive_create(&handle_);
   d7c82:	f7ff fbdf 	bl	d7444 <os_mutex_recursive_create>
private:
    bool locked_;
    static RecursiveMutex mutex_;
};

RecursiveMutex WiringBleLock::mutex_;
   d7c86:	4620      	mov	r0, r4
   d7c88:	4a03      	ldr	r2, [pc, #12]	; (d7c98 <_GLOBAL__sub_I__ZN8particle3ble13WiringBleLock6mutex_E+0x20>)
   d7c8a:	4904      	ldr	r1, [pc, #16]	; (d7c9c <_GLOBAL__sub_I__ZN8particle3ble13WiringBleLock6mutex_E+0x24>)
BleCharacteristic BleLocalDevice::addCharacteristic(const String& desc, EnumFlags<BleCharacteristicProperty> properties, BleOnDataReceivedCallback callback, void* context) {
    WiringBleLock lk;
    return addCharacteristic(desc.c_str(), properties, callback, context);
}

} /* namespace particle */
   d7c8c:	e8bd 4010 	ldmia.w	sp!, {r4, lr}
private:
    bool locked_;
    static RecursiveMutex mutex_;
};

RecursiveMutex WiringBleLock::mutex_;
   d7c90:	f001 b946 	b.w	d8f20 <__aeabi_atexit>
   d7c94:	2003e3c0 	.word	0x2003e3c0
   d7c98:	2003dcd8 	.word	0x2003dcd8
   d7c9c:	000d7c69 	.word	0x000d7c69

000d7ca0 <_ZN5Print5writeEPKhj>:

// Public Methods //////////////////////////////////////////////////////////////

/* default implementation: may be overridden */
size_t Print::write(const uint8_t *buffer, size_t size)
{
   d7ca0:	b5f8      	push	{r3, r4, r5, r6, r7, lr}
   d7ca2:	4606      	mov	r6, r0
   d7ca4:	460d      	mov	r5, r1
   d7ca6:	188f      	adds	r7, r1, r2
  size_t n = 0;
   d7ca8:	2400      	movs	r4, #0
  while (size--) {
   d7caa:	42bd      	cmp	r5, r7
   d7cac:	d00c      	beq.n	d7cc8 <_ZN5Print5writeEPKhj+0x28>
     int chunk = write(*buffer++);
   d7cae:	6833      	ldr	r3, [r6, #0]
   d7cb0:	f815 1b01 	ldrb.w	r1, [r5], #1
   d7cb4:	689b      	ldr	r3, [r3, #8]
   d7cb6:	4630      	mov	r0, r6
   d7cb8:	4798      	blx	r3
     if (chunk>=0)
   d7cba:	2800      	cmp	r0, #0
   d7cbc:	db01      	blt.n	d7cc2 <_ZN5Print5writeEPKhj+0x22>
         n += chunk;
   d7cbe:	4404      	add	r4, r0

/* default implementation: may be overridden */
size_t Print::write(const uint8_t *buffer, size_t size)
{
  size_t n = 0;
  while (size--) {
   d7cc0:	e7f3      	b.n	d7caa <_ZN5Print5writeEPKhj+0xa>
     int chunk = write(*buffer++);
   d7cc2:	2c00      	cmp	r4, #0
   d7cc4:	bf08      	it	eq
   d7cc6:	4604      	moveq	r4, r0
             n = chunk;
         break;
     }
  }
  return n;
}
   d7cc8:	4620      	mov	r0, r4
   d7cca:	bdf8      	pop	{r3, r4, r5, r6, r7, pc}

000d7ccc <_ZN5Print5printEPKc>:
   d7ccc:	b508      	push	{r3, lr}
   d7cce:	f7fe fe07 	bl	d68e0 <_ZN5Print5writeEPKc>
   d7cd2:	bd08      	pop	{r3, pc}

000d7cd4 <_ZN5Print5printEc>:
  return write(str);
}

size_t Print::print(char c)
{
  return write(c);
   d7cd4:	6803      	ldr	r3, [r0, #0]
   d7cd6:	689b      	ldr	r3, [r3, #8]
   d7cd8:	4718      	bx	r3

000d7cda <_ZN5Print7printlnEv>:
{
  return print(reinterpret_cast<const char*>(str));
}

size_t Print::println(void)
{
   d7cda:	b538      	push	{r3, r4, r5, lr}
  size_t n = print('\r');
   d7cdc:	210d      	movs	r1, #13
{
  return print(reinterpret_cast<const char*>(str));
}

size_t Print::println(void)
{
   d7cde:	4605      	mov	r5, r0
  size_t n = print('\r');
   d7ce0:	f7ff fff8 	bl	d7cd4 <_ZN5Print5printEc>
  n += print('\n');
   d7ce4:	210a      	movs	r1, #10
  return print(reinterpret_cast<const char*>(str));
}

size_t Print::println(void)
{
  size_t n = print('\r');
   d7ce6:	4604      	mov	r4, r0
  n += print('\n');
   d7ce8:	4628      	mov	r0, r5
   d7cea:	f7ff fff3 	bl	d7cd4 <_ZN5Print5printEc>
  return n;
}
   d7cee:	4420      	add	r0, r4
   d7cf0:	bd38      	pop	{r3, r4, r5, pc}

000d7cf2 <_ZN5Print7printlnEPKc>:

size_t Print::println(const char c[])
{
   d7cf2:	b538      	push	{r3, r4, r5, lr}
   d7cf4:	4605      	mov	r5, r0
  return n;
}

size_t Print::print(const char str[])
{
  return write(str);
   d7cf6:	f7fe fdf3 	bl	d68e0 <_ZN5Print5writeEPKc>
   d7cfa:	4604      	mov	r4, r0
}

size_t Print::println(const char c[])
{
  size_t n = print(c);
  n += println();
   d7cfc:	4628      	mov	r0, r5
   d7cfe:	f7ff ffec 	bl	d7cda <_ZN5Print7printlnEv>
  return n;
}
   d7d02:	4420      	add	r0, r4
   d7d04:	bd38      	pop	{r3, r4, r5, pc}

000d7d06 <_ZN5Print11printNumberEmh>:
  return println(reinterpret_cast<const char*>(str));
}

// Private Methods /////////////////////////////////////////////////////////////

size_t Print::printNumber(unsigned long n, uint8_t base) {
   d7d06:	b530      	push	{r4, r5, lr}
   d7d08:	b08b      	sub	sp, #44	; 0x2c
   d7d0a:	460b      	mov	r3, r1
  char buf[8 * sizeof(n) + 1]; // Assumes 8-bit chars plus zero byte.
  char *str = &buf[sizeof(buf) - 1];

  *str = '\0';
   d7d0c:	2100      	movs	r1, #0
   d7d0e:	f88d 1024 	strb.w	r1, [sp, #36]	; 0x24

  // prevent crash if called with base == 1
  if (base < 2) base = 10;
   d7d12:	2a01      	cmp	r2, #1
   d7d14:	bf98      	it	ls
   d7d16:	220a      	movls	r2, #10
   d7d18:	f10d 0423 	add.w	r4, sp, #35	; 0x23

  do {
   decltype(n) m = n;
   n /= base;
   d7d1c:	fbb3 f5f2 	udiv	r5, r3, r2
   char c = m - base * n;
   d7d20:	fb05 3312 	mls	r3, r5, r2, r3
   d7d24:	f003 03ff 	and.w	r3, r3, #255	; 0xff
   *--str = c < 10 ? c + '0' : c + 'A' - 10;
   d7d28:	2b09      	cmp	r3, #9
   d7d2a:	bf94      	ite	ls
   d7d2c:	3330      	addls	r3, #48	; 0x30
   d7d2e:	3337      	addhi	r3, #55	; 0x37
   d7d30:	b2db      	uxtb	r3, r3
   d7d32:	4621      	mov	r1, r4
   d7d34:	f804 3901 	strb.w	r3, [r4], #-1
   d7d38:	462b      	mov	r3, r5
  *str = '\0';

  // prevent crash if called with base == 1
  if (base < 2) base = 10;

  do {
   d7d3a:	2d00      	cmp	r5, #0
   d7d3c:	d1ee      	bne.n	d7d1c <_ZN5Print11printNumberEmh+0x16>
   n /= base;
   char c = m - base * n;
   *--str = c < 10 ? c + '0' : c + 'A' - 10;
  } while(n);

  return write(str);
   d7d3e:	f7fe fdcf 	bl	d68e0 <_ZN5Print5writeEPKc>
}
   d7d42:	b00b      	add	sp, #44	; 0x2c
   d7d44:	bd30      	pop	{r4, r5, pc}

000d7d46 <_ZN5Print11printf_implEbPKcz>:

  return n;
}

size_t Print::printf_impl(bool newline, const char* format, ...)
{
   d7d46:	b40c      	push	{r2, r3}
   d7d48:	e92d 43f0 	stmdb	sp!, {r4, r5, r6, r7, r8, r9, lr}
   d7d4c:	b087      	sub	sp, #28
   d7d4e:	af00      	add	r7, sp, #0
   d7d50:	f107 0438 	add.w	r4, r7, #56	; 0x38
   d7d54:	4605      	mov	r5, r0
   d7d56:	f854 9b04 	ldr.w	r9, [r4], #4
    const int bufsize = 20;
    char test[bufsize];
    va_list marker;
    va_start(marker, format);
   d7d5a:	603c      	str	r4, [r7, #0]

  return n;
}

size_t Print::printf_impl(bool newline, const char* format, ...)
{
   d7d5c:	460e      	mov	r6, r1
    const int bufsize = 20;
    char test[bufsize];
    va_list marker;
    va_start(marker, format);
    size_t n = vsnprintf(test, bufsize, format, marker);
   d7d5e:	4623      	mov	r3, r4
   d7d60:	464a      	mov	r2, r9
   d7d62:	2114      	movs	r1, #20
   d7d64:	1d38      	adds	r0, r7, #4
   d7d66:	f7ff fd81 	bl	d786c <vsnprintf>
    va_end(marker);

    if (n<bufsize)
   d7d6a:	2813      	cmp	r0, #19
   d7d6c:	d805      	bhi.n	d7d7a <_ZN5Print11printf_implEbPKcz+0x34>
  return n;
}

size_t Print::print(const char str[])
{
  return write(str);
   d7d6e:	1d39      	adds	r1, r7, #4
   d7d70:	4628      	mov	r0, r5
   d7d72:	f7fe fdb5 	bl	d68e0 <_ZN5Print5writeEPKc>
   d7d76:	4604      	mov	r4, r0
   d7d78:	e013      	b.n	d7da2 <_ZN5Print11printf_implEbPKcz+0x5c>
    {
        n = print(test);
    }
    else
    {
        char bigger[n+1];
   d7d7a:	f100 0308 	add.w	r3, r0, #8
   d7d7e:	f023 0307 	bic.w	r3, r3, #7
        va_start(marker, format);
        n = vsnprintf(bigger, n+1, format, marker);
        va_end(marker);
        n = print(bigger);
   d7d82:	46e8      	mov	r8, sp
    {
        n = print(test);
    }
    else
    {
        char bigger[n+1];
   d7d84:	ebad 0d03 	sub.w	sp, sp, r3
        va_start(marker, format);
        n = vsnprintf(bigger, n+1, format, marker);
   d7d88:	1c41      	adds	r1, r0, #1
   d7d8a:	4623      	mov	r3, r4
   d7d8c:	464a      	mov	r2, r9
   d7d8e:	4668      	mov	r0, sp
        n = print(test);
    }
    else
    {
        char bigger[n+1];
        va_start(marker, format);
   d7d90:	603c      	str	r4, [r7, #0]
        n = vsnprintf(bigger, n+1, format, marker);
   d7d92:	f7ff fd6b 	bl	d786c <vsnprintf>
  return n;
}

size_t Print::print(const char str[])
{
  return write(str);
   d7d96:	4669      	mov	r1, sp
   d7d98:	4628      	mov	r0, r5
   d7d9a:	f7fe fda1 	bl	d68e0 <_ZN5Print5writeEPKc>
   d7d9e:	4604      	mov	r4, r0
   d7da0:	46c5      	mov	sp, r8
        va_start(marker, format);
        n = vsnprintf(bigger, n+1, format, marker);
        va_end(marker);
        n = print(bigger);
    }
    if (newline)
   d7da2:	b11e      	cbz	r6, d7dac <_ZN5Print11printf_implEbPKcz+0x66>
        n += println();
   d7da4:	4628      	mov	r0, r5
   d7da6:	f7ff ff98 	bl	d7cda <_ZN5Print7printlnEv>
   d7daa:	4404      	add	r4, r0
    return n;
}
   d7dac:	4620      	mov	r0, r4
   d7dae:	371c      	adds	r7, #28
   d7db0:	46bd      	mov	sp, r7
   d7db2:	e8bd 43f0 	ldmia.w	sp!, {r4, r5, r6, r7, r8, r9, lr}
   d7db6:	b002      	add	sp, #8
   d7db8:	4770      	bx	lr
	...

000d7dbc <_GLOBAL__sub_I__ZN5spark3LogE>:
    // This handler doesn't support direct logging
}

// spark::Logger
inline spark::Logger::Logger(const char *name) :
        name_(name) {
   d7dbc:	4b01      	ldr	r3, [pc, #4]	; (d7dc4 <_GLOBAL__sub_I__ZN5spark3LogE+0x8>)
   d7dbe:	4a02      	ldr	r2, [pc, #8]	; (d7dc8 <_GLOBAL__sub_I__ZN5spark3LogE+0xc>)
   d7dc0:	601a      	str	r2, [r3, #0]
   d7dc2:	4770      	bx	lr
   d7dc4:	2003e3c4 	.word	0x2003e3c4
   d7dc8:	000da6cb 	.word	0x000da6cb

000d7dcc <_ZN10CloudClass12syncTimeDoneEv.isra.1>:
    bool syncTimePending(void)
    {
        return connected() && spark_sync_time_pending(nullptr);
    }

    bool syncTimeDone(void)
   d7dcc:	b508      	push	{r3, lr}
    {
        return !spark_sync_time_pending(nullptr) || disconnected();
   d7dce:	2000      	movs	r0, #0
   d7dd0:	f7ff fd14 	bl	d77fc <spark_sync_time_pending>
   d7dd4:	b128      	cbz	r0, d7de2 <_ZN10CloudClass12syncTimeDoneEv.isra.1+0x16>
    static void sleep(Spark_Sleep_TypeDef sleepMode, long seconds=0) __attribute__ ((deprecated("Please use System.sleep() instead.")))
    { SystemClass::sleep(sleepMode, seconds); }
    static void sleep(uint16_t wakeUpPin, InterruptMode edgeTriggerMode, long seconds=0) __attribute__ ((deprecated("Please use System.sleep() instead.")))
    { SystemClass::sleep(wakeUpPin, edgeTriggerMode, seconds); }

    static bool connected(void) { return spark_cloud_flag_connected(); }
   d7dd6:	f7ff fd01 	bl	d77dc <spark_cloud_flag_connected>
        return connected() && spark_sync_time_pending(nullptr);
    }

    bool syncTimeDone(void)
    {
        return !spark_sync_time_pending(nullptr) || disconnected();
   d7dda:	f080 0001 	eor.w	r0, r0, #1
   d7dde:	b2c0      	uxtb	r0, r0
   d7de0:	bd08      	pop	{r3, pc}
   d7de2:	2001      	movs	r0, #1
    }
   d7de4:	bd08      	pop	{r3, pc}
	...

000d7de8 <_ZN9TimeClass4zoneEf>:
}

/* set the time zone (+/-) offset from GMT */
void TimeClass::zone(float GMT_Offset)
{
	if(GMT_Offset < -12 || GMT_Offset > 14)
   d7de8:	eefa 7a08 	vmov.f32	s15, #168	; 0xc1400000 -12.0
   d7dec:	eeb4 0ae7 	vcmpe.f32	s0, s15
   d7df0:	eef1 fa10 	vmrs	APSR_nzcv, fpscr
   d7df4:	d40f      	bmi.n	d7e16 <_ZN9TimeClass4zoneEf+0x2e>
   d7df6:	eef2 7a0c 	vmov.f32	s15, #44	; 0x41600000  14.0
   d7dfa:	eeb4 0ae7 	vcmpe.f32	s0, s15
   d7dfe:	eef1 fa10 	vmrs	APSR_nzcv, fpscr
   d7e02:	dc08      	bgt.n	d7e16 <_ZN9TimeClass4zoneEf+0x2e>
	{
		return;
	}
	time_zone_cache = GMT_Offset * 3600;
   d7e04:	eddf 7a04 	vldr	s15, [pc, #16]	; d7e18 <_ZN9TimeClass4zoneEf+0x30>
   d7e08:	4b04      	ldr	r3, [pc, #16]	; (d7e1c <_ZN9TimeClass4zoneEf+0x34>)
   d7e0a:	ee20 0a27 	vmul.f32	s0, s0, s15
   d7e0e:	eebd 0ac0 	vcvt.s32.f32	s0, s0
   d7e12:	ed83 0a00 	vstr	s0, [r3]
   d7e16:	4770      	bx	lr
   d7e18:	45610000 	.word	0x45610000
   d7e1c:	2003e3d0 	.word	0x2003e3d0

000d7e20 <_ZN9TimeClass7timeStrEl>:
    system_notify_time_changed((uint32_t)time_changed_manually, nullptr, nullptr);
}

/* return string representation for the given time */
String TimeClass::timeStr(time_t t)
{
   d7e20:	b537      	push	{r0, r1, r2, r4, r5, lr}
	t += time_zone_cache;
    t += dst_current_cache;
   d7e22:	4b0e      	ldr	r3, [pc, #56]	; (d7e5c <_ZN9TimeClass7timeStrEl+0x3c>)
   d7e24:	681b      	ldr	r3, [r3, #0]
   d7e26:	4419      	add	r1, r3
   d7e28:	4b0d      	ldr	r3, [pc, #52]	; (d7e60 <_ZN9TimeClass7timeStrEl+0x40>)
   d7e2a:	681b      	ldr	r3, [r3, #0]
    system_notify_time_changed((uint32_t)time_changed_manually, nullptr, nullptr);
}

/* return string representation for the given time */
String TimeClass::timeStr(time_t t)
{
   d7e2c:	4604      	mov	r4, r0
	t += time_zone_cache;
    t += dst_current_cache;
   d7e2e:	a802      	add	r0, sp, #8
   d7e30:	4419      	add	r1, r3
   d7e32:	f840 1d04 	str.w	r1, [r0, #-4]!
	tm* calendar_time = localtime(&t);
   d7e36:	f001 fbdf 	bl	d95f8 <localtime>
        char* ascstr = asctime(calendar_time);
   d7e3a:	f001 fb93 	bl	d9564 <asctime>
   d7e3e:	4605      	mov	r5, r0
        int len = strlen(ascstr);
   d7e40:	f001 fd2e 	bl	d98a0 <strlen>
        ascstr[len-1] = 0; // remove final newline
   d7e44:	4428      	add	r0, r5
   d7e46:	2300      	movs	r3, #0
   d7e48:	f800 3c01 	strb.w	r3, [r0, #-1]
	return String(ascstr);
   d7e4c:	4629      	mov	r1, r5
   d7e4e:	4620      	mov	r0, r4
   d7e50:	f7ff fe99 	bl	d7b86 <_ZN6StringC1EPK19__FlashStringHelper>
}
   d7e54:	4620      	mov	r0, r4
   d7e56:	b003      	add	sp, #12
   d7e58:	bd30      	pop	{r4, r5, pc}
   d7e5a:	bf00      	nop
   d7e5c:	2003e3d0 	.word	0x2003e3d0
   d7e60:	2003e3cc 	.word	0x2003e3cc

000d7e64 <_ZN9TimeClass7isValidEv>:
    strftime(buf, 50, format_str, calendar_time);
    return String(buf);
}

bool TimeClass::isValid()
{
   d7e64:	b510      	push	{r4, lr}
    bool rtcstate = HAL_RTC_Time_Is_Valid(nullptr);
   d7e66:	2000      	movs	r0, #0
   d7e68:	f7ff facc 	bl	d7404 <HAL_RTC_Time_Is_Valid>
    if (rtcstate)
   d7e6c:	4604      	mov	r4, r0
   d7e6e:	b968      	cbnz	r0, d7e8c <_ZN9TimeClass7isValidEv+0x28>
    }

    static System_Mode_TypeDef mode(void) {
        return system_mode();
   d7e70:	f7ff fc28 	bl	d76c4 <system_mode>
        return rtcstate;
    if (System.mode() == AUTOMATIC && system_thread_get_state(nullptr) == spark::feature::DISABLED)
   d7e74:	2801      	cmp	r0, #1
   d7e76:	d10b      	bne.n	d7e90 <_ZN9TimeClass7isValidEv+0x2c>
   d7e78:	4620      	mov	r0, r4
   d7e7a:	f7ff fc3b 	bl	d76f4 <system_thread_get_state>
   d7e7e:	b938      	cbnz	r0, d7e90 <_ZN9TimeClass7isValidEv+0x2c>
    {
        waitUntil(Particle.syncTimeDone);
   d7e80:	f7ff ffa4 	bl	d7dcc <_ZN10CloudClass12syncTimeDoneEv.isra.1>


    static uint32_t freeMemory();

    template<typename Condition, typename While> static bool waitConditionWhile(Condition _condition, While _while) {
        while (_while() && !_condition()) {
   d7e84:	b930      	cbnz	r0, d7e94 <_ZN9TimeClass7isValidEv+0x30>
            spark_process();
   d7e86:	f7ff fca1 	bl	d77cc <spark_process>
   d7e8a:	e7f9      	b.n	d7e80 <_ZN9TimeClass7isValidEv+0x1c>

bool TimeClass::isValid()
{
    bool rtcstate = HAL_RTC_Time_Is_Valid(nullptr);
    if (rtcstate)
        return rtcstate;
   d7e8c:	2001      	movs	r0, #1
   d7e8e:	bd10      	pop	{r4, pc}
    if (System.mode() == AUTOMATIC && system_thread_get_state(nullptr) == spark::feature::DISABLED)
    {
        waitUntil(Particle.syncTimeDone);
        return HAL_RTC_Time_Is_Valid(nullptr);
    }
    return rtcstate;
   d7e90:	2000      	movs	r0, #0
   d7e92:	bd10      	pop	{r4, pc}
    bool rtcstate = HAL_RTC_Time_Is_Valid(nullptr);
    if (rtcstate)
        return rtcstate;
    if (System.mode() == AUTOMATIC && system_thread_get_state(nullptr) == spark::feature::DISABLED)
    {
        waitUntil(Particle.syncTimeDone);
   d7e94:	f7ff ff9a 	bl	d7dcc <_ZN10CloudClass12syncTimeDoneEv.isra.1>
        return HAL_RTC_Time_Is_Valid(nullptr);
   d7e98:	2000      	movs	r0, #0
   d7e9a:	f7ff fab3 	bl	d7404 <HAL_RTC_Time_Is_Valid>
   d7e9e:	3000      	adds	r0, #0
   d7ea0:	bf18      	it	ne
   d7ea2:	2001      	movne	r0, #1
    }
    return rtcstate;
}
   d7ea4:	bd10      	pop	{r4, pc}

000d7ea6 <_ZN9TimeClass3nowEv>:
	return calendar_time_cache.tm_year;
}

/* return the current time as seconds since Jan 1 1970 */
time_t TimeClass::now()
{
   d7ea6:	b508      	push	{r3, lr}
    (void)isValid();
   d7ea8:	f7ff ffdc 	bl	d7e64 <_ZN9TimeClass7isValidEv>
	return HAL_RTC_Get_UnixTime();
}
   d7eac:	e8bd 4008 	ldmia.w	sp!, {r3, lr}

/* return the current time as seconds since Jan 1 1970 */
time_t TimeClass::now()
{
    (void)isValid();
	return HAL_RTC_Get_UnixTime();
   d7eb0:	f7ff baa0 	b.w	d73f4 <HAL_RTC_Get_UnixTime>

000d7eb4 <_GLOBAL__sub_I_TIME_FORMAT_DEFAULT>:
            calendar_time_cache = Convert_UnixTime_To_CalendarTime(unix_time);
            unix_time_cache = unix_time;
    }
}

const char* TimeClass::format_spec = TIME_FORMAT_DEFAULT;
   d7eb4:	4b02      	ldr	r3, [pc, #8]	; (d7ec0 <_GLOBAL__sub_I_TIME_FORMAT_DEFAULT+0xc>)
   d7eb6:	681a      	ldr	r2, [r3, #0]
   d7eb8:	4b02      	ldr	r3, [pc, #8]	; (d7ec4 <_GLOBAL__sub_I_TIME_FORMAT_DEFAULT+0x10>)
   d7eba:	601a      	str	r2, [r3, #0]
   d7ebc:	4770      	bx	lr
   d7ebe:	bf00      	nop
   d7ec0:	2003dc20 	.word	0x2003dc20
   d7ec4:	2003e3c8 	.word	0x2003e3c8

000d7ec8 <_Z3mapiiiii>:
    HAL_ADC_Set_Sample_Time(ADC_SampleTime);
}

int map(int value, int fromStart, int fromEnd, int toStart, int toEnd)
{
    if (fromEnd == fromStart) {
   d7ec8:	428a      	cmp	r2, r1
{
    HAL_ADC_Set_Sample_Time(ADC_SampleTime);
}

int map(int value, int fromStart, int fromEnd, int toStart, int toEnd)
{
   d7eca:	b530      	push	{r4, r5, lr}
    if (fromEnd == fromStart) {
   d7ecc:	d007      	beq.n	d7ede <_Z3mapiiiii+0x16>
        return value;
    }
    return (value - fromStart) * (toEnd - toStart) / (fromEnd - fromStart) + toStart;
   d7ece:	9d03      	ldr	r5, [sp, #12]
   d7ed0:	1a44      	subs	r4, r0, r1
   d7ed2:	1aed      	subs	r5, r5, r3
   d7ed4:	436c      	muls	r4, r5
   d7ed6:	1a52      	subs	r2, r2, r1
   d7ed8:	fb94 f4f2 	sdiv	r4, r4, r2
   d7edc:	18e0      	adds	r0, r4, r3
}
   d7ede:	bd30      	pop	{r4, r5, pc}

000d7ee0 <delay>:
    return (value - fromStart) * (toEnd - toStart) / (fromEnd - fromStart) + toStart;
}

void delay(unsigned long ms)
{
    system_delay_ms(ms, false);
   d7ee0:	2100      	movs	r1, #0
   d7ee2:	f7ff bbff 	b.w	d76e4 <system_delay_ms>

000d7ee6 <_ZNSt14_Function_baseD1Ev>:
	}
      };

    _Function_base() : _M_manager(nullptr) { }

    ~_Function_base()
   d7ee6:	b510      	push	{r4, lr}
    {
      if (_M_manager)
   d7ee8:	6883      	ldr	r3, [r0, #8]
	}
      };

    _Function_base() : _M_manager(nullptr) { }

    ~_Function_base()
   d7eea:	4604      	mov	r4, r0
    {
      if (_M_manager)
   d7eec:	b113      	cbz	r3, d7ef4 <_ZNSt14_Function_baseD1Ev+0xe>
	_M_manager(_M_functor, _M_functor, __destroy_functor);
   d7eee:	2203      	movs	r2, #3
   d7ef0:	4601      	mov	r1, r0
   d7ef2:	4798      	blx	r3
    }
   d7ef4:	4620      	mov	r0, r4
   d7ef6:	bd10      	pop	{r4, pc}

000d7ef8 <_ZN8RGBClassD1Ev>:
#include "rgbled.h"

typedef void (raw_rgb_change_handler_t)(uint8_t, uint8_t, uint8_t);
typedef std::function<raw_rgb_change_handler_t> wiring_rgb_change_handler_t;

class RGBClass {
   d7ef8:	b510      	push	{r4, lr}
   d7efa:	4604      	mov	r4, r0
   *  @ingroup functors
   *
   *  Polymorphic function wrapper.
   */
  template<typename _Res, typename... _ArgTypes>
    class function<_Res(_ArgTypes...)>
   d7efc:	f7ff fff3 	bl	d7ee6 <_ZNSt14_Function_baseD1Ev>
   d7f00:	4620      	mov	r0, r4
   d7f02:	bd10      	pop	{r4, pc}

000d7f04 <_GLOBAL__sub_I_RGB>:
	{
	  _Base::_M_init_functor(__functor, std::__addressof(__f.get()));
	}
      };

    _Function_base() : _M_manager(nullptr) { }
   d7f04:	4803      	ldr	r0, [pc, #12]	; (d7f14 <_GLOBAL__sub_I_RGB+0x10>)
#include "spark_wiring_rgb.h"
#include "spark_wiring_interrupts.h"

#include "core_hal.h"

RGBClass RGB;
   d7f06:	4a04      	ldr	r2, [pc, #16]	; (d7f18 <_GLOBAL__sub_I_RGB+0x14>)
   d7f08:	4904      	ldr	r1, [pc, #16]	; (d7f1c <_GLOBAL__sub_I_RGB+0x18>)
   d7f0a:	2300      	movs	r3, #0
   d7f0c:	6083      	str	r3, [r0, #8]
   d7f0e:	f001 b807 	b.w	d8f20 <__aeabi_atexit>
   d7f12:	bf00      	nop
   d7f14:	2003e3d4 	.word	0x2003e3d4
   d7f18:	2003dcd8 	.word	0x2003dcd8
   d7f1c:	000d7ef9 	.word	0x000d7ef9

000d7f20 <serialEventRun>:

/**
 * Provides background processing of serial data.
 */
void serialEventRun()
{
   d7f20:	b508      	push	{r3, lr}
    if (serialEvent && Serial.available()>0)
   d7f22:	4b0c      	ldr	r3, [pc, #48]	; (d7f54 <serialEventRun+0x34>)
   d7f24:	b133      	cbz	r3, d7f34 <serialEventRun+0x14>
   d7f26:	f000 f96d 	bl	d8204 <_Z16_fetch_usbserialv>
   d7f2a:	6803      	ldr	r3, [r0, #0]
   d7f2c:	691b      	ldr	r3, [r3, #16]
   d7f2e:	4798      	blx	r3
   d7f30:	2800      	cmp	r0, #0
   d7f32:	dc09      	bgt.n	d7f48 <serialEventRun+0x28>
        serialEvent();

    if (serialEvent1 && Serial1.available()>0)
   d7f34:	4b08      	ldr	r3, [pc, #32]	; (d7f58 <serialEventRun+0x38>)
   d7f36:	b163      	cbz	r3, d7f52 <serialEventRun+0x32>
   d7f38:	f000 fa16 	bl	d8368 <_Z22__fetch_global_Serial1v>
   d7f3c:	6803      	ldr	r3, [r0, #0]
   d7f3e:	691b      	ldr	r3, [r3, #16]
   d7f40:	4798      	blx	r3
   d7f42:	2800      	cmp	r0, #0
   d7f44:	dc03      	bgt.n	d7f4e <serialEventRun+0x2e>
   d7f46:	bd08      	pop	{r3, pc}
 * Provides background processing of serial data.
 */
void serialEventRun()
{
    if (serialEvent && Serial.available()>0)
        serialEvent();
   d7f48:	f3af 8000 	nop.w
   d7f4c:	e7f2      	b.n	d7f34 <serialEventRun+0x14>

    if (serialEvent1 && Serial1.available()>0)
        serialEvent1();
   d7f4e:	f3af 8000 	nop.w
   d7f52:	bd08      	pop	{r3, pc}
	...

000d7f5c <_post_loop>:
#if Wiring_Serial5
void serialEvent5() __attribute__((weak));
#endif

void _post_loop()
{
   d7f5c:	b508      	push	{r3, lr}
	serialEventRun();
   d7f5e:	f7ff ffdf 	bl	d7f20 <serialEventRun>
		return !timeout_fn;
	}

	static inline system_tick_t current_time()
	{
		return HAL_Timer_Get_Milli_Seconds();
   d7f62:	f7ff fa3f 	bl	d73e4 <HAL_Timer_Get_Milli_Seconds>
	/**
	 * Lifesign that the application is still working normally.
	 */
	static void checkin()
	{
		last_checkin = current_time();
   d7f66:	4b01      	ldr	r3, [pc, #4]	; (d7f6c <_post_loop+0x10>)
   d7f68:	6018      	str	r0, [r3, #0]
   d7f6a:	bd08      	pop	{r3, pc}
   d7f6c:	2003e708 	.word	0x2003e708

000d7f70 <_Z33system_initialize_user_backup_ramv>:
 * the dynamically linked application module.
 */
void system_initialize_user_backup_ram()
{
    size_t len = &link_global_retained_end-&link_global_retained_start;
    memcpy(&link_global_retained_start, &link_global_retained_initial_values, len);
   d7f70:	4802      	ldr	r0, [pc, #8]	; (d7f7c <_Z33system_initialize_user_backup_ramv+0xc>)
   d7f72:	4a03      	ldr	r2, [pc, #12]	; (d7f80 <_Z33system_initialize_user_backup_ramv+0x10>)
   d7f74:	4903      	ldr	r1, [pc, #12]	; (d7f84 <_Z33system_initialize_user_backup_ramv+0x14>)
   d7f76:	1a12      	subs	r2, r2, r0
   d7f78:	f001 bc45 	b.w	d9806 <memcpy>
   d7f7c:	2003f400 	.word	0x2003f400
   d7f80:	2003f404 	.word	0x2003f404
   d7f84:	000dac00 	.word	0x000dac00

000d7f88 <_Z27ctrl_request_custom_handlerP12ctrl_request>:
bool __backup_ram_was_valid() { return false; }

#endif

// Default handler for CTRL_REQUEST_APP_CUSTOM requests
void __attribute((weak)) ctrl_request_custom_handler(ctrl_request* req) {
   d7f88:	b507      	push	{r0, r1, r2, lr}
    system_ctrl_set_result(req, SYSTEM_ERROR_NOT_SUPPORTED, nullptr, nullptr, nullptr);
   d7f8a:	2300      	movs	r3, #0
   d7f8c:	9300      	str	r3, [sp, #0]
   d7f8e:	461a      	mov	r2, r3
   d7f90:	f06f 0177 	mvn.w	r1, #119	; 0x77
   d7f94:	f7ff fbc0 	bl	d7718 <system_ctrl_set_result>
}
   d7f98:	b003      	add	sp, #12
   d7f9a:	f85d fb04 	ldr.w	pc, [sp], #4
	...

000d7fa0 <_ZL20ctrl_request_handlerP12ctrl_request>:
// Callback invoked to process a logging configuration request
void(*log_process_ctrl_request_callback)(ctrl_request* req) = nullptr;
#endif

// Application handler for control requests
static void ctrl_request_handler(ctrl_request* req) {
   d7fa0:	b507      	push	{r0, r1, r2, lr}
    switch (req->type) {
   d7fa2:	8843      	ldrh	r3, [r0, #2]
   d7fa4:	2b0a      	cmp	r3, #10
   d7fa6:	d008      	beq.n	d7fba <_ZL20ctrl_request_handlerP12ctrl_request+0x1a>
   d7fa8:	2b50      	cmp	r3, #80	; 0x50
   d7faa:	d109      	bne.n	d7fc0 <_ZL20ctrl_request_handlerP12ctrl_request+0x20>
#if Wiring_LogConfig
    case CTRL_REQUEST_LOG_CONFIG: {
        if (log_process_ctrl_request_callback) {
   d7fac:	4b09      	ldr	r3, [pc, #36]	; (d7fd4 <_ZL20ctrl_request_handlerP12ctrl_request+0x34>)
   d7fae:	681b      	ldr	r3, [r3, #0]
   d7fb0:	b13b      	cbz	r3, d7fc2 <_ZL20ctrl_request_handlerP12ctrl_request+0x22>
    }
    default:
        system_ctrl_set_result(req, SYSTEM_ERROR_NOT_SUPPORTED, nullptr, nullptr, nullptr);
        break;
    }
}
   d7fb2:	b003      	add	sp, #12
   d7fb4:	f85d eb04 	ldr.w	lr, [sp], #4
static void ctrl_request_handler(ctrl_request* req) {
    switch (req->type) {
#if Wiring_LogConfig
    case CTRL_REQUEST_LOG_CONFIG: {
        if (log_process_ctrl_request_callback) {
            log_process_ctrl_request_callback(req);
   d7fb8:	4718      	bx	r3
        }
        break;
    }
#endif
    case CTRL_REQUEST_APP_CUSTOM: {
        ctrl_request_custom_handler(req);
   d7fba:	f7ff ffe5 	bl	d7f88 <_Z27ctrl_request_custom_handlerP12ctrl_request>
        break;
   d7fbe:	e006      	b.n	d7fce <_ZL20ctrl_request_handlerP12ctrl_request+0x2e>
    }
    default:
        system_ctrl_set_result(req, SYSTEM_ERROR_NOT_SUPPORTED, nullptr, nullptr, nullptr);
   d7fc0:	2300      	movs	r3, #0
   d7fc2:	9300      	str	r3, [sp, #0]
   d7fc4:	461a      	mov	r2, r3
   d7fc6:	f06f 0177 	mvn.w	r1, #119	; 0x77
   d7fca:	f7ff fba5 	bl	d7718 <system_ctrl_set_result>
        break;
    }
}
   d7fce:	b003      	add	sp, #12
   d7fd0:	f85d fb04 	ldr.w	pc, [sp], #4
   d7fd4:	2003e3e4 	.word	0x2003e3e4

000d7fd8 <module_user_init_hook>:

void module_user_init_hook()
{
   d7fd8:	b538      	push	{r3, r4, r5, lr}
#if HAL_PLATFORM_BACKUP_RAM
    backup_ram_was_valid_ =  __backup_sram_signature==signature;
   d7fda:	4c10      	ldr	r4, [pc, #64]	; (d801c <module_user_init_hook+0x44>)
   d7fdc:	4d10      	ldr	r5, [pc, #64]	; (d8020 <module_user_init_hook+0x48>)
   d7fde:	6823      	ldr	r3, [r4, #0]
   d7fe0:	42ab      	cmp	r3, r5
   d7fe2:	4b10      	ldr	r3, [pc, #64]	; (d8024 <module_user_init_hook+0x4c>)
   d7fe4:	bf0c      	ite	eq
   d7fe6:	2201      	moveq	r2, #1
   d7fe8:	2200      	movne	r2, #0
   d7fea:	701a      	strb	r2, [r3, #0]
    if (!backup_ram_was_valid_) {
   d7fec:	d002      	beq.n	d7ff4 <module_user_init_hook+0x1c>
        system_initialize_user_backup_ram();
   d7fee:	f7ff ffbf 	bl	d7f70 <_Z33system_initialize_user_backup_ramv>
        __backup_sram_signature = signature;
   d7ff2:	6025      	str	r5, [r4, #0]
    }
#endif

#if HAL_PLATFORM_RNG
    // Initialize the default stdlib PRNG using hardware RNG as a seed
    const uint32_t seed = HAL_RNG_GetRandomNumber();
   d7ff4:	f7ff f9de 	bl	d73b4 <HAL_RNG_GetRandomNumber>
   d7ff8:	4604      	mov	r4, r0
    srand(seed);
   d7ffa:	f001 fc17 	bl	d982c <srand>

    // If the user defines random_seed_from_cloud, call it with a seed value
    // generated by a hardware RNG as well.
    if (random_seed_from_cloud) {
   d7ffe:	4b0a      	ldr	r3, [pc, #40]	; (d8028 <module_user_init_hook+0x50>)
   d8000:	b113      	cbz	r3, d8008 <module_user_init_hook+0x30>
        random_seed_from_cloud(seed);
   d8002:	4620      	mov	r0, r4
   d8004:	f3af 8000 	nop.w
    }
#endif
    // Register the random_seed_from_cloud handler
    spark_set_random_seed_from_cloud_handler(&random_seed_from_cloud, nullptr);
   d8008:	2100      	movs	r1, #0
   d800a:	4807      	ldr	r0, [pc, #28]	; (d8028 <module_user_init_hook+0x50>)
   d800c:	f7ff fbfe 	bl	d780c <spark_set_random_seed_from_cloud_handler>

    // Register application handler for the control requests
    system_ctrl_set_app_request_handler(ctrl_request_handler, nullptr);
   d8010:	2100      	movs	r1, #0
   d8012:	4806      	ldr	r0, [pc, #24]	; (d802c <module_user_init_hook+0x54>)
}
   d8014:	e8bd 4038 	ldmia.w	sp!, {r3, r4, r5, lr}
#endif
    // Register the random_seed_from_cloud handler
    spark_set_random_seed_from_cloud_handler(&random_seed_from_cloud, nullptr);

    // Register application handler for the control requests
    system_ctrl_set_app_request_handler(ctrl_request_handler, nullptr);
   d8018:	f7ff bb74 	b.w	d7704 <system_ctrl_set_app_request_handler>
   d801c:	2003f400 	.word	0x2003f400
   d8020:	9a271c1e 	.word	0x9a271c1e
   d8024:	2003e3e8 	.word	0x2003e3e8
   d8028:	00000000 	.word	0x00000000
   d802c:	000d7fa1 	.word	0x000d7fa1

000d8030 <_ZN9IPAddressD1Ev>:
    IPAddress(uint8_t first_octet, uint8_t second_octet, uint8_t third_octet, uint8_t fourth_octet);
    IPAddress(uint32_t address);
    IPAddress(const uint8_t* address);
    IPAddress(const HAL_IPAddress& address);

    virtual ~IPAddress() {}
   d8030:	4770      	bx	lr

000d8032 <_ZN9IPAddressD0Ev>:
   d8032:	b510      	push	{r4, lr}
   d8034:	2118      	movs	r1, #24
   d8036:	4604      	mov	r4, r0
   d8038:	f000 ff80 	bl	d8f3c <_ZdlPvj>
   d803c:	4620      	mov	r0, r4
   d803e:	bd10      	pop	{r4, pc}

000d8040 <_ZNK9IPAddress7printToER5Print>:
#endif // Wiring_IPv6
	return address.ipv4==that.address.ipv4;
}

size_t IPAddress::printTo(Print& p) const
{
   d8040:	b5f0      	push	{r4, r5, r6, r7, lr}
#if Wiring_IPv6
#if HAL_USE_INET_HAL_POSIX
	if (address.v==6) {
   d8042:	7d03      	ldrb	r3, [r0, #20]
   d8044:	2b06      	cmp	r3, #6
#endif // Wiring_IPv6
	return address.ipv4==that.address.ipv4;
}

size_t IPAddress::printTo(Print& p) const
{
   d8046:	b08d      	sub	sp, #52	; 0x34
   d8048:	460e      	mov	r6, r1
   d804a:	f100 0704 	add.w	r7, r0, #4
   d804e:	f04f 0400 	mov.w	r4, #0
#if Wiring_IPv6
#if HAL_USE_INET_HAL_POSIX
	if (address.v==6) {
   d8052:	d002      	beq.n	d805a <_ZNK9IPAddress7printToER5Print+0x1a>
   d8054:	f100 0508 	add.w	r5, r0, #8
   d8058:	e018      	b.n	d808c <_ZNK9IPAddress7printToER5Print+0x4c>
		char buf[INET6_ADDRSTRLEN+1];
		buf[0] = 0;
   d805a:	ad0c      	add	r5, sp, #48	; 0x30
		inet_inet_ntop(AF_INET6, address.ipv6, buf, sizeof(buf));
   d805c:	4639      	mov	r1, r7
{
#if Wiring_IPv6
#if HAL_USE_INET_HAL_POSIX
	if (address.v==6) {
		char buf[INET6_ADDRSTRLEN+1];
		buf[0] = 0;
   d805e:	f805 4d30 	strb.w	r4, [r5, #-48]!
		inet_inet_ntop(AF_INET6, address.ipv6, buf, sizeof(buf));
   d8062:	232f      	movs	r3, #47	; 0x2f
   d8064:	462a      	mov	r2, r5
   d8066:	200a      	movs	r0, #10
   d8068:	f7ff f9fc 	bl	d7464 <inet_inet_ntop>
    void clearWriteError() { setWriteError(0); }

    virtual size_t write(uint8_t) = 0;
    size_t write(const char *str) {
      if (str == NULL) return 0;
      return write((const uint8_t *)str, strlen(str));
   d806c:	4628      	mov	r0, r5
   d806e:	f001 fc17 	bl	d98a0 <strlen>
   d8072:	6833      	ldr	r3, [r6, #0]
   d8074:	4602      	mov	r2, r0
   d8076:	68db      	ldr	r3, [r3, #12]
   d8078:	4629      	mov	r1, r5
   d807a:	4630      	mov	r0, r6
   d807c:	4798      	blx	r3
   d807e:	e00f      	b.n	d80a0 <_ZNK9IPAddress7printToER5Print+0x60>
#endif // HAL_USE_INET_HAL_POSIX
#endif // Wiring_IPv6
    size_t n = 0;
    for (int i = 0; i < 4; i++)
    {
        if (n)
   d8080:	b124      	cbz	r4, d808c <_ZNK9IPAddress7printToER5Print+0x4c>
            n += p.print('.');
   d8082:	212e      	movs	r1, #46	; 0x2e
   d8084:	4630      	mov	r0, r6
   d8086:	f7ff fe25 	bl	d7cd4 <_ZN5Print5printEc>
   d808a:	4404      	add	r4, r0
            t = print('-');
            val = -n;
        } else {
            val = n;
        }
        return printNumber(val, base) + t;
   d808c:	f815 1d01 	ldrb.w	r1, [r5, #-1]!
   d8090:	220a      	movs	r2, #10
   d8092:	4630      	mov	r0, r6
   d8094:	f7ff fe37 	bl	d7d06 <_ZN5Print11printNumberEmh>
#else
#pragma message "HAL_USE_INET_HAL_POSIX is required for IPv6 support in IPAddress::printTo()"
#endif // HAL_USE_INET_HAL_POSIX
#endif // Wiring_IPv6
    size_t n = 0;
    for (int i = 0; i < 4; i++)
   d8098:	42bd      	cmp	r5, r7
    {
        if (n)
            n += p.print('.');
        n += p.print((*this)[i], DEC);
   d809a:	4404      	add	r4, r0
#else
#pragma message "HAL_USE_INET_HAL_POSIX is required for IPv6 support in IPAddress::printTo()"
#endif // HAL_USE_INET_HAL_POSIX
#endif // Wiring_IPv6
    size_t n = 0;
    for (int i = 0; i < 4; i++)
   d809c:	d1f0      	bne.n	d8080 <_ZNK9IPAddress7printToER5Print+0x40>
    {
        if (n)
            n += p.print('.');
        n += p.print((*this)[i], DEC);
   d809e:	4620      	mov	r0, r4
    }
    return n;
}
   d80a0:	b00d      	add	sp, #52	; 0x34
   d80a2:	bdf0      	pop	{r4, r5, r6, r7, pc}

000d80a4 <_ZN9IPAddressC1Ev>:

#if HAL_USE_INET_HAL_POSIX
#include <arpa/inet.h>
#endif // HAL_USE_INET_HAL_POSIX

IPAddress::IPAddress()
   d80a4:	b510      	push	{r4, lr}
   d80a6:	4b05      	ldr	r3, [pc, #20]	; (d80bc <_ZN9IPAddressC1Ev+0x18>)
   d80a8:	4604      	mov	r4, r0
        return address;
    }

    virtual size_t printTo(Print& p) const;

    void clear() { memset(&address, 0, sizeof (address)); }
   d80aa:	2211      	movs	r2, #17
   d80ac:	f840 3b04 	str.w	r3, [r0], #4
   d80b0:	2100      	movs	r1, #0
   d80b2:	f001 fbb3 	bl	d981c <memset>
{
    clear();
}
   d80b6:	4620      	mov	r0, r4
   d80b8:	bd10      	pop	{r4, pc}
   d80ba:	bf00      	nop
   d80bc:	000da75c 	.word	0x000da75c

000d80c0 <_ZN9IPAddressC1ERK16_HAL_IPAddress_t>:

IPAddress::IPAddress(const HAL_IPAddress& address)
   d80c0:	4603      	mov	r3, r0
   d80c2:	4a07      	ldr	r2, [pc, #28]	; (d80e0 <_ZN9IPAddressC1ERK16_HAL_IPAddress_t+0x20>)
   d80c4:	b510      	push	{r4, lr}
   d80c6:	f843 2b04 	str.w	r2, [r3], #4
{
    memcpy(&this->address, &address, sizeof(address));
   d80ca:	f101 0210 	add.w	r2, r1, #16
   d80ce:	f851 4b04 	ldr.w	r4, [r1], #4
   d80d2:	f843 4b04 	str.w	r4, [r3], #4
   d80d6:	4291      	cmp	r1, r2
   d80d8:	d1f9      	bne.n	d80ce <_ZN9IPAddressC1ERK16_HAL_IPAddress_t+0xe>
   d80da:	780a      	ldrb	r2, [r1, #0]
   d80dc:	701a      	strb	r2, [r3, #0]
}
   d80de:	bd10      	pop	{r4, pc}
   d80e0:	000da75c 	.word	0x000da75c

000d80e4 <_ZNK9IPAddresscvbEv>:
{
    *this = address;
}

IPAddress::operator bool() const
{
   d80e4:	7d03      	ldrb	r3, [r0, #20]
#if Wiring_IPv6
    if (version() == 4) {
   d80e6:	2b04      	cmp	r3, #4
   d80e8:	d101      	bne.n	d80ee <_ZNK9IPAddresscvbEv+0xa>
        return address.ipv4 != 0;
   d80ea:	6840      	ldr	r0, [r0, #4]
   d80ec:	e008      	b.n	d8100 <_ZNK9IPAddresscvbEv+0x1c>
    } else if (version() == 6) {
   d80ee:	2b06      	cmp	r3, #6
   d80f0:	d10a      	bne.n	d8108 <_ZNK9IPAddresscvbEv+0x24>
        return address.ipv6[0] != 0 || address.ipv6[1] != 0 || address.ipv6[2] != 0 || address.ipv6[3] != 0;
   d80f2:	6843      	ldr	r3, [r0, #4]
   d80f4:	b953      	cbnz	r3, d810c <_ZNK9IPAddresscvbEv+0x28>
   d80f6:	6883      	ldr	r3, [r0, #8]
   d80f8:	b943      	cbnz	r3, d810c <_ZNK9IPAddresscvbEv+0x28>
   d80fa:	68c3      	ldr	r3, [r0, #12]
   d80fc:	b933      	cbnz	r3, d810c <_ZNK9IPAddresscvbEv+0x28>
   d80fe:	6900      	ldr	r0, [r0, #16]
   d8100:	3000      	adds	r0, #0
   d8102:	bf18      	it	ne
   d8104:	2001      	movne	r0, #1
   d8106:	4770      	bx	lr
    } else {
        return false;
   d8108:	2000      	movs	r0, #0
   d810a:	4770      	bx	lr
{
#if Wiring_IPv6
    if (version() == 4) {
        return address.ipv4 != 0;
    } else if (version() == 6) {
        return address.ipv6[0] != 0 || address.ipv6[1] != 0 || address.ipv6[2] != 0 || address.ipv6[3] != 0;
   d810c:	2001      	movs	r0, #1
        return false;
    }
#else
    return address.ipv4!=0;
#endif
}
   d810e:	4770      	bx	lr

000d8110 <_ZN9IPAddress8set_ipv4Ehhhh>:

void IPAddress::set_ipv4(uint8_t b0, uint8_t b1, uint8_t b2, uint8_t b3)
{
   d8110:	b510      	push	{r4, lr}
    address.ipv4 = b0<<24 | b1 << 16 | b2 << 8 | b3;
   d8112:	f89d 4008 	ldrb.w	r4, [sp, #8]
   d8116:	ea44 2303 	orr.w	r3, r4, r3, lsl #8
   d811a:	ea43 4202 	orr.w	r2, r3, r2, lsl #16
   d811e:	ea42 6101 	orr.w	r1, r2, r1, lsl #24
        return &address;
    }

    inline void setVersion(uint8_t version) {
#if HAL_IPv6
        address.v = version;
   d8122:	2304      	movs	r3, #4
   d8124:	6041      	str	r1, [r0, #4]
   d8126:	7503      	strb	r3, [r0, #20]
   d8128:	bd10      	pop	{r4, pc}

000d812a <_ZN9IPAddressaSEPKh>:
    setVersion(4);
}

IPAddress& IPAddress::operator=(const uint8_t* address)
{
   d812a:	b537      	push	{r0, r1, r2, r4, r5, lr}
    set_ipv4(address[0], address[1], address[2], address[3]);
   d812c:	780d      	ldrb	r5, [r1, #0]
   d812e:	788b      	ldrb	r3, [r1, #2]
   d8130:	784a      	ldrb	r2, [r1, #1]
   d8132:	78c9      	ldrb	r1, [r1, #3]
   d8134:	9100      	str	r1, [sp, #0]
   d8136:	4629      	mov	r1, r5
   d8138:	f7ff ffea 	bl	d8110 <_ZN9IPAddress8set_ipv4Ehhhh>
    return *this;
}
   d813c:	b003      	add	sp, #12
   d813e:	bd30      	pop	{r4, r5, pc}

000d8140 <_ZN9USBSerial14blockOnOverrunEb>:
  HAL_USB_USART_Flush_Data(_serial);
}

void USBSerial::blockOnOverrun(bool block)
{
  _blocking = block;
   d8140:	7441      	strb	r1, [r0, #17]
   d8142:	4770      	bx	lr

000d8144 <_ZN9USBSerialD1Ev>:
#include "usb_hal.h"
#include "system_task.h"
#include "spark_wiring_startup.h"
#include "concurrent_hal.h"

class USBSerial : public Stream
   d8144:	4770      	bx	lr

000d8146 <_ZN9USBSerial4readEv>:
}


// Read data from buffer
int USBSerial::read()
{
   d8146:	b508      	push	{r3, lr}
	return std::max(-1, (int)HAL_USB_USART_Receive_Data(_serial, false));
   d8148:	2100      	movs	r1, #0
   d814a:	7c00      	ldrb	r0, [r0, #16]
   d814c:	f7ff fa92 	bl	d7674 <HAL_USB_USART_Receive_Data>
}
   d8150:	ea30 0020 	bics.w	r0, r0, r0, asr #32
   d8154:	bf28      	it	cs
   d8156:	f04f 30ff 	movcs.w	r0, #4294967295
   d815a:	bd08      	pop	{r3, pc}

000d815c <_ZN9USBSerial4peekEv>:
{
  _blocking = block;
}

int USBSerial::peek()
{
   d815c:	b508      	push	{r3, lr}
	return std::max(-1, (int)HAL_USB_USART_Receive_Data(_serial, true));
   d815e:	2101      	movs	r1, #1
   d8160:	7c00      	ldrb	r0, [r0, #16]
   d8162:	f7ff fa87 	bl	d7674 <HAL_USB_USART_Receive_Data>
}
   d8166:	ea30 0020 	bics.w	r0, r0, r0, asr #32
   d816a:	bf28      	it	cs
   d816c:	f04f 30ff 	movcs.w	r0, #4294967295
   d8170:	bd08      	pop	{r3, pc}

000d8172 <_ZN9USBSerial17availableForWriteEv>:
{
	return std::max(-1, (int)HAL_USB_USART_Receive_Data(_serial, false));
}

int USBSerial::availableForWrite()
{
   d8172:	b508      	push	{r3, lr}
  return std::max(0, (int)HAL_USB_USART_Available_Data_For_Write(_serial));
   d8174:	7c00      	ldrb	r0, [r0, #16]
   d8176:	f7ff fa75 	bl	d7664 <HAL_USB_USART_Available_Data_For_Write>
}
   d817a:	ea20 70e0 	bic.w	r0, r0, r0, asr #31
   d817e:	bd08      	pop	{r3, pc}

000d8180 <_ZN9USBSerial9availableEv>:

int USBSerial::available()
{
   d8180:	b508      	push	{r3, lr}
	return std::max(0, (int)HAL_USB_USART_Available_Data(_serial));
   d8182:	7c00      	ldrb	r0, [r0, #16]
   d8184:	f7ff fa66 	bl	d7654 <HAL_USB_USART_Available_Data>
}
   d8188:	ea20 70e0 	bic.w	r0, r0, r0, asr #31
   d818c:	bd08      	pop	{r3, pc}

000d818e <_ZN9USBSerial5flushEv>:
  return 0;
}

void USBSerial::flush()
{
  HAL_USB_USART_Flush_Data(_serial);
   d818e:	7c00      	ldrb	r0, [r0, #16]
   d8190:	f7ff ba80 	b.w	d7694 <HAL_USB_USART_Flush_Data>

000d8194 <_ZN9USBSerialD0Ev>:
   d8194:	b510      	push	{r4, lr}
   d8196:	2114      	movs	r1, #20
   d8198:	4604      	mov	r4, r0
   d819a:	f000 fecf 	bl	d8f3c <_ZdlPvj>
   d819e:	4620      	mov	r0, r4
   d81a0:	bd10      	pop	{r4, pc}

000d81a2 <_ZN9USBSerial5writeEh>:
{
	return std::max(0, (int)HAL_USB_USART_Available_Data(_serial));
}

size_t USBSerial::write(uint8_t byte)
{
   d81a2:	b538      	push	{r3, r4, r5, lr}
   d81a4:	4604      	mov	r4, r0
  if (HAL_USB_USART_Available_Data_For_Write(_serial) > 0 || _blocking) {
   d81a6:	7c00      	ldrb	r0, [r0, #16]
{
	return std::max(0, (int)HAL_USB_USART_Available_Data(_serial));
}

size_t USBSerial::write(uint8_t byte)
{
   d81a8:	460d      	mov	r5, r1
  if (HAL_USB_USART_Available_Data_For_Write(_serial) > 0 || _blocking) {
   d81aa:	f7ff fa5b 	bl	d7664 <HAL_USB_USART_Available_Data_For_Write>
   d81ae:	2800      	cmp	r0, #0
   d81b0:	dc01      	bgt.n	d81b6 <_ZN9USBSerial5writeEh+0x14>
   d81b2:	7c60      	ldrb	r0, [r4, #17]
   d81b4:	b128      	cbz	r0, d81c2 <_ZN9USBSerial5writeEh+0x20>
    return std::max(0, (int)HAL_USB_USART_Send_Data(_serial, byte));
   d81b6:	4629      	mov	r1, r5
   d81b8:	7c20      	ldrb	r0, [r4, #16]
   d81ba:	f7ff fa63 	bl	d7684 <HAL_USB_USART_Send_Data>
   d81be:	ea20 70e0 	bic.w	r0, r0, r0, asr #31
  }
  return 0;
}
   d81c2:	bd38      	pop	{r3, r4, r5, pc}

000d81c4 <_ZN9USBSerialC1E20HAL_USB_USART_SerialRK20HAL_USB_USART_Config>:

  HAL_USB_USART_Config conf = acquireSerialBuffer();
  HAL_USB_USART_Init(_serial, &conf);
}

USBSerial::USBSerial(HAL_USB_USART_Serial serial, const HAL_USB_USART_Config& conf)
   d81c4:	b510      	push	{r4, lr}
   d81c6:	4604      	mov	r4, r0
  protected:
    void setWriteError(int err = 1) { write_error = err; }
    size_t printf_impl(bool newline, const char* format, ...);

  public:
    Print() : write_error(0) {}
   d81c8:	2300      	movs	r3, #0
   d81ca:	6063      	str	r3, [r4, #4]
    virtual int available() = 0;
    virtual int read() = 0;
    virtual int peek() = 0;
    virtual void flush() = 0;

    Stream() {_timeout=1000;}
   d81cc:	f44f 737a 	mov.w	r3, #1000	; 0x3e8
   d81d0:	60a3      	str	r3, [r4, #8]
   d81d2:	4b05      	ldr	r3, [pc, #20]	; (d81e8 <_ZN9USBSerialC1E20HAL_USB_USART_SerialRK20HAL_USB_USART_Config+0x24>)
   d81d4:	6023      	str	r3, [r4, #0]
{
  _serial = serial;
  _blocking = true;
   d81d6:	2301      	movs	r3, #1

  HAL_USB_USART_Config conf = acquireSerialBuffer();
  HAL_USB_USART_Init(_serial, &conf);
}

USBSerial::USBSerial(HAL_USB_USART_Serial serial, const HAL_USB_USART_Config& conf)
   d81d8:	4608      	mov	r0, r1
{
  _serial = serial;
   d81da:	7421      	strb	r1, [r4, #16]
  _blocking = true;
   d81dc:	7463      	strb	r3, [r4, #17]

  HAL_USB_USART_Init(_serial, &conf);
   d81de:	4611      	mov	r1, r2
   d81e0:	f7ff fa28 	bl	d7634 <HAL_USB_USART_Init>
}
   d81e4:	4620      	mov	r0, r4
   d81e6:	bd10      	pop	{r4, pc}
   d81e8:	000da770 	.word	0x000da770

000d81ec <_ZN9USBSerial5beginEl>:
// Public methods
//

void USBSerial::begin(long speed)
{
    HAL_USB_USART_Begin(_serial, speed, NULL);
   d81ec:	2200      	movs	r2, #0
   d81ee:	7c00      	ldrb	r0, [r0, #16]
   d81f0:	f7ff ba28 	b.w	d7644 <HAL_USB_USART_Begin>

000d81f4 <_Z19acquireSerialBufferv>:

// Preinstantiate Objects //////////////////////////////////////////////////////
#ifdef SPARK_USB_SERIAL

HAL_USB_USART_Config __attribute__((weak)) acquireSerialBuffer()
{
   d81f4:	b510      	push	{r4, lr}
  HAL_USB_USART_Config conf = {0};
   d81f6:	2214      	movs	r2, #20

// Preinstantiate Objects //////////////////////////////////////////////////////
#ifdef SPARK_USB_SERIAL

HAL_USB_USART_Config __attribute__((weak)) acquireSerialBuffer()
{
   d81f8:	4604      	mov	r4, r0
  HAL_USB_USART_Config conf = {0};
   d81fa:	2100      	movs	r1, #0
   d81fc:	f001 fb0e 	bl	d981c <memset>
  conf.rx_buffer_size = USB_RX_BUFFER_SIZE;
  conf.tx_buffer_size = USB_TX_BUFFER_SIZE;
#endif

  return conf;
}
   d8200:	4620      	mov	r0, r4
   d8202:	bd10      	pop	{r4, pc}

000d8204 <_Z16_fetch_usbserialv>:

USBSerial& _fetch_usbserial()
{
   d8204:	b530      	push	{r4, r5, lr}
  HAL_USB_USART_Config conf = acquireSerialBuffer();
	static USBSerial _usbserial(HAL_USB_USART_SERIAL, conf);
   d8206:	4d0e      	ldr	r5, [pc, #56]	; (d8240 <_Z16_fetch_usbserialv+0x3c>)

  return conf;
}

USBSerial& _fetch_usbserial()
{
   d8208:	b087      	sub	sp, #28
  HAL_USB_USART_Config conf = acquireSerialBuffer();
   d820a:	a801      	add	r0, sp, #4
   d820c:	f7ff fff2 	bl	d81f4 <_Z19acquireSerialBufferv>
	static USBSerial _usbserial(HAL_USB_USART_SERIAL, conf);
   d8210:	6829      	ldr	r1, [r5, #0]
   d8212:	f011 0401 	ands.w	r4, r1, #1
   d8216:	d110      	bne.n	d823a <_Z16_fetch_usbserialv+0x36>
   d8218:	4628      	mov	r0, r5
   d821a:	f7fb ff4d 	bl	d40b8 <__cxa_guard_acquire>
   d821e:	b160      	cbz	r0, d823a <_Z16_fetch_usbserialv+0x36>
   d8220:	aa01      	add	r2, sp, #4
   d8222:	4621      	mov	r1, r4
   d8224:	4807      	ldr	r0, [pc, #28]	; (d8244 <_Z16_fetch_usbserialv+0x40>)
   d8226:	f7ff ffcd 	bl	d81c4 <_ZN9USBSerialC1E20HAL_USB_USART_SerialRK20HAL_USB_USART_Config>
   d822a:	4628      	mov	r0, r5
   d822c:	f7fb ff49 	bl	d40c2 <__cxa_guard_release>
   d8230:	4a05      	ldr	r2, [pc, #20]	; (d8248 <_Z16_fetch_usbserialv+0x44>)
   d8232:	4906      	ldr	r1, [pc, #24]	; (d824c <_Z16_fetch_usbserialv+0x48>)
   d8234:	4803      	ldr	r0, [pc, #12]	; (d8244 <_Z16_fetch_usbserialv+0x40>)
   d8236:	f000 fe73 	bl	d8f20 <__aeabi_atexit>
	return _usbserial;
}
   d823a:	4802      	ldr	r0, [pc, #8]	; (d8244 <_Z16_fetch_usbserialv+0x40>)
   d823c:	b007      	add	sp, #28
   d823e:	bd30      	pop	{r4, r5, pc}
   d8240:	2003e3ec 	.word	0x2003e3ec
   d8244:	2003e3f0 	.word	0x2003e3f0
   d8248:	2003dcd8 	.word	0x2003dcd8
   d824c:	000d8145 	.word	0x000d8145

000d8250 <_Z26call_raw_interrupt_handlerPv>:
}

void call_raw_interrupt_handler(void* data)
{
    raw_interrupt_handler_t handler = raw_interrupt_handler_t(data);
    handler();
   d8250:	4700      	bx	r0
	...

000d8254 <_Z15attachInterrupttPFvvE13InterruptModeah>:
    }
    return handler!=NULL;
}

bool attachInterrupt(uint16_t pin, raw_interrupt_handler_t handler, InterruptMode mode, int8_t priority, uint8_t subpriority)
{
   d8254:	b5f0      	push	{r4, r5, r6, r7, lr}
   d8256:	b085      	sub	sp, #20
   d8258:	461c      	mov	r4, r3
   d825a:	460e      	mov	r6, r1
   d825c:	4617      	mov	r7, r2
   d825e:	4605      	mov	r5, r0
    HAL_Interrupts_Detach(pin);
   d8260:	f7ff f840 	bl	d72e4 <HAL_Interrupts_Detach>
    HAL_InterruptExtraConfiguration extra = {0};
   d8264:	2000      	movs	r0, #0
 *******************************************************************************/

HAL_InterruptExtraConfiguration* configure_interrupt(HAL_InterruptExtraConfiguration& extra, int8_t priority, uint8_t subpriority)
{
  extra.version = HAL_INTERRUPT_EXTRA_CONFIGURATION_VERSION_1;
  if (priority >= 0) {
   d8266:	4284      	cmp	r4, r0
 * Return         : true if function handler was allocated, false otherwise.
 *******************************************************************************/

HAL_InterruptExtraConfiguration* configure_interrupt(HAL_InterruptExtraConfiguration& extra, int8_t priority, uint8_t subpriority)
{
  extra.version = HAL_INTERRUPT_EXTRA_CONFIGURATION_VERSION_1;
   d8268:	f04f 0304 	mov.w	r3, #4
}

bool attachInterrupt(uint16_t pin, raw_interrupt_handler_t handler, InterruptMode mode, int8_t priority, uint8_t subpriority)
{
    HAL_Interrupts_Detach(pin);
    HAL_InterruptExtraConfiguration extra = {0};
   d826c:	9003      	str	r0, [sp, #12]
 * Return         : true if function handler was allocated, false otherwise.
 *******************************************************************************/

HAL_InterruptExtraConfiguration* configure_interrupt(HAL_InterruptExtraConfiguration& extra, int8_t priority, uint8_t subpriority)
{
  extra.version = HAL_INTERRUPT_EXTRA_CONFIGURATION_VERSION_1;
   d826e:	f88d 300c 	strb.w	r3, [sp, #12]
  if (priority >= 0) {
    extra.IRQChannelPreemptionPriority = (uint8_t)priority;
    extra.IRQChannelSubPriority = subpriority;
   d8272:	bfa5      	ittet	ge
   d8274:	f89d 3028 	ldrbge.w	r3, [sp, #40]	; 0x28
   d8278:	f88d 300e 	strbge.w	r3, [sp, #14]
    return &extra;
  }
  return nullptr;
   d827c:	4603      	movlt	r3, r0
{
  extra.version = HAL_INTERRUPT_EXTRA_CONFIGURATION_VERSION_1;
  if (priority >= 0) {
    extra.IRQChannelPreemptionPriority = (uint8_t)priority;
    extra.IRQChannelSubPriority = subpriority;
    return &extra;
   d827e:	ab03      	addge	r3, sp, #12

bool attachInterrupt(uint16_t pin, raw_interrupt_handler_t handler, InterruptMode mode, int8_t priority, uint8_t subpriority)
{
    HAL_Interrupts_Detach(pin);
    HAL_InterruptExtraConfiguration extra = {0};
    if (SYSTEM_ERROR_NONE != HAL_Interrupts_Attach(pin, call_raw_interrupt_handler, (void*)handler, mode, configure_interrupt(extra, priority, subpriority))) {
   d8280:	9300      	str	r3, [sp, #0]
   d8282:	4632      	mov	r2, r6
   d8284:	463b      	mov	r3, r7
   d8286:	4906      	ldr	r1, [pc, #24]	; (d82a0 <_Z15attachInterrupttPFvvE13InterruptModeah+0x4c>)

HAL_InterruptExtraConfiguration* configure_interrupt(HAL_InterruptExtraConfiguration& extra, int8_t priority, uint8_t subpriority)
{
  extra.version = HAL_INTERRUPT_EXTRA_CONFIGURATION_VERSION_1;
  if (priority >= 0) {
    extra.IRQChannelPreemptionPriority = (uint8_t)priority;
   d8288:	bfa8      	it	ge
   d828a:	f88d 400d 	strbge.w	r4, [sp, #13]

bool attachInterrupt(uint16_t pin, raw_interrupt_handler_t handler, InterruptMode mode, int8_t priority, uint8_t subpriority)
{
    HAL_Interrupts_Detach(pin);
    HAL_InterruptExtraConfiguration extra = {0};
    if (SYSTEM_ERROR_NONE != HAL_Interrupts_Attach(pin, call_raw_interrupt_handler, (void*)handler, mode, configure_interrupt(extra, priority, subpriority))) {
   d828e:	4628      	mov	r0, r5
   d8290:	f7ff f820 	bl	d72d4 <HAL_Interrupts_Attach>
        return false;
    }
    return true;
}
   d8294:	fab0 f080 	clz	r0, r0
   d8298:	0940      	lsrs	r0, r0, #5
   d829a:	b005      	add	sp, #20
   d829c:	bdf0      	pop	{r4, r5, r6, r7, pc}
   d829e:	bf00      	nop
   d82a0:	000d8251 	.word	0x000d8251

000d82a4 <_ZN11USARTSerialD1Ev>:
private:
  HAL_USART_Serial _serial;
  bool _blocking;
public:
  USARTSerial(HAL_USART_Serial serial, Ring_Buffer *rx_buffer, Ring_Buffer *tx_buffer);
  virtual ~USARTSerial() {};
   d82a4:	4770      	bx	lr

000d82a6 <_ZN11USARTSerial14blockOnOverrunEb>:
    HAL_USART_Half_Duplex(_serial, Enable);
}

void USARTSerial::blockOnOverrun(bool block)
{
  _blocking = block;
   d82a6:	7441      	strb	r1, [r0, #17]
   d82a8:	4770      	bx	lr

000d82aa <_ZN11USARTSerial17availableForWriteEv>:
}


int USARTSerial::availableForWrite(void)
{
   d82aa:	b508      	push	{r3, lr}
  return std::max(0, (int)HAL_USART_Available_Data_For_Write(_serial));
   d82ac:	7c00      	ldrb	r0, [r0, #16]
   d82ae:	f7ff f929 	bl	d7504 <HAL_USART_Available_Data_For_Write>
}
   d82b2:	ea20 70e0 	bic.w	r0, r0, r0, asr #31
   d82b6:	bd08      	pop	{r3, pc}

000d82b8 <_ZN11USARTSerial9availableEv>:

int USARTSerial::available(void)
{
   d82b8:	b508      	push	{r3, lr}
  return std::max(0, (int)HAL_USART_Available_Data(_serial));
   d82ba:	7c00      	ldrb	r0, [r0, #16]
   d82bc:	f7ff f8fa 	bl	d74b4 <HAL_USART_Available_Data>
}
   d82c0:	ea20 70e0 	bic.w	r0, r0, r0, asr #31
   d82c4:	bd08      	pop	{r3, pc}

000d82c6 <_ZN11USARTSerial4peekEv>:

int USARTSerial::peek(void)
{
   d82c6:	b508      	push	{r3, lr}
  return std::max(-1, (int)HAL_USART_Peek_Data(_serial));
   d82c8:	7c00      	ldrb	r0, [r0, #16]
   d82ca:	f7ff f903 	bl	d74d4 <HAL_USART_Peek_Data>
}
   d82ce:	ea30 0020 	bics.w	r0, r0, r0, asr #32
   d82d2:	bf28      	it	cs
   d82d4:	f04f 30ff 	movcs.w	r0, #4294967295
   d82d8:	bd08      	pop	{r3, pc}

000d82da <_ZN11USARTSerial4readEv>:

int USARTSerial::read(void)
{
   d82da:	b508      	push	{r3, lr}
  return std::max(-1, (int)HAL_USART_Read_Data(_serial));
   d82dc:	7c00      	ldrb	r0, [r0, #16]
   d82de:	f7ff f8f1 	bl	d74c4 <HAL_USART_Read_Data>
}
   d82e2:	ea30 0020 	bics.w	r0, r0, r0, asr #32
   d82e6:	bf28      	it	cs
   d82e8:	f04f 30ff 	movcs.w	r0, #4294967295
   d82ec:	bd08      	pop	{r3, pc}

000d82ee <_ZN11USARTSerial5flushEv>:

void USARTSerial::flush()
{
  HAL_USART_Flush_Data(_serial);
   d82ee:	7c00      	ldrb	r0, [r0, #16]
   d82f0:	f7ff b8f8 	b.w	d74e4 <HAL_USART_Flush_Data>

000d82f4 <_ZN11USARTSerialD0Ev>:
   d82f4:	b510      	push	{r4, lr}
   d82f6:	2114      	movs	r1, #20
   d82f8:	4604      	mov	r4, r0
   d82fa:	f000 fe1f 	bl	d8f3c <_ZdlPvj>
   d82fe:	4620      	mov	r0, r4
   d8300:	bd10      	pop	{r4, pc}

000d8302 <_ZN11USARTSerial5writeEh>:
}

size_t USARTSerial::write(uint8_t c)
{
   d8302:	b570      	push	{r4, r5, r6, lr}
  // attempt a write if blocking, or for non-blocking if there is room.
  if (_blocking || HAL_USART_Available_Data_For_Write(_serial) > 0) {
   d8304:	7c45      	ldrb	r5, [r0, #17]
{
  HAL_USART_Flush_Data(_serial);
}

size_t USARTSerial::write(uint8_t c)
{
   d8306:	4604      	mov	r4, r0
   d8308:	460e      	mov	r6, r1
  // attempt a write if blocking, or for non-blocking if there is room.
  if (_blocking || HAL_USART_Available_Data_For_Write(_serial) > 0) {
   d830a:	b925      	cbnz	r5, d8316 <_ZN11USARTSerial5writeEh+0x14>
   d830c:	7c00      	ldrb	r0, [r0, #16]
   d830e:	f7ff f8f9 	bl	d7504 <HAL_USART_Available_Data_For_Write>
   d8312:	2800      	cmp	r0, #0
   d8314:	dd05      	ble.n	d8322 <_ZN11USARTSerial5writeEh+0x20>
    // the HAL always blocks.
	  return HAL_USART_Write_Data(_serial, c);
   d8316:	4631      	mov	r1, r6
   d8318:	7c20      	ldrb	r0, [r4, #16]
  }
  return 0;
}
   d831a:	e8bd 4070 	ldmia.w	sp!, {r4, r5, r6, lr}
size_t USARTSerial::write(uint8_t c)
{
  // attempt a write if blocking, or for non-blocking if there is room.
  if (_blocking || HAL_USART_Available_Data_For_Write(_serial) > 0) {
    // the HAL always blocks.
	  return HAL_USART_Write_Data(_serial, c);
   d831e:	f7ff b8c1 	b.w	d74a4 <HAL_USART_Write_Data>
  }
  return 0;
}
   d8322:	4628      	mov	r0, r5
   d8324:	bd70      	pop	{r4, r5, r6, pc}
	...

000d8328 <_ZN11USARTSerialC1E16HAL_USART_SerialP11Ring_BufferS2_>:
#include "spark_wiring_constants.h"
#include "module_info.h"

// Constructors ////////////////////////////////////////////////////////////////

USARTSerial::USARTSerial(HAL_USART_Serial serial, Ring_Buffer *rx_buffer, Ring_Buffer *tx_buffer)
   d8328:	b510      	push	{r4, lr}
   d832a:	4604      	mov	r4, r0
   d832c:	4608      	mov	r0, r1
   d832e:	4611      	mov	r1, r2
   d8330:	2200      	movs	r2, #0
   d8332:	6062      	str	r2, [r4, #4]
   d8334:	f44f 727a 	mov.w	r2, #1000	; 0x3e8
   d8338:	60a2      	str	r2, [r4, #8]
   d833a:	4a05      	ldr	r2, [pc, #20]	; (d8350 <_ZN11USARTSerialC1E16HAL_USART_SerialP11Ring_BufferS2_+0x28>)
   d833c:	6022      	str	r2, [r4, #0]
{
  _serial = serial;
  // Default is blocking mode
  _blocking = true;
   d833e:	2201      	movs	r2, #1

// Constructors ////////////////////////////////////////////////////////////////

USARTSerial::USARTSerial(HAL_USART_Serial serial, Ring_Buffer *rx_buffer, Ring_Buffer *tx_buffer)
{
  _serial = serial;
   d8340:	7420      	strb	r0, [r4, #16]
  // Default is blocking mode
  _blocking = true;
   d8342:	7462      	strb	r2, [r4, #17]
  HAL_USART_Init(serial, rx_buffer, tx_buffer);
   d8344:	461a      	mov	r2, r3
   d8346:	f7ff f8a5 	bl	d7494 <HAL_USART_Init>
}
   d834a:	4620      	mov	r0, r4
   d834c:	bd10      	pop	{r4, pc}
   d834e:	bf00      	nop
   d8350:	000da7a0 	.word	0x000da7a0

000d8354 <_ZN11USARTSerial5beginEmm>:
  begin(baud, SERIAL_8N1);
}

void USARTSerial::begin(unsigned long baud, uint32_t config)
{
  HAL_USART_BeginConfig(_serial, baud, config, 0);
   d8354:	2300      	movs	r3, #0
   d8356:	7c00      	ldrb	r0, [r0, #16]
   d8358:	f7ff b8dc 	b.w	d7514 <HAL_USART_BeginConfig>

000d835c <_ZN11USARTSerial5beginEm>:
}
// Public Methods //////////////////////////////////////////////////////////////

void USARTSerial::begin(unsigned long baud)
{
  begin(baud, SERIAL_8N1);
   d835c:	2200      	movs	r2, #0
   d835e:	f7ff bff9 	b.w	d8354 <_ZN11USARTSerial5beginEmm>

000d8362 <_ZN11USARTSerial9isEnabledEv>:
USARTSerial::operator bool() {
  return true;
}

bool USARTSerial::isEnabled() {
  return HAL_USART_Is_Enabled(_serial);
   d8362:	7c00      	ldrb	r0, [r0, #16]
   d8364:	f7ff b8c6 	b.w	d74f4 <HAL_USART_Is_Enabled>

000d8368 <_Z22__fetch_global_Serial1v>:
static Ring_Buffer* serial1_rx_buffer = NULL;
static Ring_Buffer* serial1_tx_buffer = NULL;
#endif

USARTSerial& __fetch_global_Serial1()
{
   d8368:	b538      	push	{r3, r4, r5, lr}
#if ((MODULE_FUNCTION == MOD_FUNC_USER_PART) || (MODULE_FUNCTION == MOD_FUNC_MONO_FIRMWARE))
	static USARTSerial serial1(HAL_USART_SERIAL1, &serial1_rx_buffer, &serial1_tx_buffer);
   d836a:	4d0c      	ldr	r5, [pc, #48]	; (d839c <_Z22__fetch_global_Serial1v+0x34>)
   d836c:	6829      	ldr	r1, [r5, #0]
   d836e:	f011 0401 	ands.w	r4, r1, #1
   d8372:	d111      	bne.n	d8398 <_Z22__fetch_global_Serial1v+0x30>
   d8374:	4628      	mov	r0, r5
   d8376:	f7fb fe9f 	bl	d40b8 <__cxa_guard_acquire>
   d837a:	b168      	cbz	r0, d8398 <_Z22__fetch_global_Serial1v+0x30>
   d837c:	4a08      	ldr	r2, [pc, #32]	; (d83a0 <_Z22__fetch_global_Serial1v+0x38>)
   d837e:	4b09      	ldr	r3, [pc, #36]	; (d83a4 <_Z22__fetch_global_Serial1v+0x3c>)
   d8380:	4809      	ldr	r0, [pc, #36]	; (d83a8 <_Z22__fetch_global_Serial1v+0x40>)
   d8382:	4621      	mov	r1, r4
   d8384:	f7ff ffd0 	bl	d8328 <_ZN11USARTSerialC1E16HAL_USART_SerialP11Ring_BufferS2_>
   d8388:	4628      	mov	r0, r5
   d838a:	f7fb fe9a 	bl	d40c2 <__cxa_guard_release>
   d838e:	4a07      	ldr	r2, [pc, #28]	; (d83ac <_Z22__fetch_global_Serial1v+0x44>)
   d8390:	4907      	ldr	r1, [pc, #28]	; (d83b0 <_Z22__fetch_global_Serial1v+0x48>)
   d8392:	4805      	ldr	r0, [pc, #20]	; (d83a8 <_Z22__fetch_global_Serial1v+0x40>)
   d8394:	f000 fdc4 	bl	d8f20 <__aeabi_atexit>
    serial1_tx_buffer = new Ring_Buffer();
  }
  static USARTSerial serial1(HAL_USART_SERIAL1, serial1_rx_buffer, serial1_tx_buffer);
#endif
	return serial1;
}
   d8398:	4803      	ldr	r0, [pc, #12]	; (d83a8 <_Z22__fetch_global_Serial1v+0x40>)
   d839a:	bd38      	pop	{r3, r4, r5, pc}
   d839c:	2003e49c 	.word	0x2003e49c
   d83a0:	2003e4a0 	.word	0x2003e4a0
   d83a4:	2003e418 	.word	0x2003e418
   d83a8:	2003e404 	.word	0x2003e404
   d83ac:	2003dcd8 	.word	0x2003dcd8
   d83b0:	000d82a5 	.word	0x000d82a5

000d83b4 <_ZN7TwoWireD1Ev>:
private:
  HAL_I2C_Interface _i2c;

public:
  TwoWire(HAL_I2C_Interface i2c, const HAL_I2C_Config& config);
  virtual ~TwoWire() {};
   d83b4:	4770      	bx	lr

000d83b6 <_ZN7TwoWire5writeEPKhj>:

// must be called in:
// slave tx event callback
// or after beginTransmission(address)
size_t TwoWire::write(const uint8_t *data, size_t quantity)
{
   d83b6:	b5f8      	push	{r3, r4, r5, r6, r7, lr}
   d83b8:	4606      	mov	r6, r0
   d83ba:	4615      	mov	r5, r2
   d83bc:	460c      	mov	r4, r1
   d83be:	188f      	adds	r7, r1, r2
  // in master/slave transmitter mode
  for(size_t i = 0; i < quantity; ++i)
   d83c0:	42bc      	cmp	r4, r7
   d83c2:	d006      	beq.n	d83d2 <_ZN7TwoWire5writeEPKhj+0x1c>
  {
    write(data[i]);
   d83c4:	6833      	ldr	r3, [r6, #0]
   d83c6:	f814 1b01 	ldrb.w	r1, [r4], #1
   d83ca:	689b      	ldr	r3, [r3, #8]
   d83cc:	4630      	mov	r0, r6
   d83ce:	4798      	blx	r3
// slave tx event callback
// or after beginTransmission(address)
size_t TwoWire::write(const uint8_t *data, size_t quantity)
{
  // in master/slave transmitter mode
  for(size_t i = 0; i < quantity; ++i)
   d83d0:	e7f6      	b.n	d83c0 <_ZN7TwoWire5writeEPKhj+0xa>
  {
    write(data[i]);
  }

  return quantity;
}
   d83d2:	4628      	mov	r0, r5
   d83d4:	bdf8      	pop	{r3, r4, r5, r6, r7, pc}

000d83d6 <_ZN7TwoWire5writeEh>:
// must be called in:
// slave tx event callback
// or after beginTransmission(address)
size_t TwoWire::write(uint8_t data)
{
  return HAL_I2C_Write_Data(_i2c, data, NULL);
   d83d6:	2200      	movs	r2, #0
   d83d8:	7c00      	ldrb	r0, [r0, #16]
   d83da:	f7ff b8bb 	b.w	d7554 <HAL_I2C_Write_Data>

000d83de <_ZN7TwoWire9availableEv>:
// must be called in:
// slave rx event callback
// or after requestFrom(address, numBytes)
int TwoWire::available(void)
{
  return HAL_I2C_Available_Data(_i2c, NULL);
   d83de:	2100      	movs	r1, #0
   d83e0:	7c00      	ldrb	r0, [r0, #16]
   d83e2:	f7ff b8bf 	b.w	d7564 <HAL_I2C_Available_Data>

000d83e6 <_ZN7TwoWire4readEv>:
// must be called in:
// slave rx event callback
// or after requestFrom(address, numBytes)
int TwoWire::read(void)
{
  return HAL_I2C_Read_Data(_i2c, NULL);
   d83e6:	2100      	movs	r1, #0
   d83e8:	7c00      	ldrb	r0, [r0, #16]
   d83ea:	f7ff b8c3 	b.w	d7574 <HAL_I2C_Read_Data>

000d83ee <_ZN7TwoWire4peekEv>:
// must be called in:
// slave rx event callback
// or after requestFrom(address, numBytes)
int TwoWire::peek(void)
{
  return HAL_I2C_Peek_Data(_i2c, NULL);
   d83ee:	2100      	movs	r1, #0
   d83f0:	7c00      	ldrb	r0, [r0, #16]
   d83f2:	f7ff b8c7 	b.w	d7584 <HAL_I2C_Peek_Data>

000d83f6 <_ZN7TwoWire5flushEv>:
}

void TwoWire::flush(void)
{
  HAL_I2C_Flush_Data(_i2c, NULL);
   d83f6:	2100      	movs	r1, #0
   d83f8:	7c00      	ldrb	r0, [r0, #16]
   d83fa:	f7ff b8cb 	b.w	d7594 <HAL_I2C_Flush_Data>

000d83fe <_ZN7TwoWireD0Ev>:
   d83fe:	b510      	push	{r4, lr}
   d8400:	2114      	movs	r1, #20
   d8402:	4604      	mov	r4, r0
   d8404:	f000 fd9a 	bl	d8f3c <_ZdlPvj>
   d8408:	4620      	mov	r0, r4
   d840a:	bd10      	pop	{r4, pc}

000d840c <_ZN7TwoWireC1E17HAL_I2C_InterfaceRK14HAL_I2C_Config>:
#include "i2c_hal.h"
#include "spark_wiring_thread.h"

// Constructors ////////////////////////////////////////////////////////////////

TwoWire::TwoWire(HAL_I2C_Interface i2c, const HAL_I2C_Config& conf)
   d840c:	b510      	push	{r4, lr}
   d840e:	4604      	mov	r4, r0
   d8410:	2300      	movs	r3, #0
   d8412:	6063      	str	r3, [r4, #4]
   d8414:	f44f 737a 	mov.w	r3, #1000	; 0x3e8
   d8418:	60a3      	str	r3, [r4, #8]
   d841a:	4b04      	ldr	r3, [pc, #16]	; (d842c <_ZN7TwoWireC1E17HAL_I2C_InterfaceRK14HAL_I2C_Config+0x20>)
{
  _i2c = i2c;
   d841c:	7421      	strb	r1, [r4, #16]
#include "i2c_hal.h"
#include "spark_wiring_thread.h"

// Constructors ////////////////////////////////////////////////////////////////

TwoWire::TwoWire(HAL_I2C_Interface i2c, const HAL_I2C_Config& conf)
   d841e:	4608      	mov	r0, r1
   d8420:	6023      	str	r3, [r4, #0]
{
  _i2c = i2c;
  HAL_I2C_Init(_i2c, &conf);
   d8422:	4611      	mov	r1, r2
   d8424:	f7ff f8c6 	bl	d75b4 <HAL_I2C_Init>
}
   d8428:	4620      	mov	r0, r4
   d842a:	bd10      	pop	{r4, pc}
   d842c:	000da7d0 	.word	0x000da7d0

000d8430 <_ZN7TwoWire5beginEv>:
  HAL_I2C_Stretch_Clock(_i2c, stretch, NULL);
}

void TwoWire::begin(void)
{
	HAL_I2C_Begin(_i2c, I2C_MODE_MASTER, 0x00, NULL);
   d8430:	2300      	movs	r3, #0
   d8432:	461a      	mov	r2, r3
   d8434:	4619      	mov	r1, r3
   d8436:	7c00      	ldrb	r0, [r0, #16]
   d8438:	f7ff b874 	b.w	d7524 <HAL_I2C_Begin>

000d843c <_ZN7TwoWire11requestFromERK16WireTransmission>:
size_t TwoWire::requestFrom(uint8_t address, size_t quantity)
{
  return requestFrom(address, quantity, (uint8_t)true);
}

size_t TwoWire::requestFrom(const WireTransmission& transfer) {
   d843c:	b570      	push	{r4, r5, r6, lr}
   d843e:	460c      	mov	r4, r1
   d8440:	b086      	sub	sp, #24
      .address = address_,
      .reserved = {0},
      .quantity = (uint32_t)size_,
      .timeout_ms = timeout_,
      .flags = (uint32_t)(stop_ ? HAL_I2C_TRANSMISSION_FLAG_STOP : 0)
    };
   d8442:	2514      	movs	r5, #20
   d8444:	4606      	mov	r6, r0
   d8446:	462a      	mov	r2, r5
   d8448:	2100      	movs	r1, #0
   d844a:	a801      	add	r0, sp, #4
   d844c:	f001 f9e6 	bl	d981c <memset>
   d8450:	7823      	ldrb	r3, [r4, #0]
   d8452:	f88d 3008 	strb.w	r3, [sp, #8]
   d8456:	6863      	ldr	r3, [r4, #4]
   d8458:	9303      	str	r3, [sp, #12]
   d845a:	68e3      	ldr	r3, [r4, #12]
   d845c:	9304      	str	r3, [sp, #16]
  auto conf = transfer.halConfig();
  return HAL_I2C_Request_Data_Ex(_i2c, &conf, nullptr);
   d845e:	2200      	movs	r2, #0
   d8460:	7a23      	ldrb	r3, [r4, #8]
   d8462:	7c30      	ldrb	r0, [r6, #16]
   d8464:	f8ad 5004 	strh.w	r5, [sp, #4]
   d8468:	a901      	add	r1, sp, #4
   d846a:	9305      	str	r3, [sp, #20]
   d846c:	f7ff f8aa 	bl	d75c4 <HAL_I2C_Request_Data_Ex>
}
   d8470:	b006      	add	sp, #24
   d8472:	bd70      	pop	{r4, r5, r6, pc}

000d8474 <_ZN7TwoWire11requestFromEhjh>:
{
	HAL_I2C_End(_i2c, NULL);
}

size_t TwoWire::requestFrom(uint8_t address, size_t quantity, uint8_t sendStop)
{
   d8474:	b51f      	push	{r0, r1, r2, r3, r4, lr}
  WireTransmission& timeout(std::chrono::milliseconds ms) {
    return timeout((system_tick_t)ms.count());
  }

  WireTransmission& stop(bool stop) {
    stop_ = stop;
   d8476:	3300      	adds	r3, #0
public:
  WireTransmission(uint8_t address)
      : address_{address},
        size_{0},
        stop_{true},
        timeout_{HAL_I2C_DEFAULT_TIMEOUT_MS} {
   d8478:	f88d 1000 	strb.w	r1, [sp]
   d847c:	f04f 0164 	mov.w	r1, #100	; 0x64
   d8480:	9103      	str	r1, [sp, #12]
  WireTransmission& timeout(std::chrono::milliseconds ms) {
    return timeout((system_tick_t)ms.count());
  }

  WireTransmission& stop(bool stop) {
    stop_ = stop;
   d8482:	bf18      	it	ne
   d8484:	2301      	movne	r3, #1
  return requestFrom(WireTransmission(address).quantity(quantity).stop(sendStop));
   d8486:	4669      	mov	r1, sp
  }

  WireTransmission() = delete;

  WireTransmission& quantity(size_t size) {
    size_ = size;
   d8488:	9201      	str	r2, [sp, #4]
  WireTransmission& timeout(std::chrono::milliseconds ms) {
    return timeout((system_tick_t)ms.count());
  }

  WireTransmission& stop(bool stop) {
    stop_ = stop;
   d848a:	f88d 3008 	strb.w	r3, [sp, #8]
   d848e:	f7ff ffd5 	bl	d843c <_ZN7TwoWire11requestFromERK16WireTransmission>
}
   d8492:	b005      	add	sp, #20
   d8494:	f85d fb04 	ldr.w	pc, [sp], #4

000d8498 <_ZN7TwoWire11requestFromEhj>:

size_t TwoWire::requestFrom(uint8_t address, size_t quantity)
{
  return requestFrom(address, quantity, (uint8_t)true);
   d8498:	2301      	movs	r3, #1
   d849a:	f7ff bfeb 	b.w	d8474 <_ZN7TwoWire11requestFromEhjh>

000d849e <_ZN7TwoWire17beginTransmissionEh>:
  return HAL_I2C_Request_Data_Ex(_i2c, &conf, nullptr);
}

void TwoWire::beginTransmission(uint8_t address)
{
	HAL_I2C_Begin_Transmission(_i2c, address, NULL);
   d849e:	2200      	movs	r2, #0
   d84a0:	7c00      	ldrb	r0, [r0, #16]
   d84a2:	f7ff b847 	b.w	d7534 <HAL_I2C_Begin_Transmission>

000d84a6 <_ZN7TwoWire15endTransmissionEh>:
//	no call to endTransmission(true) is made. Some I2C
//	devices will behave oddly if they do not see a STOP.
//
uint8_t TwoWire::endTransmission(uint8_t sendStop)
{
	return HAL_I2C_End_Transmission(_i2c, sendStop, NULL);
   d84a6:	2200      	movs	r2, #0
   d84a8:	7c00      	ldrb	r0, [r0, #16]
   d84aa:	f7ff b84b 	b.w	d7544 <HAL_I2C_End_Transmission>

000d84ae <_ZN7TwoWire15endTransmissionEv>:
//	This provides backwards compatibility with the original
//	definition, and expected behaviour, of endTransmission
//
uint8_t TwoWire::endTransmission(void)
{
  return endTransmission(true);
   d84ae:	2101      	movs	r1, #1
   d84b0:	f7ff bff9 	b.w	d84a6 <_ZN7TwoWire15endTransmissionEh>

000d84b4 <_ZN7TwoWire9isEnabledEv>:
  HAL_I2C_Set_Callback_On_Request(_i2c, function, NULL);
}

bool TwoWire::isEnabled()
{
  return HAL_I2C_Is_Enabled(_i2c, NULL);
   d84b4:	2100      	movs	r1, #0
   d84b6:	7c00      	ldrb	r0, [r0, #16]
   d84b8:	f7ff b874 	b.w	d75a4 <HAL_I2C_Is_Enabled>

000d84bc <_ZN5spark9MeshClass9listeningEv>:
    uint16_t getListenTimeout(void) {
        return network_get_listen_timeout(*this, 0, NULL);
    }

    bool listening(void) {
        return network_listening(*this, 0, NULL);
   d84bc:	2200      	movs	r2, #0
   d84be:	4611      	mov	r1, r2
   d84c0:	6840      	ldr	r0, [r0, #4]
   d84c2:	f7ff b96b 	b.w	d779c <network_listening>

000d84c6 <_ZN5spark9MeshClass16getListenTimeoutEv>:
    void setListenTimeout(uint16_t timeout) {
        network_set_listen_timeout(*this, timeout, NULL);
    }

    uint16_t getListenTimeout(void) {
        return network_get_listen_timeout(*this, 0, NULL);
   d84c6:	2200      	movs	r2, #0
   d84c8:	4611      	mov	r1, r2
   d84ca:	6840      	ldr	r0, [r0, #4]
   d84cc:	f7ff b976 	b.w	d77bc <network_get_listen_timeout>

000d84d0 <_ZN5spark9MeshClass16setListenTimeoutEt>:
    void listen(bool begin=true) {
        network_listen(*this, begin ? 0 : 1, NULL);
    }

    void setListenTimeout(uint16_t timeout) {
        network_set_listen_timeout(*this, timeout, NULL);
   d84d0:	2200      	movs	r2, #0
   d84d2:	6840      	ldr	r0, [r0, #4]
   d84d4:	f7ff b96a 	b.w	d77ac <network_set_listen_timeout>

000d84d8 <_ZN5spark9MeshClass6listenEb>:
    void disconnect() {
        network_disconnect(*this, NETWORK_DISCONNECT_REASON_USER, NULL);
    }

    void listen(bool begin=true) {
        network_listen(*this, begin ? 0 : 1, NULL);
   d84d8:	2200      	movs	r2, #0
   d84da:	f081 0101 	eor.w	r1, r1, #1
   d84de:	6840      	ldr	r0, [r0, #4]
   d84e0:	f7ff b954 	b.w	d778c <network_listen>

000d84e4 <_ZN5spark9MeshClass3offEv>:
    void on() {
        network_on(*this, 0, 0, NULL);
    }

    void off() {
        network_off(*this, 1, 0, NULL);
   d84e4:	2300      	movs	r3, #0
   d84e6:	461a      	mov	r2, r3
   d84e8:	2101      	movs	r1, #1
   d84ea:	6840      	ldr	r0, [r0, #4]
   d84ec:	f7ff b946 	b.w	d777c <network_off>

000d84f0 <_ZN5spark9MeshClass2onEv>:
    MeshClass() :
            NetworkClass(NETWORK_INTERFACE_MESH) {
    }

    void on() {
        network_on(*this, 0, 0, NULL);
   d84f0:	2300      	movs	r3, #0
   d84f2:	461a      	mov	r2, r3
   d84f4:	4619      	mov	r1, r3
   d84f6:	6840      	ldr	r0, [r0, #4]
   d84f8:	f7ff b938 	b.w	d776c <network_on>

000d84fc <_ZN5spark9MeshClass5readyEv>:
    bool listening(void) {
        return network_listening(*this, 0, NULL);
    }

    bool ready() {
        return network_ready(*this, 0,  NULL);
   d84fc:	2200      	movs	r2, #0
   d84fe:	4611      	mov	r1, r2
   d8500:	6840      	ldr	r0, [r0, #4]
   d8502:	f7ff b92b 	b.w	d775c <network_ready>

000d8506 <_ZN5spark9MeshClass10connectingEv>:
    void connect(unsigned flags=0) {
        network_connect(*this, flags, 0, NULL);
    }

    bool connecting(void) {
        return network_connecting(*this, 0, NULL);
   d8506:	2200      	movs	r2, #0
   d8508:	4611      	mov	r1, r2
   d850a:	6840      	ldr	r0, [r0, #4]
   d850c:	f7ff b916 	b.w	d773c <network_connecting>

000d8510 <_ZN5spark9MeshClass10disconnectEv>:
    }

    void disconnect() {
        network_disconnect(*this, NETWORK_DISCONNECT_REASON_USER, NULL);
   d8510:	2200      	movs	r2, #0
   d8512:	2102      	movs	r1, #2
   d8514:	6840      	ldr	r0, [r0, #4]
   d8516:	f7ff b919 	b.w	d774c <network_disconnect>

000d851a <_ZN5spark9MeshClass7connectEj>:
    void off() {
        network_off(*this, 1, 0, NULL);
    }

    void connect(unsigned flags=0) {
        network_connect(*this, flags, 0, NULL);
   d851a:	2300      	movs	r3, #0
   d851c:	461a      	mov	r2, r3
   d851e:	6840      	ldr	r0, [r0, #4]
   d8520:	f7ff b904 	b.w	d772c <network_connect>

000d8524 <_ZNKSt14default_deleteIN6Thread4DataEEclEPS1_.isra.6>:
	       enable_if<is_convertible<_Up*, _Tp*>::value>::type>
        default_delete(const default_delete<_Up>&) noexcept { }

      /// Calls @c delete @p __ptr
      void
      operator()(_Tp* __ptr) const
   d8524:	b538      	push	{r3, r4, r5, lr}
      {
	static_assert(!is_void<_Tp>::value,
		      "can't delete pointer to incomplete type");
	static_assert(sizeof(_Tp)>0,
		      "can't delete pointer to incomplete type");
	delete __ptr;
   d8526:	4605      	mov	r5, r0
   d8528:	b188      	cbz	r0, d854e <_ZNKSt14default_deleteIN6Thread4DataEEclEPS1_.isra.6+0x2a>

      /// Destructor, invokes the deleter if the stored pointer is not null.
      ~unique_ptr() noexcept
      {
	auto& __ptr = std::get<0>(_M_t);
	if (__ptr != nullptr)
   d852a:	6804      	ldr	r4, [r0, #0]
   d852c:	b14c      	cbz	r4, d8542 <_ZNKSt14default_deleteIN6Thread4DataEEclEPS1_.isra.6+0x1e>

    ~_Function_base()
    {
      if (_M_manager)
   d852e:	68a3      	ldr	r3, [r4, #8]
   d8530:	b11b      	cbz	r3, d853a <_ZNKSt14default_deleteIN6Thread4DataEEclEPS1_.isra.6+0x16>
	_M_manager(_M_functor, _M_functor, __destroy_functor);
   d8532:	2203      	movs	r2, #3
   d8534:	4621      	mov	r1, r4
   d8536:	4620      	mov	r0, r4
   d8538:	4798      	blx	r3
      {
	static_assert(!is_void<_Tp>::value,
		      "can't delete pointer to incomplete type");
	static_assert(sizeof(_Tp)>0,
		      "can't delete pointer to incomplete type");
	delete __ptr;
   d853a:	2110      	movs	r1, #16
   d853c:	4620      	mov	r0, r4
   d853e:	f000 fcfd 	bl	d8f3c <_ZdlPvj>
   d8542:	4628      	mov	r0, r5
   d8544:	2114      	movs	r1, #20
      }
   d8546:	e8bd 4038 	ldmia.w	sp!, {r3, r4, r5, lr}
      {
	static_assert(!is_void<_Tp>::value,
		      "can't delete pointer to incomplete type");
	static_assert(sizeof(_Tp)>0,
		      "can't delete pointer to incomplete type");
	delete __ptr;
   d854a:	f000 bcf7 	b.w	d8f3c <_ZdlPvj>
   d854e:	bd38      	pop	{r3, r4, r5, pc}

000d8550 <_ZNKSt14default_deleteI3UDPEclEPS0_.isra.8.constprop.13>:
   d8550:	b110      	cbz	r0, d8558 <_ZNKSt14default_deleteI3UDPEclEPS0_.isra.8.constprop.13+0x8>
   d8552:	6803      	ldr	r3, [r0, #0]
   d8554:	685b      	ldr	r3, [r3, #4]
   d8556:	4718      	bx	r3
   d8558:	4770      	bx	lr

000d855a <_ZN6ThreadD1Ev>:
    Thread(Thread&& thread)
        : d_(std::move(thread.d_))
    {
    }

    ~Thread()
   d855a:	b510      	push	{r4, lr}
      }

      /// Return the stored pointer.
      pointer
      get() const noexcept
      { return std::get<0>(_M_t); }
   d855c:	6803      	ldr	r3, [r0, #0]
   d855e:	4604      	mov	r4, r0
        dispose();
    }

    void dispose()
    {
        if (!isValid())
   d8560:	b1bb      	cbz	r3, d8592 <_ZN6ThreadD1Ev+0x38>
        return isCurrent();
    }

    bool isCurrent() const
    {
        return isValid() && os_thread_is_current(d_->handle);
   d8562:	6858      	ldr	r0, [r3, #4]
   d8564:	f7fe ff56 	bl	d7414 <os_thread_is_current>
   d8568:	b978      	cbnz	r0, d858a <_ZN6ThreadD1Ev+0x30>
   d856a:	6823      	ldr	r3, [r4, #0]

        // We shouldn't dispose of current thread
        if (isCurrent())
            return;

        if (!d_->exited) {
   d856c:	7c5a      	ldrb	r2, [r3, #17]
   d856e:	b912      	cbnz	r2, d8576 <_ZN6ThreadD1Ev+0x1c>
        d_.reset();
    }

    bool join()
    {
        return isValid() && os_thread_join(d_->handle)==0;
   d8570:	6858      	ldr	r0, [r3, #4]
   d8572:	f7fe ff57 	bl	d7424 <os_thread_join>

        if (!d_->exited) {
            join();
        }

        os_thread_cleanup(d_->handle);
   d8576:	6823      	ldr	r3, [r4, #0]
   d8578:	6858      	ldr	r0, [r3, #4]
   d857a:	f7fe ff5b 	bl	d7434 <os_thread_cleanup>
#endif
    {
      // concept requirements
      __glibcxx_function_requires(_SGIAssignableConcept<_Tp>)

      _Tp __tmp = _GLIBCXX_MOVE(__a);
   d857e:	6820      	ldr	r0, [r4, #0]
      __a = _GLIBCXX_MOVE(__b);
   d8580:	2300      	movs	r3, #0
   d8582:	6023      	str	r3, [r4, #0]
      void
      reset(pointer __p = pointer()) noexcept
      {
	using std::swap;
	swap(std::get<0>(_M_t), __p);
	if (__p != pointer())
   d8584:	b128      	cbz	r0, d8592 <_ZN6ThreadD1Ev+0x38>
	  get_deleter()(__p);
   d8586:	f7ff ffcd 	bl	d8524 <_ZNKSt14default_deleteIN6Thread4DataEEclEPS1_.isra.6>

      /// Destructor, invokes the deleter if the stored pointer is not null.
      ~unique_ptr() noexcept
      {
	auto& __ptr = std::get<0>(_M_t);
	if (__ptr != nullptr)
   d858a:	6820      	ldr	r0, [r4, #0]
   d858c:	b108      	cbz	r0, d8592 <_ZN6ThreadD1Ev+0x38>
	  get_deleter()(__ptr);
   d858e:	f7ff ffc9 	bl	d8524 <_ZNKSt14default_deleteIN6Thread4DataEEclEPS1_.isra.6>
    }

    ~Thread()
    {
        dispose();
    }
   d8592:	4620      	mov	r0, r4
   d8594:	bd10      	pop	{r4, pc}

000d8596 <_ZN5spark11MeshPublishD1Ev>:
    virtual float getQualityValue() const {
        return 0.0f;
    }
};

class MeshPublish {
   d8596:	b538      	push	{r3, r4, r5, lr}
   d8598:	4604      	mov	r4, r0

      /// Destructor, invokes the deleter if the stored pointer is not null.
      ~unique_ptr()
      {
	auto& __ptr = std::get<0>(_M_t);
	if (__ptr != nullptr)
   d859a:	f8d0 01c4 	ldr.w	r0, [r0, #452]	; 0x1c4
   d859e:	b108      	cbz	r0, d85a4 <_ZN5spark11MeshPublishD1Ev+0xe>
      void
      operator()(_Tp* __ptr) const
      {
	static_assert(sizeof(_Tp)>0,
		      "can't delete pointer to incomplete type");
	delete [] __ptr;
   d85a0:	f7fb fd7d 	bl	d409e <_ZdaPv>
        dispose();
    }

    void dispose()
    {
        if (handle_) {
   d85a4:	f8d4 01c0 	ldr.w	r0, [r4, #448]	; 0x1c0
   d85a8:	b108      	cbz	r0, d85ae <_ZN5spark11MeshPublishD1Ev+0x18>
            os_mutex_recursive_destroy(handle_);
   d85aa:	f7fe ff53 	bl	d7454 <os_mutex_recursive_destroy>

      /// Destructor, invokes the deleter if the stored pointer is not null.
      ~unique_ptr() noexcept
      {
	auto& __ptr = std::get<0>(_M_t);
	if (__ptr != nullptr)
   d85ae:	f8d4 51bc 	ldr.w	r5, [r4, #444]	; 0x1bc
   d85b2:	b135      	cbz	r5, d85c2 <_ZN5spark11MeshPublishD1Ev+0x2c>
      {
	static_assert(!is_void<_Tp>::value,
		      "can't delete pointer to incomplete type");
	static_assert(sizeof(_Tp)>0,
		      "can't delete pointer to incomplete type");
	delete __ptr;
   d85b4:	4628      	mov	r0, r5
   d85b6:	f7ff ffd0 	bl	d855a <_ZN6ThreadD1Ev>
   d85ba:	2104      	movs	r1, #4
   d85bc:	4628      	mov	r0, r5
   d85be:	f000 fcbd 	bl	d8f3c <_ZdlPvj>

      /// Destructor, invokes the deleter if the stored pointer is not null.
      ~unique_ptr() noexcept
      {
	auto& __ptr = std::get<0>(_M_t);
	if (__ptr != nullptr)
   d85c2:	6820      	ldr	r0, [r4, #0]
   d85c4:	b108      	cbz	r0, d85ca <_ZN5spark11MeshPublishD1Ev+0x34>
	  get_deleter()(__ptr);
   d85c6:	f7ff ffc3 	bl	d8550 <_ZNKSt14default_deleteI3UDPEclEPS0_.isra.8.constprop.13>
   d85ca:	4620      	mov	r0, r4
   d85cc:	bd38      	pop	{r3, r4, r5, pc}
	...

000d85d0 <_ZN5spark9MeshClassD1Ev>:
    RecursiveMutex mutex_;
    std::unique_ptr<uint8_t[]> buffer_;
    std::atomic_bool exit_;
};

class MeshClass : public NetworkClass, public MeshPublish {
   d85d0:	b510      	push	{r4, lr}
   d85d2:	4b04      	ldr	r3, [pc, #16]	; (d85e4 <_ZN5spark9MeshClassD1Ev+0x14>)
   d85d4:	4604      	mov	r4, r0
   d85d6:	f840 3b08 	str.w	r3, [r0], #8
   d85da:	f7ff ffdc 	bl	d8596 <_ZN5spark11MeshPublishD1Ev>
   d85de:	4620      	mov	r0, r4
   d85e0:	bd10      	pop	{r4, pc}
   d85e2:	bf00      	nop
   d85e4:	000da7f8 	.word	0x000da7f8

000d85e8 <_GLOBAL__sub_I__ZN5spark11MeshPublish13Subscriptions20event_handler_existsEPKcPFvS3_S3_EPvN17SubscriptionScope4EnumES3_>:

    return addr;
}

MeshClass Mesh;
} // namespace spark
   d85e8:	b538      	push	{r3, r4, r5, lr}
   d85ea:	4c0e      	ldr	r4, [pc, #56]	; (d8624 <_GLOBAL__sub_I__ZN5spark11MeshPublish13Subscriptions20event_handler_existsEPKcPFvS3_S3_EPvN17SubscriptionScope4EnumES3_+0x3c>)
   d85ec:	4b0e      	ldr	r3, [pc, #56]	; (d8628 <_GLOBAL__sub_I__ZN5spark11MeshPublish13Subscriptions20event_handler_existsEPKcPFvS3_S3_EPvN17SubscriptionScope4EnumES3_+0x40>)
   d85ee:	6023      	str	r3, [r4, #0]

  template<std::size_t _Idx, typename _Head>
    struct _Head_base<_Idx, _Head, false>
    {
      constexpr _Head_base()
      : _M_head_impl() { }
   d85f0:	2500      	movs	r5, #0
   d85f2:	2302      	movs	r3, #2
     */
    RecursiveMutex(os_mutex_recursive_t handle) : handle_(handle) {}

    RecursiveMutex() : handle_(nullptr)
    {
        os_mutex_recursive_create(&handle_);
   d85f4:	f504 70e4 	add.w	r0, r4, #456	; 0x1c8
   d85f8:	6063      	str	r3, [r4, #4]
   d85fa:	60a5      	str	r5, [r4, #8]
   d85fc:	f8c4 51c4 	str.w	r5, [r4, #452]	; 0x1c4
    /**
     * Creates a shared mutex.
     */
    RecursiveMutex(os_mutex_recursive_t handle) : handle_(handle) {}

    RecursiveMutex() : handle_(nullptr)
   d8600:	f8c4 51c8 	str.w	r5, [r4, #456]	; 0x1c8
    {
        os_mutex_recursive_create(&handle_);
   d8604:	f7fe ff1e 	bl	d7444 <os_mutex_recursive_create>
public:
    MeshClass() :
            NetworkClass(NETWORK_INTERFACE_MESH) {
   d8608:	4b08      	ldr	r3, [pc, #32]	; (d862c <_GLOBAL__sub_I__ZN5spark11MeshPublish13Subscriptions20event_handler_existsEPKcPFvS3_S3_EPvN17SubscriptionScope4EnumES3_+0x44>)
   d860a:	f8c4 51cc 	str.w	r5, [r4, #460]	; 0x1cc
      __atomic_base(const __atomic_base&) = delete;
      __atomic_base& operator=(const __atomic_base&) = delete;
      __atomic_base& operator=(const __atomic_base&) volatile = delete;

      // Requires __int_type convertible to _M_i.
      constexpr __atomic_base(__int_type __i) noexcept : _M_i (__i) { }
   d860e:	f884 51d0 	strb.w	r5, [r4, #464]	; 0x1d0
   d8612:	6023      	str	r3, [r4, #0]
    }

    return addr;
}

MeshClass Mesh;
   d8614:	4620      	mov	r0, r4
   d8616:	4a06      	ldr	r2, [pc, #24]	; (d8630 <_GLOBAL__sub_I__ZN5spark11MeshPublish13Subscriptions20event_handler_existsEPKcPFvS3_S3_EPvN17SubscriptionScope4EnumES3_+0x48>)
   d8618:	4906      	ldr	r1, [pc, #24]	; (d8634 <_GLOBAL__sub_I__ZN5spark11MeshPublish13Subscriptions20event_handler_existsEPKcPFvS3_S3_EPvN17SubscriptionScope4EnumES3_+0x4c>)
} // namespace spark
   d861a:	e8bd 4038 	ldmia.w	sp!, {r3, r4, r5, lr}
    }

    return addr;
}

MeshClass Mesh;
   d861e:	f000 bc7f 	b.w	d8f20 <__aeabi_atexit>
   d8622:	bf00      	nop
   d8624:	2003e524 	.word	0x2003e524
   d8628:	000da8e0 	.word	0x000da8e0
   d862c:	000da7f8 	.word	0x000da7f8
   d8630:	2003dcd8 	.word	0x2003dcd8
   d8634:	000d85d1 	.word	0x000d85d1

000d8638 <_ZN9TCPClient5writeEh>:
    done.dismiss();

    return 1; // success
}

size_t TCPClient::write(uint8_t b) {
   d8638:	b537      	push	{r0, r1, r2, r4, r5, lr}
   d863a:	ac02      	add	r4, sp, #8
    return write(&b, 1, SOCKET_WAIT_FOREVER);
   d863c:	6803      	ldr	r3, [r0, #0]
    done.dismiss();

    return 1; // success
}

size_t TCPClient::write(uint8_t b) {
   d863e:	f804 1d01 	strb.w	r1, [r4, #-1]!
    return write(&b, 1, SOCKET_WAIT_FOREVER);
   d8642:	6bdd      	ldr	r5, [r3, #60]	; 0x3c
   d8644:	2201      	movs	r2, #1
   d8646:	f04f 33ff 	mov.w	r3, #4294967295
   d864a:	4621      	mov	r1, r4
   d864c:	47a8      	blx	r5
}
   d864e:	b003      	add	sp, #12
   d8650:	bd30      	pop	{r4, r5, pc}

000d8652 <_ZN9TCPClient5writeEPKhj>:

size_t TCPClient::write(const uint8_t *buffer, size_t size) {
   d8652:	b410      	push	{r4}
    return write(buffer, size, SOCKET_WAIT_FOREVER);
   d8654:	6803      	ldr	r3, [r0, #0]
   d8656:	6bdc      	ldr	r4, [r3, #60]	; 0x3c
   d8658:	f04f 33ff 	mov.w	r3, #4294967295
   d865c:	46a4      	mov	ip, r4
}
   d865e:	f85d 4b04 	ldr.w	r4, [sp], #4
size_t TCPClient::write(uint8_t b) {
    return write(&b, 1, SOCKET_WAIT_FOREVER);
}

size_t TCPClient::write(const uint8_t *buffer, size_t size) {
    return write(buffer, size, SOCKET_WAIT_FOREVER);
   d8662:	4760      	bx	ip

000d8664 <_ZN9TCPClient5writeEhm>:
}

size_t TCPClient::write(uint8_t b, system_tick_t timeout) {
   d8664:	b537      	push	{r0, r1, r2, r4, r5, lr}
   d8666:	ac02      	add	r4, sp, #8
    return write(&b, 1, timeout);
   d8668:	6803      	ldr	r3, [r0, #0]

size_t TCPClient::write(const uint8_t *buffer, size_t size) {
    return write(buffer, size, SOCKET_WAIT_FOREVER);
}

size_t TCPClient::write(uint8_t b, system_tick_t timeout) {
   d866a:	f804 1d01 	strb.w	r1, [r4, #-1]!
    return write(&b, 1, timeout);
   d866e:	6bdd      	ldr	r5, [r3, #60]	; 0x3c
   d8670:	4621      	mov	r1, r4
   d8672:	4613      	mov	r3, r2
   d8674:	2201      	movs	r2, #1
   d8676:	47a8      	blx	r5
}
   d8678:	b003      	add	sp, #12
   d867a:	bd30      	pop	{r4, r5, pc}

000d867c <_ZN9TCPClient5flushEv>:
void TCPClient::flush_buffer() {
    d_->offset = 0;
    d_->total = 0;
}

void TCPClient::flush() {
   d867c:	4770      	bx	lr

000d867e <_ZN9TCPClient9connectedEv>:
    d_->sock = -1;
    d_->remoteIP.clear();
    flush_buffer();
}

uint8_t TCPClient::connected() {
   d867e:	b538      	push	{r3, r4, r5, lr}
   d8680:	6943      	ldr	r3, [r0, #20]
    bool rv = (status() || bufferCount());
   d8682:	681a      	ldr	r2, [r3, #0]
   d8684:	2a00      	cmp	r2, #0
    d_->sock = -1;
    d_->remoteIP.clear();
    flush_buffer();
}

uint8_t TCPClient::connected() {
   d8686:	4604      	mov	r4, r0
    bool rv = (status() || bufferCount());
   d8688:	da05      	bge.n	d8696 <_ZN9TCPClient9connectedEv+0x18>
   d868a:	f8b3 2086 	ldrh.w	r2, [r3, #134]	; 0x86
   d868e:	f8b3 3084 	ldrh.w	r3, [r3, #132]	; 0x84
   d8692:	429a      	cmp	r2, r3
   d8694:	d001      	beq.n	d869a <_ZN9TCPClient9connectedEv+0x1c>
   d8696:	2501      	movs	r5, #1
   d8698:	e00b      	b.n	d86b2 <_ZN9TCPClient9connectedEv+0x34>
    if (!rv) {
        rv = available();
   d869a:	6803      	ldr	r3, [r0, #0]
   d869c:	691b      	ldr	r3, [r3, #16]
   d869e:	4798      	blx	r3
   d86a0:	2800      	cmp	r0, #0
   d86a2:	bf14      	ite	ne
   d86a4:	2501      	movne	r5, #1
   d86a6:	2500      	moveq	r5, #0
        if (!rv) {
   d86a8:	d103      	bne.n	d86b2 <_ZN9TCPClient9connectedEv+0x34>
            stop();
   d86aa:	6823      	ldr	r3, [r4, #0]
   d86ac:	4620      	mov	r0, r4
   d86ae:	6adb      	ldr	r3, [r3, #44]	; 0x2c
   d86b0:	4798      	blx	r3
        }
    }
    return rv;
}
   d86b2:	4628      	mov	r0, r5
   d86b4:	bd38      	pop	{r3, r4, r5, pc}

000d86b6 <_ZN9TCPClientcvbEv>:

uint8_t TCPClient::status() {
    return (isOpen(d_->sock));
   d86b6:	6943      	ldr	r3, [r0, #20]
}

TCPClient::operator bool() {
   return (status() != 0);
   d86b8:	6818      	ldr	r0, [r3, #0]
}
   d86ba:	43c0      	mvns	r0, r0
   d86bc:	0fc0      	lsrs	r0, r0, #31
   d86be:	4770      	bx	lr

000d86c0 <_ZNSt19_Sp_counted_deleterIPN9TCPClient4DataENSt12__shared_ptrIS1_LN9__gnu_cxx12_Lock_policyE0EE8_DeleterISaIS1_EEES8_LS5_0EED1Ev>:

      // __d(__p) must not throw.
      _Sp_counted_deleter(_Ptr __p, _Deleter __d, const _Alloc& __a) noexcept
      : _M_impl(__p, __d, __a) { }

      ~_Sp_counted_deleter() noexcept { }
   d86c0:	4770      	bx	lr

000d86c2 <_ZNSt19_Sp_counted_deleterIPN9TCPClient4DataENSt12__shared_ptrIS1_LN9__gnu_cxx12_Lock_policyE0EE8_DeleterISaIS1_EEES8_LS5_0EE14_M_get_deleterERKSt9type_info>:
	  ? std::__addressof(_M_impl._M_del())
	  : nullptr;
#else
        return nullptr;
#endif
      }
   d86c2:	2000      	movs	r0, #0
   d86c4:	4770      	bx	lr

000d86c6 <_ZNSt19_Sp_counted_deleterIPN9TCPClient4DataENSt12__shared_ptrIS1_LN9__gnu_cxx12_Lock_policyE0EE8_DeleterISaIS1_EEES8_LS5_0EED0Ev>:

      // __d(__p) must not throw.
      _Sp_counted_deleter(_Ptr __p, _Deleter __d, const _Alloc& __a) noexcept
      : _M_impl(__p, __d, __a) { }

      ~_Sp_counted_deleter() noexcept { }
   d86c6:	b510      	push	{r4, lr}
   d86c8:	2114      	movs	r1, #20
   d86ca:	4604      	mov	r4, r0
   d86cc:	f000 fc36 	bl	d8f3c <_ZdlPvj>
   d86d0:	4620      	mov	r0, r4
   d86d2:	bd10      	pop	{r4, pc}

000d86d4 <_ZNSt19_Sp_counted_deleterIPN9TCPClient4DataENSt12__shared_ptrIS1_LN9__gnu_cxx12_Lock_policyE0EE8_DeleterISaIS1_EEES8_LS5_0EE10_M_destroyEv>:
      }

      // __p is not permitted to be a null pointer.
      void
      deallocate(pointer __p, size_type)
      { ::operator delete(__p); }
   d86d4:	f7fb bce1 	b.w	d409a <_ZdlPv>

000d86d8 <_ZN9TCPClient5writeEPKhjm>:

size_t TCPClient::write(uint8_t b, system_tick_t timeout) {
    return write(&b, 1, timeout);
}

size_t TCPClient::write(const uint8_t *buffer, size_t size, system_tick_t timeout) {
   d86d8:	b57f      	push	{r0, r1, r2, r3, r4, r5, r6, lr}
   d86da:	4616      	mov	r6, r2

    size_t printNumber(unsigned long, uint8_t);
    size_t printNumber(unsigned long long, uint8_t);
    size_t printFloat(double, uint8_t);
  protected:
    void setWriteError(int err = 1) { write_error = err; }
   d86dc:	2200      	movs	r2, #0
   d86de:	6042      	str	r2, [r0, #4]
    clearWriteError();
    struct timeval tv = {};
   d86e0:	9202      	str	r2, [sp, #8]
   d86e2:	9203      	str	r2, [sp, #12]
    if (timeout != SOCKET_WAIT_FOREVER) {
   d86e4:	1c5a      	adds	r2, r3, #1

size_t TCPClient::write(uint8_t b, system_tick_t timeout) {
    return write(&b, 1, timeout);
}

size_t TCPClient::write(const uint8_t *buffer, size_t size, system_tick_t timeout) {
   d86e6:	4604      	mov	r4, r0
   d86e8:	460d      	mov	r5, r1
    clearWriteError();
    struct timeval tv = {};
    if (timeout != SOCKET_WAIT_FOREVER) {
   d86ea:	d008      	beq.n	d86fe <_ZN9TCPClient5writeEPKhjm+0x26>
        tv.tv_sec = timeout / 1000;
   d86ec:	f44f 727a 	mov.w	r2, #1000	; 0x3e8
   d86f0:	fbb3 f1f2 	udiv	r1, r3, r2
   d86f4:	9102      	str	r1, [sp, #8]
        tv.tv_usec = (timeout % 1000) * 1000;
   d86f6:	fb02 3111 	mls	r1, r2, r1, r3
   d86fa:	434a      	muls	r2, r1
   d86fc:	9203      	str	r2, [sp, #12]
    }
    int ret = sock_setsockopt(d_->sock, SOL_SOCKET, SO_SNDTIMEO, &tv, sizeof(tv));
   d86fe:	6960      	ldr	r0, [r4, #20]
   d8700:	2308      	movs	r3, #8
   d8702:	9300      	str	r3, [sp, #0]
   d8704:	f241 0205 	movw	r2, #4101	; 0x1005
   d8708:	446b      	add	r3, sp
   d870a:	f640 71ff 	movw	r1, #4095	; 0xfff
   d870e:	6800      	ldr	r0, [r0, #0]
   d8710:	f7fe ff60 	bl	d75d4 <sock_setsockopt>
    if (ret < 0) {
   d8714:	2800      	cmp	r0, #0
   d8716:	db08      	blt.n	d872a <_ZN9TCPClient5writeEPKhjm+0x52>
        setWriteError(errno);
        return 0;
    }

    ret = sock_send(d_->sock, buffer, size, 0);
   d8718:	6960      	ldr	r0, [r4, #20]
   d871a:	2300      	movs	r3, #0
   d871c:	4632      	mov	r2, r6
   d871e:	4629      	mov	r1, r5
   d8720:	6800      	ldr	r0, [r0, #0]
   d8722:	f7fe ff77 	bl	d7614 <sock_send>
    if (ret < 0) {
   d8726:	2800      	cmp	r0, #0
   d8728:	da04      	bge.n	d8734 <_ZN9TCPClient5writeEPKhjm+0x5c>
        setWriteError(errno);
   d872a:	f7ff f8af 	bl	d788c <__errno>
   d872e:	6803      	ldr	r3, [r0, #0]
   d8730:	6063      	str	r3, [r4, #4]
   d8732:	2000      	movs	r0, #0
        return 0;
    }

    return ret;
}
   d8734:	b004      	add	sp, #16
   d8736:	bd70      	pop	{r4, r5, r6, pc}

000d8738 <_ZNSt16_Sp_counted_baseILN9__gnu_cxx12_Lock_policyE0EE10_M_releaseEv.part.4.constprop.31>:
    _Sp_counted_base<_S_single>::_M_add_ref_copy()
    { ++_M_use_count; }

  template<>
    inline void
    _Sp_counted_base<_S_single>::_M_release() noexcept
   d8738:	b510      	push	{r4, lr}
    {
      if (--_M_use_count == 0)
        {
          _M_dispose();
   d873a:	6803      	ldr	r3, [r0, #0]
    _Sp_counted_base<_S_single>::_M_add_ref_copy()
    { ++_M_use_count; }

  template<>
    inline void
    _Sp_counted_base<_S_single>::_M_release() noexcept
   d873c:	4604      	mov	r4, r0
    {
      if (--_M_use_count == 0)
        {
          _M_dispose();
   d873e:	689b      	ldr	r3, [r3, #8]
   d8740:	4798      	blx	r3
          if (--_M_weak_count == 0)
   d8742:	68a3      	ldr	r3, [r4, #8]
   d8744:	3b01      	subs	r3, #1
   d8746:	60a3      	str	r3, [r4, #8]
   d8748:	b92b      	cbnz	r3, d8756 <_ZNSt16_Sp_counted_baseILN9__gnu_cxx12_Lock_policyE0EE10_M_releaseEv.part.4.constprop.31+0x1e>
            _M_destroy();
   d874a:	6823      	ldr	r3, [r4, #0]
   d874c:	4620      	mov	r0, r4
   d874e:	68db      	ldr	r3, [r3, #12]
        }
    }
   d8750:	e8bd 4010 	ldmia.w	sp!, {r4, lr}
    {
      if (--_M_use_count == 0)
        {
          _M_dispose();
          if (--_M_weak_count == 0)
            _M_destroy();
   d8754:	4718      	bx	r3
   d8756:	bd10      	pop	{r4, pc}

000d8758 <_ZN9TCPClient8remoteIPEv>:

TCPClient::operator bool() {
   return (status() != 0);
}

IPAddress TCPClient::remoteIP() {
   d8758:	b570      	push	{r4, r5, r6, lr}

/**
 * The IP address stored in host order.
 *
 */
class IPAddress : public Printable {
   d875a:	4604      	mov	r4, r0
   d875c:	694d      	ldr	r5, [r1, #20]
   d875e:	4b05      	ldr	r3, [pc, #20]	; (d8774 <_ZN9TCPClient8remoteIPEv+0x1c>)
   d8760:	f844 3b04 	str.w	r3, [r4], #4
   d8764:	358c      	adds	r5, #140	; 0x8c
   d8766:	4606      	mov	r6, r0
   d8768:	cd0f      	ldmia	r5!, {r0, r1, r2, r3}
   d876a:	c40f      	stmia	r4!, {r0, r1, r2, r3}
   d876c:	682b      	ldr	r3, [r5, #0]
   d876e:	7023      	strb	r3, [r4, #0]
    return d_->remoteIP;
}
   d8770:	4630      	mov	r0, r6
   d8772:	bd70      	pop	{r4, r5, r6, pc}
   d8774:	000da75c 	.word	0x000da75c

000d8778 <_ZN9TCPClient4peekEv>:
        d_->offset += read;
    }
    return read;
}

int TCPClient::peek() {
   d8778:	b510      	push	{r4, lr}
   d877a:	6943      	ldr	r3, [r0, #20]
    return (bufferCount() || available()) ? d_->buffer[d_->offset] : -1;
   d877c:	f8b3 2086 	ldrh.w	r2, [r3, #134]	; 0x86
   d8780:	f8b3 3084 	ldrh.w	r3, [r3, #132]	; 0x84
   d8784:	429a      	cmp	r2, r3
        d_->offset += read;
    }
    return read;
}

int TCPClient::peek() {
   d8786:	4604      	mov	r4, r0
    return (bufferCount() || available()) ? d_->buffer[d_->offset] : -1;
   d8788:	d005      	beq.n	d8796 <_ZN9TCPClient4peekEv+0x1e>
   d878a:	6962      	ldr	r2, [r4, #20]
   d878c:	f8b2 3084 	ldrh.w	r3, [r2, #132]	; 0x84
   d8790:	4413      	add	r3, r2
   d8792:	7918      	ldrb	r0, [r3, #4]
   d8794:	bd10      	pop	{r4, pc}
   d8796:	6803      	ldr	r3, [r0, #0]
   d8798:	691b      	ldr	r3, [r3, #16]
   d879a:	4798      	blx	r3
   d879c:	2800      	cmp	r0, #0
   d879e:	d1f4      	bne.n	d878a <_ZN9TCPClient4peekEv+0x12>
   d87a0:	f04f 30ff 	mov.w	r0, #4294967295
}
   d87a4:	bd10      	pop	{r4, pc}

000d87a6 <_ZN9TCPClient4readEv>:
    } // isOpen(d_->sock)
    avail = bufferCount();
    return avail;
}

int TCPClient::read() {
   d87a6:	b510      	push	{r4, lr}
   d87a8:	6943      	ldr	r3, [r0, #20]
    return (bufferCount() || available()) ? d_->buffer[d_->offset++] : -1;
   d87aa:	f8b3 2086 	ldrh.w	r2, [r3, #134]	; 0x86
   d87ae:	f8b3 3084 	ldrh.w	r3, [r3, #132]	; 0x84
   d87b2:	429a      	cmp	r2, r3
    } // isOpen(d_->sock)
    avail = bufferCount();
    return avail;
}

int TCPClient::read() {
   d87b4:	4604      	mov	r4, r0
    return (bufferCount() || available()) ? d_->buffer[d_->offset++] : -1;
   d87b6:	d008      	beq.n	d87ca <_ZN9TCPClient4readEv+0x24>
   d87b8:	6962      	ldr	r2, [r4, #20]
   d87ba:	f8b2 3084 	ldrh.w	r3, [r2, #132]	; 0x84
   d87be:	1c59      	adds	r1, r3, #1
   d87c0:	4413      	add	r3, r2
   d87c2:	f8a2 1084 	strh.w	r1, [r2, #132]	; 0x84
   d87c6:	7918      	ldrb	r0, [r3, #4]
   d87c8:	bd10      	pop	{r4, pc}
   d87ca:	6803      	ldr	r3, [r0, #0]
   d87cc:	691b      	ldr	r3, [r3, #16]
   d87ce:	4798      	blx	r3
   d87d0:	2800      	cmp	r0, #0
   d87d2:	d1f1      	bne.n	d87b8 <_ZN9TCPClient4readEv+0x12>
   d87d4:	f04f 30ff 	mov.w	r0, #4294967295
}
   d87d8:	bd10      	pop	{r4, pc}

000d87da <_ZN9TCPClient4readEPhj>:

int TCPClient::read(uint8_t *buffer, size_t size) {
   d87da:	b5f8      	push	{r3, r4, r5, r6, r7, lr}
   d87dc:	6943      	ldr	r3, [r0, #20]
   d87de:	4617      	mov	r7, r2
    int read = -1;
    if (bufferCount() || available()) {
   d87e0:	f8b3 2086 	ldrh.w	r2, [r3, #134]	; 0x86
   d87e4:	f8b3 3084 	ldrh.w	r3, [r3, #132]	; 0x84
   d87e8:	429a      	cmp	r2, r3

int TCPClient::read() {
    return (bufferCount() || available()) ? d_->buffer[d_->offset++] : -1;
}

int TCPClient::read(uint8_t *buffer, size_t size) {
   d87ea:	4605      	mov	r5, r0
   d87ec:	460e      	mov	r6, r1
    int read = -1;
    if (bufferCount() || available()) {
   d87ee:	d106      	bne.n	d87fe <_ZN9TCPClient4readEPhj+0x24>
   d87f0:	6803      	ldr	r3, [r0, #0]
   d87f2:	691b      	ldr	r3, [r3, #16]
   d87f4:	4798      	blx	r3
   d87f6:	b910      	cbnz	r0, d87fe <_ZN9TCPClient4readEPhj+0x24>
int TCPClient::read() {
    return (bufferCount() || available()) ? d_->buffer[d_->offset++] : -1;
}

int TCPClient::read(uint8_t *buffer, size_t size) {
    int read = -1;
   d87f8:	f04f 34ff 	mov.w	r4, #4294967295
   d87fc:	e014      	b.n	d8828 <_ZN9TCPClient4readEPhj+0x4e>
   d87fe:	6969      	ldr	r1, [r5, #20]

    return ret;
}

int TCPClient::bufferCount() {
    return d_->total - d_->offset;
   d8800:	f8b1 3084 	ldrh.w	r3, [r1, #132]	; 0x84
   d8804:	f8b1 4086 	ldrh.w	r4, [r1, #134]	; 0x86
   d8808:	1ae4      	subs	r4, r4, r3
}

int TCPClient::read(uint8_t *buffer, size_t size) {
    int read = -1;
    if (bufferCount() || available()) {
        read = (size > (size_t) bufferCount()) ? bufferCount() : size;
   d880a:	42bc      	cmp	r4, r7
   d880c:	bf28      	it	cs
   d880e:	463c      	movcs	r4, r7
        memcpy(buffer, &d_->buffer[d_->offset], read);
   d8810:	4419      	add	r1, r3
   d8812:	4622      	mov	r2, r4
   d8814:	3104      	adds	r1, #4
   d8816:	4630      	mov	r0, r6
   d8818:	f000 fff5 	bl	d9806 <memcpy>
   d881c:	696a      	ldr	r2, [r5, #20]
        d_->offset += read;
   d881e:	f8b2 3084 	ldrh.w	r3, [r2, #132]	; 0x84
   d8822:	4423      	add	r3, r4
   d8824:	f8a2 3084 	strh.w	r3, [r2, #132]	; 0x84
    }
    return read;
}
   d8828:	4620      	mov	r0, r4
   d882a:	bdf8      	pop	{r3, r4, r5, r6, r7, pc}

000d882c <_ZN9TCPClient7connectEPKctm>:
        : d_(std::make_shared<Data>(sock)) {
    flush_buffer();
}

// return 0 on error, 1 on success
int TCPClient::connect(const char* host, uint16_t port, network_interface_t nif) {
   d882c:	e92d 43f0 	stmdb	sp!, {r4, r5, r6, r7, r8, r9, lr}
   d8830:	4698      	mov	r8, r3
    stop();
   d8832:	6803      	ldr	r3, [r0, #0]
        : d_(std::make_shared<Data>(sock)) {
    flush_buffer();
}

// return 0 on error, 1 on success
int TCPClient::connect(const char* host, uint16_t port, network_interface_t nif) {
   d8834:	b093      	sub	sp, #76	; 0x4c
    stop();
   d8836:	6adb      	ldr	r3, [r3, #44]	; 0x2c
        : d_(std::make_shared<Data>(sock)) {
    flush_buffer();
}

// return 0 on error, 1 on success
int TCPClient::connect(const char* host, uint16_t port, network_interface_t nif) {
   d8838:	460d      	mov	r5, r1
   d883a:	4606      	mov	r6, r0
   d883c:	4617      	mov	r7, r2
    stop();
   d883e:	4798      	blx	r3

    struct addrinfo* ais = nullptr;
   d8840:	ab12      	add	r3, sp, #72	; 0x48
   d8842:	2400      	movs	r4, #0
   d8844:	f843 4d48 	str.w	r4, [r3, #-72]!
    SCOPE_GUARD({
        netdb_freeaddrinfo(ais);
    });
    CHECK_TRUE(netdb_getaddrinfo(host, nullptr, nullptr, &ais) == 0, 0); // return 0
   d8848:	4622      	mov	r2, r4
   d884a:	4621      	mov	r1, r4
   d884c:	4628      	mov	r0, r5
   d884e:	f7fe fd09 	bl	d7264 <netdb_getaddrinfo>
   d8852:	4681      	mov	r9, r0
   d8854:	2800      	cmp	r0, #0
   d8856:	d13d      	bne.n	d88d4 <_ZN9TCPClient7connectEPKctm+0xa8>

    // FIXME: for now using only the first entry
    if (ais && ais->ai_addr) {
   d8858:	9b00      	ldr	r3, [sp, #0]
   d885a:	2b00      	cmp	r3, #0
   d885c:	d056      	beq.n	d890c <_ZN9TCPClient7connectEPKctm+0xe0>
   d885e:	695b      	ldr	r3, [r3, #20]
   d8860:	2b00      	cmp	r3, #0
   d8862:	d053      	beq.n	d890c <_ZN9TCPClient7connectEPKctm+0xe0>
        IPAddress addr;
   d8864:	a806      	add	r0, sp, #24
   d8866:	f7ff fc1d 	bl	d80a4 <_ZN9IPAddressC1Ev>
        detail::sockaddrToIpAddressPort(ais->ai_addr, addr, nullptr);
   d886a:	9b00      	ldr	r3, [sp, #0]
   d886c:	695c      	ldr	r4, [r3, #20]
namespace spark {

namespace detail {

inline void sockaddrToIpAddressPort(const struct sockaddr* saddr, IPAddress& addr, uint16_t* port) {
    if (saddr->sa_family == AF_INET) {
   d886e:	7863      	ldrb	r3, [r4, #1]
   d8870:	2b02      	cmp	r3, #2
   d8872:	d101      	bne.n	d8878 <_ZN9TCPClient7connectEPKctm+0x4c>
        const struct sockaddr_in* inaddr = (const struct sockaddr_in*)saddr;
        addr = (const uint8_t*)(&inaddr->sin_addr.s_addr);
   d8874:	1d21      	adds	r1, r4, #4
   d8876:	e013      	b.n	d88a0 <_ZN9TCPClient7connectEPKctm+0x74>
        if (port) {
            *port = ntohs(inaddr->sin_port);
        }
    }
#if HAL_IPv6
    else if (saddr->sa_family == AF_INET6) {
   d8878:	2b0a      	cmp	r3, #10
   d887a:	d114      	bne.n	d88a6 <_ZN9TCPClient7connectEPKctm+0x7a>
        const struct sockaddr_in6* in6addr = (const struct sockaddr_in6*)saddr;
        HAL_IPAddress a = {};
   d887c:	2211      	movs	r2, #17
   d887e:	4649      	mov	r1, r9
   d8880:	a801      	add	r0, sp, #4
   d8882:	f000 ffcb 	bl	d981c <memset>
        if (!IN6_IS_ADDR_V4MAPPED(&in6addr->sin6_addr)) {
   d8886:	68a3      	ldr	r3, [r4, #8]
   d8888:	bb33      	cbnz	r3, d88d8 <_ZN9TCPClient7connectEPKctm+0xac>
   d888a:	68e3      	ldr	r3, [r4, #12]
   d888c:	bb23      	cbnz	r3, d88d8 <_ZN9TCPClient7connectEPKctm+0xac>
   d888e:	f64f 70ff 	movw	r0, #65535	; 0xffff
   d8892:	6925      	ldr	r5, [r4, #16]
   d8894:	f7fe fdee 	bl	d7474 <inet_htonl>
   d8898:	4285      	cmp	r5, r0
   d889a:	d11d      	bne.n	d88d8 <_ZN9TCPClient7connectEPKctm+0xac>
            memcpy(a.ipv6, in6addr->sin6_addr.s6_addr, sizeof(a.ipv6));
            a.v = 6;
            addr = IPAddress(a);
        } else {
            auto ptr = (const uint32_t*)(in6addr->sin6_addr.s6_addr);
            addr = (const uint8_t*)(&ptr[3]);
   d889c:	f104 0114 	add.w	r1, r4, #20
   d88a0:	a806      	add	r0, sp, #24
   d88a2:	f7ff fc42 	bl	d812a <_ZN9IPAddressaSEPKh>
    operator bool() const;

    // For some reason, without this non-const overload GCC struggles to pick right operator
    // for bool conversion of a non-const object
    operator bool() {
        return static_cast<const IPAddress*>(this)->operator bool();
   d88a6:	a806      	add	r0, sp, #24
   d88a8:	f7ff fc1c 	bl	d80e4 <_ZNK9IPAddresscvbEv>
        if (addr) {
   d88ac:	2800      	cmp	r0, #0
   d88ae:	d02d      	beq.n	d890c <_ZN9TCPClient7connectEPKctm+0xe0>
            return connect(addr, port, nif);
   d88b0:	6833      	ldr	r3, [r6, #0]

/**
 * The IP address stored in host order.
 *
 */
class IPAddress : public Printable {
   d88b2:	ad07      	add	r5, sp, #28
   d88b4:	f8d3 9020 	ldr.w	r9, [r3, #32]
   d88b8:	4b18      	ldr	r3, [pc, #96]	; (d891c <_ZN9TCPClient7connectEPKctm+0xf0>)
   d88ba:	930c      	str	r3, [sp, #48]	; 0x30
   d88bc:	cd0f      	ldmia	r5!, {r0, r1, r2, r3}
   d88be:	ac0d      	add	r4, sp, #52	; 0x34
   d88c0:	c40f      	stmia	r4!, {r0, r1, r2, r3}
   d88c2:	682b      	ldr	r3, [r5, #0]
   d88c4:	7023      	strb	r3, [r4, #0]
   d88c6:	463a      	mov	r2, r7
   d88c8:	4643      	mov	r3, r8
   d88ca:	a90c      	add	r1, sp, #48	; 0x30
   d88cc:	4630      	mov	r0, r6
   d88ce:	47c8      	blx	r9
   d88d0:	4681      	mov	r9, r0
   d88d2:	e01b      	b.n	d890c <_ZN9TCPClient7connectEPKctm+0xe0>

    struct addrinfo* ais = nullptr;
    SCOPE_GUARD({
        netdb_freeaddrinfo(ais);
    });
    CHECK_TRUE(netdb_getaddrinfo(host, nullptr, nullptr, &ais) == 0, 0); // return 0
   d88d4:	46a1      	mov	r9, r4
   d88d6:	e019      	b.n	d890c <_ZN9TCPClient7connectEPKctm+0xe0>
#if HAL_IPv6
    else if (saddr->sa_family == AF_INET6) {
        const struct sockaddr_in6* in6addr = (const struct sockaddr_in6*)saddr;
        HAL_IPAddress a = {};
        if (!IN6_IS_ADDR_V4MAPPED(&in6addr->sin6_addr)) {
            memcpy(a.ipv6, in6addr->sin6_addr.s6_addr, sizeof(a.ipv6));
   d88d8:	f104 0308 	add.w	r3, r4, #8
   d88dc:	ad01      	add	r5, sp, #4
   d88de:	3418      	adds	r4, #24
   d88e0:	6818      	ldr	r0, [r3, #0]
   d88e2:	6859      	ldr	r1, [r3, #4]
   d88e4:	462a      	mov	r2, r5
   d88e6:	c203      	stmia	r2!, {r0, r1}
   d88e8:	3308      	adds	r3, #8
   d88ea:	42a3      	cmp	r3, r4
   d88ec:	4615      	mov	r5, r2
   d88ee:	d1f7      	bne.n	d88e0 <_ZN9TCPClient7connectEPKctm+0xb4>
            a.v = 6;
   d88f0:	2306      	movs	r3, #6
            addr = IPAddress(a);
   d88f2:	a901      	add	r1, sp, #4
   d88f4:	a80c      	add	r0, sp, #48	; 0x30
   d88f6:	ad0d      	add	r5, sp, #52	; 0x34
    else if (saddr->sa_family == AF_INET6) {
        const struct sockaddr_in6* in6addr = (const struct sockaddr_in6*)saddr;
        HAL_IPAddress a = {};
        if (!IN6_IS_ADDR_V4MAPPED(&in6addr->sin6_addr)) {
            memcpy(a.ipv6, in6addr->sin6_addr.s6_addr, sizeof(a.ipv6));
            a.v = 6;
   d88f8:	f88d 3014 	strb.w	r3, [sp, #20]
            addr = IPAddress(a);
   d88fc:	f7ff fbe0 	bl	d80c0 <_ZN9IPAddressC1ERK16_HAL_IPAddress_t>
   d8900:	cd0f      	ldmia	r5!, {r0, r1, r2, r3}
   d8902:	ac07      	add	r4, sp, #28
   d8904:	c40f      	stmia	r4!, {r0, r1, r2, r3}
   d8906:	682b      	ldr	r3, [r5, #0]
   d8908:	7023      	strb	r3, [r4, #0]
   d890a:	e7cc      	b.n	d88a6 <_ZN9TCPClient7connectEPKctm+0x7a>
// return 0 on error, 1 on success
int TCPClient::connect(const char* host, uint16_t port, network_interface_t nif) {
    stop();

    struct addrinfo* ais = nullptr;
    SCOPE_GUARD({
   d890c:	9800      	ldr	r0, [sp, #0]
   d890e:	f7fe fca1 	bl	d7254 <netdb_freeaddrinfo>
            return connect(addr, port, nif);
        }
    }

    return 0; // error, could not connect
}
   d8912:	4648      	mov	r0, r9
   d8914:	b013      	add	sp, #76	; 0x4c
   d8916:	e8bd 83f0 	ldmia.w	sp!, {r4, r5, r6, r7, r8, r9, pc}
   d891a:	bf00      	nop
   d891c:	000da75c 	.word	0x000da75c

000d8920 <_ZN9TCPClient12flush_bufferEv>:

int TCPClient::peek() {
    return (bufferCount() || available()) ? d_->buffer[d_->offset] : -1;
}

void TCPClient::flush_buffer() {
   d8920:	6942      	ldr	r2, [r0, #20]
    d_->offset = 0;
   d8922:	2300      	movs	r3, #0
   d8924:	f8a2 3084 	strh.w	r3, [r2, #132]	; 0x84
   d8928:	6942      	ldr	r2, [r0, #20]
    d_->total = 0;
   d892a:	f8a2 3086 	strh.w	r3, [r2, #134]	; 0x86
   d892e:	4770      	bx	lr

000d8930 <_ZN9TCPClient7connectE9IPAddresstm>:

    return 0; // error, could not connect
}

// return 0 on error, 1 on success
int TCPClient::connect(IPAddress ip, uint16_t port, network_interface_t nif) {
   d8930:	e92d 41f0 	stmdb	sp!, {r4, r5, r6, r7, r8, lr}
   d8934:	461e      	mov	r6, r3
    stop();
   d8936:	6803      	ldr	r3, [r0, #0]

    return 0; // error, could not connect
}

// return 0 on error, 1 on success
int TCPClient::connect(IPAddress ip, uint16_t port, network_interface_t nif) {
   d8938:	460c      	mov	r4, r1
   d893a:	b08a      	sub	sp, #40	; 0x28
    stop();
   d893c:	6adb      	ldr	r3, [r3, #44]	; 0x2c

    return 0; // error, could not connect
}

// return 0 on error, 1 on success
int TCPClient::connect(IPAddress ip, uint16_t port, network_interface_t nif) {
   d893e:	4605      	mov	r5, r0
   d8940:	4617      	mov	r7, r2
    stop();
   d8942:	4798      	blx	r3

    NAMED_SCOPE_GUARD(done, {
        stop();
    });

    d_->sock = sock_socket(ip.version() == 4 ? AF_INET : AF_INET6, SOCK_STREAM, IPPROTO_TCP);
   d8944:	7d23      	ldrb	r3, [r4, #20]
   d8946:	f8d5 8014 	ldr.w	r8, [r5, #20]
   d894a:	2b04      	cmp	r3, #4
   d894c:	bf0c      	ite	eq
   d894e:	2002      	moveq	r0, #2
   d8950:	200a      	movne	r0, #10
   d8952:	2206      	movs	r2, #6
   d8954:	2101      	movs	r1, #1
   d8956:	f7fe fe65 	bl	d7624 <sock_socket>
   d895a:	f8c8 0000 	str.w	r0, [r8]
    CHECK_TRUE(d_->sock >= 0, 0); // return 0
   d895e:	696b      	ldr	r3, [r5, #20]
   d8960:	681b      	ldr	r3, [r3, #0]
   d8962:	2b00      	cmp	r3, #0
   d8964:	db18      	blt.n	d8998 <_ZN9TCPClient7connectE9IPAddresstm+0x68>

    flush_buffer();
   d8966:	4628      	mov	r0, r5
   d8968:	f7ff ffda 	bl	d8920 <_ZN9TCPClient12flush_bufferEv>

#if HAL_PLATFORM_IFAPI
    // TODO: provide compatibility headers and use if_indextoname()
    if (nif != 0) {
   d896c:	b1d6      	cbz	r6, d89a4 <_ZN9TCPClient7connectE9IPAddresstm+0x74>
        struct ifreq ifr = {};
   d896e:	2300      	movs	r3, #0
        CHECK_TRUE(if_index_to_name(nif, ifr.ifr_name) == 0, 0); // return 0
   d8970:	a903      	add	r1, sp, #12
   d8972:	b2f0      	uxtb	r0, r6
    flush_buffer();

#if HAL_PLATFORM_IFAPI
    // TODO: provide compatibility headers and use if_indextoname()
    if (nif != 0) {
        struct ifreq ifr = {};
   d8974:	9303      	str	r3, [sp, #12]
   d8976:	f8ad 3010 	strh.w	r3, [sp, #16]
        CHECK_TRUE(if_index_to_name(nif, ifr.ifr_name) == 0, 0); // return 0
   d897a:	f7fe fd13 	bl	d73a4 <if_index_to_name>
   d897e:	b958      	cbnz	r0, d8998 <_ZN9TCPClient7connectE9IPAddresstm+0x68>
        CHECK_TRUE(sock_setsockopt(d_->sock, SOL_SOCKET, SO_BINDTODEVICE, &ifr, sizeof(ifr)) == 0, 0); // return 0
   d8980:	6968      	ldr	r0, [r5, #20]
   d8982:	2306      	movs	r3, #6
   d8984:	9300      	str	r3, [sp, #0]
   d8986:	f241 020b 	movw	r2, #4107	; 0x100b
   d898a:	ab03      	add	r3, sp, #12
   d898c:	f640 71ff 	movw	r1, #4095	; 0xfff
   d8990:	6800      	ldr	r0, [r0, #0]
   d8992:	f7fe fe1f 	bl	d75d4 <sock_setsockopt>
   d8996:	b128      	cbz	r0, d89a4 <_ZN9TCPClient7connectE9IPAddresstm+0x74>

// return 0 on error, 1 on success
int TCPClient::connect(IPAddress ip, uint16_t port, network_interface_t nif) {
    stop();

    NAMED_SCOPE_GUARD(done, {
   d8998:	682b      	ldr	r3, [r5, #0]
   d899a:	4628      	mov	r0, r5
   d899c:	6adb      	ldr	r3, [r3, #44]	; 0x2c

#if HAL_PLATFORM_IFAPI
    // TODO: provide compatibility headers and use if_indextoname()
    if (nif != 0) {
        struct ifreq ifr = {};
        CHECK_TRUE(if_index_to_name(nif, ifr.ifr_name) == 0, 0); // return 0
   d899e:	2400      	movs	r4, #0

// return 0 on error, 1 on success
int TCPClient::connect(IPAddress ip, uint16_t port, network_interface_t nif) {
    stop();

    NAMED_SCOPE_GUARD(done, {
   d89a0:	4798      	blx	r3
   d89a2:	e03b      	b.n	d8a1c <_ZN9TCPClient7connectE9IPAddresstm+0xec>
        CHECK_TRUE(if_index_to_name(nif, ifr.ifr_name) == 0, 0); // return 0
        CHECK_TRUE(sock_setsockopt(d_->sock, SOL_SOCKET, SO_BINDTODEVICE, &ifr, sizeof(ifr)) == 0, 0); // return 0
    }
#endif // HAL_PLATFORM_IFAPI

    sockaddr_storage saddr = {};
   d89a4:	261c      	movs	r6, #28
   d89a6:	4632      	mov	r2, r6
   d89a8:	2100      	movs	r1, #0
   d89aa:	a803      	add	r0, sp, #12
   d89ac:	f000 ff36 	bl	d981c <memset>
    if (ip.version() == 4) {
   d89b0:	7d23      	ldrb	r3, [r4, #20]
        auto s = (sockaddr_in*)&saddr;
        s->sin_len = sizeof(saddr);
   d89b2:	f88d 600c 	strb.w	r6, [sp, #12]
        CHECK_TRUE(sock_setsockopt(d_->sock, SOL_SOCKET, SO_BINDTODEVICE, &ifr, sizeof(ifr)) == 0, 0); // return 0
    }
#endif // HAL_PLATFORM_IFAPI

    sockaddr_storage saddr = {};
    if (ip.version() == 4) {
   d89b6:	2b04      	cmp	r3, #4
   d89b8:	d10c      	bne.n	d89d4 <_ZN9TCPClient7connectE9IPAddresstm+0xa4>
        auto s = (sockaddr_in*)&saddr;
        s->sin_len = sizeof(saddr);
        s->sin_family = AF_INET;
   d89ba:	2302      	movs	r3, #2
        s->sin_port = htons(port);
   d89bc:	4638      	mov	r0, r7

    sockaddr_storage saddr = {};
    if (ip.version() == 4) {
        auto s = (sockaddr_in*)&saddr;
        s->sin_len = sizeof(saddr);
        s->sin_family = AF_INET;
   d89be:	f88d 300d 	strb.w	r3, [sp, #13]
        s->sin_port = htons(port);
   d89c2:	f7fe fd5f 	bl	d7484 <inet_htons>
   d89c6:	f8ad 000e 	strh.w	r0, [sp, #14]
        s->sin_addr.s_addr = htonl(ip.raw().ipv4);
   d89ca:	6860      	ldr	r0, [r4, #4]
   d89cc:	f7fe fd52 	bl	d7474 <inet_htonl>
   d89d0:	9004      	str	r0, [sp, #16]
   d89d2:	e013      	b.n	d89fc <_ZN9TCPClient7connectE9IPAddresstm+0xcc>
    } else {
        auto s = (sockaddr_in6*)&saddr;
        s->sin6_len = sizeof(saddr);
        s->sin6_family = AF_INET6;
   d89d4:	230a      	movs	r3, #10
        s->sin6_port = htons(port);
   d89d6:	4638      	mov	r0, r7
        s->sin_port = htons(port);
        s->sin_addr.s_addr = htonl(ip.raw().ipv4);
    } else {
        auto s = (sockaddr_in6*)&saddr;
        s->sin6_len = sizeof(saddr);
        s->sin6_family = AF_INET6;
   d89d8:	f88d 300d 	strb.w	r3, [sp, #13]
        s->sin6_port = htons(port);
   d89dc:	f7fe fd52 	bl	d7484 <inet_htons>
        memcpy(s->sin6_addr.s6_addr, ip.raw().ipv6, sizeof(s->sin6_addr.s6_addr));
   d89e0:	ae05      	add	r6, sp, #20
        s->sin_addr.s_addr = htonl(ip.raw().ipv4);
    } else {
        auto s = (sockaddr_in6*)&saddr;
        s->sin6_len = sizeof(saddr);
        s->sin6_family = AF_INET6;
        s->sin6_port = htons(port);
   d89e2:	f8ad 000e 	strh.w	r0, [sp, #14]
        memcpy(s->sin6_addr.s6_addr, ip.raw().ipv6, sizeof(s->sin6_addr.s6_addr));
   d89e6:	1d23      	adds	r3, r4, #4
   d89e8:	f104 0714 	add.w	r7, r4, #20
   d89ec:	6818      	ldr	r0, [r3, #0]
   d89ee:	6859      	ldr	r1, [r3, #4]
   d89f0:	4632      	mov	r2, r6
   d89f2:	c203      	stmia	r2!, {r0, r1}
   d89f4:	3308      	adds	r3, #8
   d89f6:	42bb      	cmp	r3, r7
   d89f8:	4616      	mov	r6, r2
   d89fa:	d1f7      	bne.n	d89ec <_ZN9TCPClient7connectE9IPAddresstm+0xbc>
    }

    // FIXME: timeout?
    CHECK_TRUE(sock_connect(d_->sock, (const sockaddr*)&saddr, sizeof(saddr)) == 0, 0); // return 0
   d89fc:	696b      	ldr	r3, [r5, #20]
   d89fe:	221c      	movs	r2, #28
   d8a00:	a903      	add	r1, sp, #12
   d8a02:	6818      	ldr	r0, [r3, #0]
   d8a04:	f7fe fdf6 	bl	d75f4 <sock_connect>
   d8a08:	2800      	cmp	r0, #0
   d8a0a:	d1c5      	bne.n	d8998 <_ZN9TCPClient7connectE9IPAddresstm+0x68>
   d8a0c:	3404      	adds	r4, #4
   d8a0e:	cc0f      	ldmia	r4!, {r0, r1, r2, r3}
   d8a10:	696d      	ldr	r5, [r5, #20]
   d8a12:	358c      	adds	r5, #140	; 0x8c
   d8a14:	c50f      	stmia	r5!, {r0, r1, r2, r3}
   d8a16:	6823      	ldr	r3, [r4, #0]
   d8a18:	702b      	strb	r3, [r5, #0]

    d_->remoteIP = ip;

    done.dismiss();

    return 1; // success
   d8a1a:	2401      	movs	r4, #1
}
   d8a1c:	4620      	mov	r0, r4
   d8a1e:	b00a      	add	sp, #40	; 0x28
   d8a20:	e8bd 81f0 	ldmia.w	sp!, {r4, r5, r6, r7, r8, pc}

000d8a24 <_ZN9TCPClient4stopEv>:
}

void TCPClient::flush() {
}

void TCPClient::stop() {
   d8a24:	b510      	push	{r4, lr}
    if (isOpen(d_->sock)) {
   d8a26:	6943      	ldr	r3, [r0, #20]
}

void TCPClient::flush() {
}

void TCPClient::stop() {
   d8a28:	4604      	mov	r4, r0
    if (isOpen(d_->sock)) {
   d8a2a:	6818      	ldr	r0, [r3, #0]
   d8a2c:	2800      	cmp	r0, #0
   d8a2e:	db01      	blt.n	d8a34 <_ZN9TCPClient4stopEv+0x10>
        sock_close(d_->sock);
   d8a30:	f7fe fdd8 	bl	d75e4 <sock_close>
   d8a34:	6963      	ldr	r3, [r4, #20]
    }
    d_->sock = -1;
   d8a36:	f04f 32ff 	mov.w	r2, #4294967295
   d8a3a:	601a      	str	r2, [r3, #0]
        return address;
    }

    virtual size_t printTo(Print& p) const;

    void clear() { memset(&address, 0, sizeof (address)); }
   d8a3c:	6960      	ldr	r0, [r4, #20]
   d8a3e:	2211      	movs	r2, #17
   d8a40:	2100      	movs	r1, #0
   d8a42:	308c      	adds	r0, #140	; 0x8c
   d8a44:	f000 feea 	bl	d981c <memset>
    d_->remoteIP.clear();
    flush_buffer();
   d8a48:	4620      	mov	r0, r4
}
   d8a4a:	e8bd 4010 	ldmia.w	sp!, {r4, lr}
    if (isOpen(d_->sock)) {
        sock_close(d_->sock);
    }
    d_->sock = -1;
    d_->remoteIP.clear();
    flush_buffer();
   d8a4e:	f7ff bf67 	b.w	d8920 <_ZN9TCPClient12flush_bufferEv>
	...

000d8a54 <_ZN9TCPClient9availableEv>:
int TCPClient::bufferCount() {
    return d_->total - d_->offset;
}

int TCPClient::available()
{
   d8a54:	b530      	push	{r4, r5, lr}
   d8a56:	6942      	ldr	r2, [r0, #20]
    int avail = 0;

    // At EOB => Flush it
    if (d_->total && (d_->offset == d_->total)) {
   d8a58:	f8b2 3086 	ldrh.w	r3, [r2, #134]	; 0x86
int TCPClient::bufferCount() {
    return d_->total - d_->offset;
}

int TCPClient::available()
{
   d8a5c:	b08b      	sub	sp, #44	; 0x2c
   d8a5e:	4604      	mov	r4, r0
    int avail = 0;

    // At EOB => Flush it
    if (d_->total && (d_->offset == d_->total)) {
   d8a60:	b11b      	cbz	r3, d8a6a <_ZN9TCPClient9availableEv+0x16>
   d8a62:	f8b2 2084 	ldrh.w	r2, [r2, #132]	; 0x84
   d8a66:	429a      	cmp	r2, r3
   d8a68:	d040      	beq.n	d8aec <_ZN9TCPClient9availableEv+0x98>
   d8a6a:	6963      	ldr	r3, [r4, #20]
        flush_buffer();
    }

    if (isOpen(d_->sock)) {
   d8a6c:	6818      	ldr	r0, [r3, #0]
   d8a6e:	2800      	cmp	r0, #0
   d8a70:	db3f      	blt.n	d8af2 <_ZN9TCPClient9availableEv+0x9e>
        // Have room
        if (d_->total < arraySize(d_->buffer)) {
   d8a72:	f8b3 5086 	ldrh.w	r5, [r3, #134]	; 0x86
   d8a76:	2d7f      	cmp	r5, #127	; 0x7f
   d8a78:	d83b      	bhi.n	d8af2 <_ZN9TCPClient9availableEv+0x9e>
            int ret = sock_recv(d_->sock, d_->buffer + d_->total, arraySize(d_->buffer) - d_->total, MSG_DONTWAIT);
   d8a7a:	1d19      	adds	r1, r3, #4
   d8a7c:	f1c5 0280 	rsb	r2, r5, #128	; 0x80
   d8a80:	2308      	movs	r3, #8
   d8a82:	4429      	add	r1, r5
   d8a84:	f7fe fdbe 	bl	d7604 <sock_recv>
            if (ret > 0) {
   d8a88:	2800      	cmp	r0, #0
   d8a8a:	dd0c      	ble.n	d8aa6 <_ZN9TCPClient9availableEv+0x52>
   d8a8c:	6963      	ldr	r3, [r4, #20]
                if (d_->total == 0) {
   d8a8e:	f8b3 2086 	ldrh.w	r2, [r3, #134]	; 0x86
   d8a92:	b90a      	cbnz	r2, d8a98 <_ZN9TCPClient9availableEv+0x44>
                    d_->offset = 0;
   d8a94:	f8a3 2084 	strh.w	r2, [r3, #132]	; 0x84
   d8a98:	6962      	ldr	r2, [r4, #20]
                }
                d_->total += ret;
   d8a9a:	f8b2 3086 	ldrh.w	r3, [r2, #134]	; 0x86
   d8a9e:	4418      	add	r0, r3
   d8aa0:	f8a2 0086 	strh.w	r0, [r2, #134]	; 0x86
   d8aa4:	e025      	b.n	d8af2 <_ZN9TCPClient9availableEv+0x9e>
            } else {
                if (errno != EAGAIN && errno != EWOULDBLOCK) {
   d8aa6:	f7fe fef1 	bl	d788c <__errno>
   d8aaa:	6803      	ldr	r3, [r0, #0]
   d8aac:	2b0b      	cmp	r3, #11
   d8aae:	d020      	beq.n	d8af2 <_ZN9TCPClient9availableEv+0x9e>
   d8ab0:	f7fe feec 	bl	d788c <__errno>
   d8ab4:	6803      	ldr	r3, [r0, #0]
   d8ab6:	2b0b      	cmp	r3, #11
   d8ab8:	d01b      	beq.n	d8af2 <_ZN9TCPClient9availableEv+0x9e>
                    LOG(ERROR, "recv error = %d", errno);
   d8aba:	2320      	movs	r3, #32
   d8abc:	2500      	movs	r5, #0
   d8abe:	9302      	str	r3, [sp, #8]
   d8ac0:	9503      	str	r5, [sp, #12]
   d8ac2:	f7fe fee3 	bl	d788c <__errno>
   d8ac6:	6803      	ldr	r3, [r0, #0]
   d8ac8:	9301      	str	r3, [sp, #4]
   d8aca:	4b0e      	ldr	r3, [pc, #56]	; (d8b04 <_ZN9TCPClient9availableEv+0xb0>)
   d8acc:	9300      	str	r3, [sp, #0]
   d8ace:	aa02      	add	r2, sp, #8
   d8ad0:	462b      	mov	r3, r5
   d8ad2:	490d      	ldr	r1, [pc, #52]	; (d8b08 <_ZN9TCPClient9availableEv+0xb4>)
   d8ad4:	2032      	movs	r0, #50	; 0x32
   d8ad6:	f7fe fded 	bl	d76b4 <log_message>
                    sock_close(d_->sock);
   d8ada:	6963      	ldr	r3, [r4, #20]
   d8adc:	6818      	ldr	r0, [r3, #0]
   d8ade:	f7fe fd81 	bl	d75e4 <sock_close>
   d8ae2:	6963      	ldr	r3, [r4, #20]
                    d_->sock = -1;
   d8ae4:	f04f 32ff 	mov.w	r2, #4294967295
   d8ae8:	601a      	str	r2, [r3, #0]
   d8aea:	e002      	b.n	d8af2 <_ZN9TCPClient9availableEv+0x9e>
{
    int avail = 0;

    // At EOB => Flush it
    if (d_->total && (d_->offset == d_->total)) {
        flush_buffer();
   d8aec:	f7ff ff18 	bl	d8920 <_ZN9TCPClient12flush_bufferEv>
   d8af0:	e7bb      	b.n	d8a6a <_ZN9TCPClient9availableEv+0x16>
   d8af2:	6962      	ldr	r2, [r4, #20]
                }
            }
        } // Have Space
    } // isOpen(d_->sock)
    avail = bufferCount();
    return avail;
   d8af4:	f8b2 3086 	ldrh.w	r3, [r2, #134]	; 0x86
   d8af8:	f8b2 0084 	ldrh.w	r0, [r2, #132]	; 0x84
   d8afc:	1a18      	subs	r0, r3, r0
}
   d8afe:	b00b      	add	sp, #44	; 0x2c
   d8b00:	bd30      	pop	{r4, r5, pc}
   d8b02:	bf00      	nop
   d8b04:	000da893 	.word	0x000da893
   d8b08:	000da88c 	.word	0x000da88c

000d8b0c <_ZN9TCPClient4DataC1Ei>:

IPAddress TCPClient::remoteIP() {
    return d_->remoteIP;
}

TCPClient::Data::Data(sock_handle_t sock)
   d8b0c:	b510      	push	{r4, lr}
        : sock(sock),
          offset(0),
          total(0) {
   d8b0e:	2300      	movs	r3, #0

IPAddress TCPClient::remoteIP() {
    return d_->remoteIP;
}

TCPClient::Data::Data(sock_handle_t sock)
   d8b10:	4604      	mov	r4, r0
        : sock(sock),
          offset(0),
          total(0) {
   d8b12:	6001      	str	r1, [r0, #0]
   d8b14:	f8a0 3084 	strh.w	r3, [r0, #132]	; 0x84
   d8b18:	f8a0 3086 	strh.w	r3, [r0, #134]	; 0x86
   d8b1c:	3088      	adds	r0, #136	; 0x88
   d8b1e:	f7ff fac1 	bl	d80a4 <_ZN9IPAddressC1Ev>
}
   d8b22:	4620      	mov	r0, r4
   d8b24:	bd10      	pop	{r4, pc}
	...

000d8b28 <_ZN9TCPClientC1Ei>:
   d8b28:	f44f 727a 	mov.w	r2, #1000	; 0x3e8

TCPClient::TCPClient()
        : TCPClient(-1) {
}

TCPClient::TCPClient(sock_handle_t sock)
   d8b2c:	b570      	push	{r4, r5, r6, lr}
    size_t printf_impl(bool newline, const char* format, ...);

  public:
    Print() : write_error(0) {}
   d8b2e:	2300      	movs	r3, #0
   d8b30:	6082      	str	r2, [r0, #8]
        : d_(std::make_shared<Data>(sock)) {
   d8b32:	4a14      	ldr	r2, [pc, #80]	; (d8b84 <_ZN9TCPClientC1Ei+0x5c>)
   d8b34:	6043      	str	r3, [r0, #4]
   d8b36:	6002      	str	r2, [r0, #0]
        };

      template<typename _Alloc, typename... _Args>
	__shared_ptr(_Sp_make_shared_tag __tag, const _Alloc& __a,
		     _Args&&... __args)
	: _M_ptr(), _M_refcount()
   d8b38:	6143      	str	r3, [r0, #20]

  template<_Lock_policy _Lp>
    class __shared_count
    {
    public:
      constexpr __shared_count() noexcept : _M_pi(0)
   d8b3a:	6183      	str	r3, [r0, #24]

TCPClient::TCPClient()
        : TCPClient(-1) {
}

TCPClient::TCPClient(sock_handle_t sock)
   d8b3c:	4604      	mov	r4, r0
      allocate(size_type __n, const void* = 0)
      { 
	if (__n > this->max_size())
	  std::__throw_bad_alloc();

	return static_cast<_Tp*>(::operator new(__n * sizeof(_Tp)));
   d8b3e:	20a0      	movs	r0, #160	; 0xa0
   d8b40:	460e      	mov	r6, r1
   d8b42:	f7fb faa8 	bl	d4096 <_Znwj>

#if __cplusplus >= 201103L
      template<typename _Up, typename... _Args>
        void
        construct(_Up* __p, _Args&&... __args)
	{ ::new((void *)__p) _Up(std::forward<_Args>(__args)...); }
   d8b46:	4605      	mov	r5, r0
   d8b48:	b110      	cbz	r0, d8b50 <_ZN9TCPClientC1Ei+0x28>
   d8b4a:	4631      	mov	r1, r6
   d8b4c:	f7ff ffde 	bl	d8b0c <_ZN9TCPClient4DataC1Ei>
      allocate(size_type __n, const void* = 0)
      { 
	if (__n > this->max_size())
	  std::__throw_bad_alloc();

	return static_cast<_Tp*>(::operator new(__n * sizeof(_Tp)));
   d8b50:	2014      	movs	r0, #20
   d8b52:	f7fb faa0 	bl	d4096 <_Znwj>
	  __try
	    {
	      typename _Sp_cd_type::__allocator_type __a2(__a);
	      auto __guard = std::__allocate_guarded(__a2);
	      _Sp_cd_type* __mem = __guard.get();
	      ::new (__mem) _Sp_cd_type(__p, std::move(__d), std::move(__a));
   d8b56:	4603      	mov	r3, r0
   d8b58:	b128      	cbz	r0, d8b66 <_ZN9TCPClientC1Ei+0x3e>
    class _Sp_counted_base
    : public _Mutex_base<_Lp>
    {
    public:  
      _Sp_counted_base() noexcept
      : _M_use_count(1), _M_weak_count(1) { }
   d8b5a:	2201      	movs	r2, #1
   d8b5c:	6042      	str	r2, [r0, #4]
   d8b5e:	6082      	str	r2, [r0, #8]
      _Sp_counted_deleter(_Ptr __p, _Deleter __d) noexcept
      : _M_impl(__p, __d, _Alloc()) { }

      // __d(__p) must not throw.
      _Sp_counted_deleter(_Ptr __p, _Deleter __d, const _Alloc& __a) noexcept
      : _M_impl(__p, __d, __a) { }
   d8b60:	4a09      	ldr	r2, [pc, #36]	; (d8b88 <_ZN9TCPClientC1Ei+0x60>)
   d8b62:	6002      	str	r2, [r0, #0]
	typedef _Sp_ebo_helper<0, _Deleter>	_Del_base;
	typedef _Sp_ebo_helper<1, _Alloc>	_Alloc_base;

      public:
	_Impl(_Ptr __p, _Deleter __d, const _Alloc& __a) noexcept
	: _M_ptr(__p), _Del_base(__d), _Alloc_base(__a)
   d8b64:	6105      	str	r5, [r0, #16]

      void
      _M_swap(__shared_count& __r) noexcept
      {
	_Sp_counted_base<_Lp>* __tmp = __r._M_pi;
	__r._M_pi = _M_pi;
   d8b66:	69a0      	ldr	r0, [r4, #24]
	  __traits::construct(__del._M_alloc, __ptr,
			      std::forward<_Args>(__args)...);
	  __guard = nullptr;
	  __shared_count<_Lp> __count(__ptr, __del, __del._M_alloc);
	  _M_refcount._M_swap(__count);
	  _M_ptr = __ptr;
   d8b68:	6165      	str	r5, [r4, #20]
      void
      _M_swap(__shared_count& __r) noexcept
      {
	_Sp_counted_base<_Lp>* __tmp = __r._M_pi;
	__r._M_pi = _M_pi;
	_M_pi = __tmp;
   d8b6a:	61a3      	str	r3, [r4, #24]
      // Does not throw if __r._M_get_use_count() == 0, caller must check.
      explicit __shared_count(const __weak_count<_Lp>& __r, std::nothrow_t);

      ~__shared_count() noexcept
      {
	if (_M_pi != nullptr)
   d8b6c:	b128      	cbz	r0, d8b7a <_ZN9TCPClientC1Ei+0x52>

  template<>
    inline void
    _Sp_counted_base<_S_single>::_M_release() noexcept
    {
      if (--_M_use_count == 0)
   d8b6e:	6843      	ldr	r3, [r0, #4]
   d8b70:	3b01      	subs	r3, #1
   d8b72:	6043      	str	r3, [r0, #4]
   d8b74:	b90b      	cbnz	r3, d8b7a <_ZN9TCPClientC1Ei+0x52>
   d8b76:	f7ff fddf 	bl	d8738 <_ZNSt16_Sp_counted_baseILN9__gnu_cxx12_Lock_policyE0EE10_M_releaseEv.part.4.constprop.31>
        : d_(std::make_shared<Data>(sock)) {
    flush_buffer();
   d8b7a:	4620      	mov	r0, r4
   d8b7c:	f7ff fed0 	bl	d8920 <_ZN9TCPClient12flush_bufferEv>
}
   d8b80:	4620      	mov	r0, r4
   d8b82:	bd70      	pop	{r4, r5, r6, pc}
   d8b84:	000da848 	.word	0x000da848
   d8b88:	000da82c 	.word	0x000da82c

000d8b8c <_ZN9TCPClientC1Ev>:

static bool inline isOpen(sock_handle_t sd) {
    return socket_handle_valid(sd);
}

TCPClient::TCPClient()
   d8b8c:	b510      	push	{r4, lr}
        : TCPClient(-1) {
   d8b8e:	f04f 31ff 	mov.w	r1, #4294967295

static bool inline isOpen(sock_handle_t sd) {
    return socket_handle_valid(sd);
}

TCPClient::TCPClient()
   d8b92:	4604      	mov	r4, r0
        : TCPClient(-1) {
   d8b94:	f7ff ffc8 	bl	d8b28 <_ZN9TCPClientC1Ei>
}
   d8b98:	4620      	mov	r0, r4
   d8b9a:	bd10      	pop	{r4, pc}

000d8b9c <_ZN9TCPClient4DataD1Ev>:
        : sock(sock),
          offset(0),
          total(0) {
}

TCPClient::Data::~Data() {
   d8b9c:	b510      	push	{r4, lr}
   d8b9e:	4604      	mov	r4, r0
    if (socket_handle_valid(sock)) {
   d8ba0:	6800      	ldr	r0, [r0, #0]
   d8ba2:	2800      	cmp	r0, #0
   d8ba4:	db01      	blt.n	d8baa <_ZN9TCPClient4DataD1Ev+0xe>
        sock_close(sock);
   d8ba6:	f7fe fd1d 	bl	d75e4 <sock_close>
    }
}
   d8baa:	4620      	mov	r0, r4
   d8bac:	bd10      	pop	{r4, pc}

000d8bae <_ZNSt19_Sp_counted_deleterIPN9TCPClient4DataENSt12__shared_ptrIS1_LN9__gnu_cxx12_Lock_policyE0EE8_DeleterISaIS1_EEES8_LS5_0EE10_M_disposeEv>:
      : _M_impl(__p, __d, __a) { }

      ~_Sp_counted_deleter() noexcept { }

      virtual void
      _M_dispose() noexcept
   d8bae:	b510      	push	{r4, lr}
      { _M_impl._M_del()(_M_impl._M_ptr); }
   d8bb0:	6904      	ldr	r4, [r0, #16]
        construct(_Up* __p, _Args&&... __args)
	{ ::new((void *)__p) _Up(std::forward<_Args>(__args)...); }

      template<typename _Up>
        void 
        destroy(_Up* __p) { __p->~_Up(); }
   d8bb2:	4620      	mov	r0, r4
   d8bb4:	f7ff fff2 	bl	d8b9c <_ZN9TCPClient4DataD1Ev>
      { __gd._M_ptr = nullptr; }

      /// Deallocate the owned pointer
      ~__allocated_ptr()
      {
	if (_M_ptr != nullptr)
   d8bb8:	b124      	cbz	r4, d8bc4 <_ZNSt19_Sp_counted_deleterIPN9TCPClient4DataENSt12__shared_ptrIS1_LN9__gnu_cxx12_Lock_policyE0EE8_DeleterISaIS1_EEES8_LS5_0EE10_M_disposeEv+0x16>
      }

      // __p is not permitted to be a null pointer.
      void
      deallocate(pointer __p, size_type)
      { ::operator delete(__p); }
   d8bba:	4620      	mov	r0, r4
   d8bbc:	e8bd 4010 	ldmia.w	sp!, {r4, lr}
   d8bc0:	f7fb ba6b 	b.w	d409a <_ZdlPv>
   d8bc4:	bd10      	pop	{r4, pc}

000d8bc6 <_ZN5spark9WiFiClass5readyEv>:
    bool connecting(void) {
        return network_connecting(*this, 0, NULL);
    }

    bool ready(void) {
        return network_ready(*this, 0, NULL);
   d8bc6:	2200      	movs	r2, #0
   d8bc8:	4611      	mov	r1, r2
   d8bca:	6840      	ldr	r0, [r0, #4]
   d8bcc:	f7fe bdc6 	b.w	d775c <network_ready>

000d8bd0 <_ZN5spark9WiFiClass9listeningEv>:
    uint16_t getListenTimeout(void) {
        return network_get_listen_timeout(*this, 0, NULL);
    }

    bool listening(void) {
        return network_listening(*this, 0, NULL);
   d8bd0:	2200      	movs	r2, #0
   d8bd2:	4611      	mov	r1, r2
   d8bd4:	6840      	ldr	r0, [r0, #4]
   d8bd6:	f7fe bde1 	b.w	d779c <network_listening>

000d8bda <_ZN5spark9WiFiClass16getListenTimeoutEv>:
        network_set_listen_timeout(*this, timeout, NULL);
    }
    inline void setListenTimeout(std::chrono::seconds s) { setListenTimeout(s.count()); }

    uint16_t getListenTimeout(void) {
        return network_get_listen_timeout(*this, 0, NULL);
   d8bda:	2200      	movs	r2, #0
   d8bdc:	4611      	mov	r1, r2
   d8bde:	6840      	ldr	r0, [r0, #4]
   d8be0:	f7fe bdec 	b.w	d77bc <network_get_listen_timeout>

000d8be4 <_ZN5spark9WiFiClass16setListenTimeoutEt>:
    void listen(bool begin=true) {
        network_listen(*this, begin ? 0 : 1, NULL);
    }

    void setListenTimeout(uint16_t timeout) {
        network_set_listen_timeout(*this, timeout, NULL);
   d8be4:	2200      	movs	r2, #0
   d8be6:	6840      	ldr	r0, [r0, #4]
   d8be8:	f7fe bde0 	b.w	d77ac <network_set_listen_timeout>

000d8bec <_ZN5spark9WiFiClass6listenEb>:
    void off(void) {
        network_off(*this, 0, 0, NULL);
    }

    void listen(bool begin=true) {
        network_listen(*this, begin ? 0 : 1, NULL);
   d8bec:	2200      	movs	r2, #0
   d8bee:	f081 0101 	eor.w	r1, r1, #1
   d8bf2:	6840      	ldr	r0, [r0, #4]
   d8bf4:	f7fe bdca 	b.w	d778c <network_listen>

000d8bf8 <_ZN5spark9WiFiClass3offEv>:
    void on(void) {
        network_on(*this, 0, 0, NULL);
    }

    void off(void) {
        network_off(*this, 0, 0, NULL);
   d8bf8:	2300      	movs	r3, #0
   d8bfa:	461a      	mov	r2, r3
   d8bfc:	4619      	mov	r1, r3
   d8bfe:	6840      	ldr	r0, [r0, #4]
   d8c00:	f7fe bdbc 	b.w	d777c <network_off>

000d8c04 <_ZN5spark9WiFiClass2onEv>:
    bool ready(void) {
        return network_ready(*this, 0, NULL);
    }

    void on(void) {
        network_on(*this, 0, 0, NULL);
   d8c04:	2300      	movs	r3, #0
   d8c06:	461a      	mov	r2, r3
   d8c08:	4619      	mov	r1, r3
   d8c0a:	6840      	ldr	r0, [r0, #4]
   d8c0c:	f7fe bdae 	b.w	d776c <network_on>

000d8c10 <_ZN5spark9WiFiClass10connectingEv>:
    void disconnect(void) {
        network_disconnect(*this, NETWORK_DISCONNECT_REASON_USER, NULL);
    }

    bool connecting(void) {
        return network_connecting(*this, 0, NULL);
   d8c10:	2200      	movs	r2, #0
   d8c12:	4611      	mov	r1, r2
   d8c14:	6840      	ldr	r0, [r0, #4]
   d8c16:	f7fe bd91 	b.w	d773c <network_connecting>

000d8c1a <_ZN5spark9WiFiClass10disconnectEv>:
    void connect(unsigned flags=0) {
        network_connect(*this, flags, 0, NULL);
    }

    void disconnect(void) {
        network_disconnect(*this, NETWORK_DISCONNECT_REASON_USER, NULL);
   d8c1a:	2200      	movs	r2, #0
   d8c1c:	2102      	movs	r1, #2
   d8c1e:	6840      	ldr	r0, [r0, #4]
   d8c20:	f7fe bd94 	b.w	d774c <network_disconnect>

000d8c24 <_ZN5spark9WiFiClass7connectEj>:
    uint32_t ping(IPAddress remoteIP, uint8_t nTries) {
        return inet_ping(&remoteIP.raw(), *this, nTries, NULL);
    }

    void connect(unsigned flags=0) {
        network_connect(*this, flags, 0, NULL);
   d8c24:	2300      	movs	r3, #0
   d8c26:	461a      	mov	r2, r3
   d8c28:	6840      	ldr	r0, [r0, #4]
   d8c2a:	f7fe bd7f 	b.w	d772c <network_connect>
	...

000d8c30 <_GLOBAL__sub_I__ZN10WiFiSignalC2ERK21wlan_connected_info_t>:
   d8c30:	4b02      	ldr	r3, [pc, #8]	; (d8c3c <_GLOBAL__sub_I__ZN10WiFiSignalC2ERK21wlan_connected_info_t+0xc>)
   d8c32:	2204      	movs	r2, #4
   d8c34:	605a      	str	r2, [r3, #4]
        wlan_set_ipaddress_source(source, true, NULL);
    }

public:
    WiFiClass() :
            NetworkClass(NETWORK_INTERFACE_WIFI_STA) {
   d8c36:	4a02      	ldr	r2, [pc, #8]	; (d8c40 <_GLOBAL__sub_I__ZN10WiFiSignalC2ERK21wlan_connected_info_t+0x10>)
   d8c38:	601a      	str	r2, [r3, #0]
   d8c3a:	4770      	bx	lr
   d8c3c:	2003e6f8 	.word	0x2003e6f8
   d8c40:	000da8ac 	.word	0x000da8ac

000d8c44 <_ZN5spark12NetworkClass7connectEj>:
        return Network;
    }
}

void NetworkClass::connect(unsigned flags) {
    network_connect(*this, flags, 0, nullptr);
   d8c44:	2300      	movs	r3, #0
   d8c46:	461a      	mov	r2, r3
   d8c48:	6840      	ldr	r0, [r0, #4]
   d8c4a:	f7fe bd6f 	b.w	d772c <network_connect>

000d8c4e <_ZN5spark12NetworkClass10disconnectEv>:
}

void NetworkClass::disconnect() {
    network_disconnect(*this, NETWORK_DISCONNECT_REASON_USER, nullptr);
   d8c4e:	2200      	movs	r2, #0
   d8c50:	2102      	movs	r1, #2
   d8c52:	6840      	ldr	r0, [r0, #4]
   d8c54:	f7fe bd7a 	b.w	d774c <network_disconnect>

000d8c58 <_ZN5spark12NetworkClass10connectingEv>:
}

bool NetworkClass::connecting() {
    return network_connecting(*this, 0, nullptr);
   d8c58:	2200      	movs	r2, #0
   d8c5a:	4611      	mov	r1, r2
   d8c5c:	6840      	ldr	r0, [r0, #4]
   d8c5e:	f7fe bd6d 	b.w	d773c <network_connecting>

000d8c62 <_ZN5spark12NetworkClass5readyEv>:
}

bool NetworkClass::ready() {
    return network_ready(*this, 0, nullptr);
   d8c62:	2200      	movs	r2, #0
   d8c64:	4611      	mov	r1, r2
   d8c66:	6840      	ldr	r0, [r0, #4]
   d8c68:	f7fe bd78 	b.w	d775c <network_ready>

000d8c6c <_ZN5spark12NetworkClass2onEv>:
}

void NetworkClass::on() {
    network_on(*this, 0, 0, nullptr);
   d8c6c:	2300      	movs	r3, #0
   d8c6e:	461a      	mov	r2, r3
   d8c70:	4619      	mov	r1, r3
   d8c72:	6840      	ldr	r0, [r0, #4]
   d8c74:	f7fe bd7a 	b.w	d776c <network_on>

000d8c78 <_ZN5spark12NetworkClass3offEv>:
}

void NetworkClass::off() {
    network_off(*this, 0, 0, nullptr);
   d8c78:	2300      	movs	r3, #0
   d8c7a:	461a      	mov	r2, r3
   d8c7c:	4619      	mov	r1, r3
   d8c7e:	6840      	ldr	r0, [r0, #4]
   d8c80:	f7fe bd7c 	b.w	d777c <network_off>

000d8c84 <_ZN5spark12NetworkClass6listenEb>:
}

void NetworkClass::listen(bool begin) {
    network_listen(*this, begin ? 0 : 1, nullptr);
   d8c84:	2200      	movs	r2, #0
   d8c86:	f081 0101 	eor.w	r1, r1, #1
   d8c8a:	6840      	ldr	r0, [r0, #4]
   d8c8c:	f7fe bd7e 	b.w	d778c <network_listen>

000d8c90 <_ZN5spark12NetworkClass16setListenTimeoutEt>:
}

void NetworkClass::setListenTimeout(uint16_t timeout) {
    network_set_listen_timeout(*this, timeout, nullptr);
   d8c90:	2200      	movs	r2, #0
   d8c92:	6840      	ldr	r0, [r0, #4]
   d8c94:	f7fe bd8a 	b.w	d77ac <network_set_listen_timeout>

000d8c98 <_ZN5spark12NetworkClass16getListenTimeoutEv>:
}

uint16_t NetworkClass::getListenTimeout() {
    return network_get_listen_timeout(*this, 0, nullptr);
   d8c98:	2200      	movs	r2, #0
   d8c9a:	4611      	mov	r1, r2
   d8c9c:	6840      	ldr	r0, [r0, #4]
   d8c9e:	f7fe bd8d 	b.w	d77bc <network_get_listen_timeout>

000d8ca2 <_ZN5spark12NetworkClass9listeningEv>:
}

bool NetworkClass::listening() {
    return network_listening(*this, 0, nullptr);
   d8ca2:	2200      	movs	r2, #0
   d8ca4:	4611      	mov	r1, r2
   d8ca6:	6840      	ldr	r0, [r0, #4]
   d8ca8:	f7fe bd78 	b.w	d779c <network_listening>

000d8cac <_ZN5spark12NetworkClass7resolveEPKc>:
}

IPAddress NetworkClass::resolve(const char* name) {
   d8cac:	e92d 43f0 	stmdb	sp!, {r4, r5, r6, r7, r8, r9, lr}
    IPAddress addr;
#if HAL_USE_INET_HAL_POSIX
    struct addrinfo *ai = nullptr;
   d8cb0:	2400      	movs	r4, #0

bool NetworkClass::listening() {
    return network_listening(*this, 0, nullptr);
}

IPAddress NetworkClass::resolve(const char* name) {
   d8cb2:	b095      	sub	sp, #84	; 0x54
   d8cb4:	4616      	mov	r6, r2
   d8cb6:	460d      	mov	r5, r1
   d8cb8:	4607      	mov	r7, r0
    IPAddress addr;
   d8cba:	f7ff f9f3 	bl	d80a4 <_ZN9IPAddressC1Ev>
#if HAL_USE_INET_HAL_POSIX
    struct addrinfo *ai = nullptr;
    struct addrinfo hints = {};
   d8cbe:	4621      	mov	r1, r4
   d8cc0:	2220      	movs	r2, #32
   d8cc2:	a80c      	add	r0, sp, #48	; 0x30
}

IPAddress NetworkClass::resolve(const char* name) {
    IPAddress addr;
#if HAL_USE_INET_HAL_POSIX
    struct addrinfo *ai = nullptr;
   d8cc4:	9400      	str	r4, [sp, #0]
    struct addrinfo hints = {};
   d8cc6:	f000 fda9 	bl	d981c <memset>
    hints.ai_flags = AI_ADDRCONFIG;
   d8cca:	2340      	movs	r3, #64	; 0x40
   d8ccc:	930c      	str	r3, [sp, #48]	; 0x30
    hints.ai_family = AF_UNSPEC;
    const int r = getaddrinfo(name, nullptr, &hints, &ai);
   d8cce:	4621      	mov	r1, r4
   d8cd0:	466b      	mov	r3, sp
   d8cd2:	aa0c      	add	r2, sp, #48	; 0x30
   d8cd4:	4630      	mov	r0, r6
   d8cd6:	f7fe fac5 	bl	d7264 <netdb_getaddrinfo>
    if (!r) {
   d8cda:	4604      	mov	r4, r0
   d8cdc:	2800      	cmp	r0, #0
   d8cde:	d144      	bne.n	d8d6a <_ZN5spark12NetworkClass7resolveEPKc+0xbe>
        bool ok = false;
        // This is not really needed if AI_ADDRCONFIG is properly supported
        bool ipv4 = network_ready(*this, NETWORK_READY_TYPE_IPV4, nullptr);
   d8ce0:	4602      	mov	r2, r0
   d8ce2:	2101      	movs	r1, #1
   d8ce4:	6868      	ldr	r0, [r5, #4]
   d8ce6:	f7fe fd39 	bl	d775c <network_ready>
        bool ipv6 = network_ready(*this, NETWORK_READY_TYPE_IPV6, nullptr);
   d8cea:	2102      	movs	r1, #2
    hints.ai_family = AF_UNSPEC;
    const int r = getaddrinfo(name, nullptr, &hints, &ai);
    if (!r) {
        bool ok = false;
        // This is not really needed if AI_ADDRCONFIG is properly supported
        bool ipv4 = network_ready(*this, NETWORK_READY_TYPE_IPV4, nullptr);
   d8cec:	4680      	mov	r8, r0
        bool ipv6 = network_ready(*this, NETWORK_READY_TYPE_IPV6, nullptr);
   d8cee:	4622      	mov	r2, r4
   d8cf0:	6868      	ldr	r0, [r5, #4]
   d8cf2:	f7fe fd33 	bl	d775c <network_ready>
        for (auto cur = ai; cur != nullptr && !ok; cur = cur->ai_next) {
   d8cf6:	9e00      	ldr	r6, [sp, #0]
    const int r = getaddrinfo(name, nullptr, &hints, &ai);
    if (!r) {
        bool ok = false;
        // This is not really needed if AI_ADDRCONFIG is properly supported
        bool ipv4 = network_ready(*this, NETWORK_READY_TYPE_IPV4, nullptr);
        bool ipv6 = network_ready(*this, NETWORK_READY_TYPE_IPV6, nullptr);
   d8cf8:	4681      	mov	r9, r0
    struct addrinfo hints = {};
    hints.ai_flags = AI_ADDRCONFIG;
    hints.ai_family = AF_UNSPEC;
    const int r = getaddrinfo(name, nullptr, &hints, &ai);
    if (!r) {
        bool ok = false;
   d8cfa:	4621      	mov	r1, r4
        // This is not really needed if AI_ADDRCONFIG is properly supported
        bool ipv4 = network_ready(*this, NETWORK_READY_TYPE_IPV4, nullptr);
        bool ipv6 = network_ready(*this, NETWORK_READY_TYPE_IPV6, nullptr);
        for (auto cur = ai; cur != nullptr && !ok; cur = cur->ai_next) {
   d8cfc:	2e00      	cmp	r6, #0
   d8cfe:	d034      	beq.n	d8d6a <_ZN5spark12NetworkClass7resolveEPKc+0xbe>
   d8d00:	2900      	cmp	r1, #0
   d8d02:	d132      	bne.n	d8d6a <_ZN5spark12NetworkClass7resolveEPKc+0xbe>
            // NOTE: using only the first entry that matches the current state of IPv4/IPv6 connectivity
            switch (cur->ai_family) {
   d8d04:	6873      	ldr	r3, [r6, #4]
   d8d06:	2b02      	cmp	r3, #2
   d8d08:	d002      	beq.n	d8d10 <_ZN5spark12NetworkClass7resolveEPKc+0x64>
   d8d0a:	2b0a      	cmp	r3, #10
   d8d0c:	d009      	beq.n	d8d22 <_ZN5spark12NetworkClass7resolveEPKc+0x76>
   d8d0e:	e02a      	b.n	d8d66 <_ZN5spark12NetworkClass7resolveEPKc+0xba>
                case AF_INET: {
                    if (!ipv4) {
   d8d10:	f1b8 0f00 	cmp.w	r8, #0
   d8d14:	d027      	beq.n	d8d66 <_ZN5spark12NetworkClass7resolveEPKc+0xba>
                        continue;
                    }
                    // NOTE: HAL_IPAddress is little-endian
                    auto in = (struct sockaddr_in*)cur->ai_addr;
                    addr = (const uint8_t*)(&in->sin_addr.s_addr);
   d8d16:	6971      	ldr	r1, [r6, #20]
   d8d18:	4638      	mov	r0, r7
   d8d1a:	3104      	adds	r1, #4
   d8d1c:	f7ff fa05 	bl	d812a <_ZN9IPAddressaSEPKh>
   d8d20:	e020      	b.n	d8d64 <_ZN5spark12NetworkClass7resolveEPKc+0xb8>
                    ok = true;
                    break;
                }
                case AF_INET6: {
                    if (!ipv6) {
   d8d22:	f1b9 0f00 	cmp.w	r9, #0
   d8d26:	d01e      	beq.n	d8d66 <_ZN5spark12NetworkClass7resolveEPKc+0xba>
                        continue;
                    }
                    auto in6 = (struct sockaddr_in6*)cur->ai_addr;
   d8d28:	6974      	ldr	r4, [r6, #20]
                    HAL_IPAddress a = {};
   d8d2a:	2211      	movs	r2, #17
   d8d2c:	a801      	add	r0, sp, #4
   d8d2e:	f000 fd75 	bl	d981c <memset>
                    a.v = 6;
   d8d32:	2306      	movs	r3, #6
   d8d34:	f88d 3014 	strb.w	r3, [sp, #20]
                    memcpy(a.ipv6, in6->sin6_addr.s6_addr, sizeof(a.ipv6));
   d8d38:	ad01      	add	r5, sp, #4
   d8d3a:	f104 0308 	add.w	r3, r4, #8
   d8d3e:	3418      	adds	r4, #24
   d8d40:	6818      	ldr	r0, [r3, #0]
   d8d42:	6859      	ldr	r1, [r3, #4]
   d8d44:	462a      	mov	r2, r5
   d8d46:	c203      	stmia	r2!, {r0, r1}
   d8d48:	3308      	adds	r3, #8
   d8d4a:	42a3      	cmp	r3, r4
   d8d4c:	4615      	mov	r5, r2
   d8d4e:	d1f7      	bne.n	d8d40 <_ZN5spark12NetworkClass7resolveEPKc+0x94>
                    addr = IPAddress(a);
   d8d50:	a901      	add	r1, sp, #4
   d8d52:	a806      	add	r0, sp, #24

/**
 * The IP address stored in host order.
 *
 */
class IPAddress : public Printable {
   d8d54:	ad07      	add	r5, sp, #28
   d8d56:	f7ff f9b3 	bl	d80c0 <_ZN9IPAddressC1ERK16_HAL_IPAddress_t>
   d8d5a:	cd0f      	ldmia	r5!, {r0, r1, r2, r3}
   d8d5c:	1d3c      	adds	r4, r7, #4
   d8d5e:	c40f      	stmia	r4!, {r0, r1, r2, r3}
   d8d60:	682b      	ldr	r3, [r5, #0]
   d8d62:	7023      	strb	r3, [r4, #0]
                    ok = true;
   d8d64:	2101      	movs	r1, #1
    if (!r) {
        bool ok = false;
        // This is not really needed if AI_ADDRCONFIG is properly supported
        bool ipv4 = network_ready(*this, NETWORK_READY_TYPE_IPV4, nullptr);
        bool ipv6 = network_ready(*this, NETWORK_READY_TYPE_IPV6, nullptr);
        for (auto cur = ai; cur != nullptr && !ok; cur = cur->ai_next) {
   d8d66:	69f6      	ldr	r6, [r6, #28]
   d8d68:	e7c8      	b.n	d8cfc <_ZN5spark12NetworkClass7resolveEPKc+0x50>
                    break;
                }
            }
        }
    }
    freeaddrinfo(ai);
   d8d6a:	9800      	ldr	r0, [sp, #0]
   d8d6c:	f7fe fa72 	bl	d7254 <netdb_freeaddrinfo>
    return Cellular.resolve(name);
#endif // Wiring_Cellular

#endif // HAL_USE_INET_HAL_POSIX
    return addr;
}
   d8d70:	4638      	mov	r0, r7
   d8d72:	b015      	add	sp, #84	; 0x54
   d8d74:	e8bd 83f0 	ldmia.w	sp!, {r4, r5, r6, r7, r8, r9, pc}

000d8d78 <_GLOBAL__sub_I__ZN5spark7NetworkE>:
   d8d78:	4b02      	ldr	r3, [pc, #8]	; (d8d84 <_GLOBAL__sub_I__ZN5spark7NetworkE+0xc>)
   d8d7a:	4a03      	ldr	r2, [pc, #12]	; (d8d88 <_GLOBAL__sub_I__ZN5spark7NetworkE+0x10>)
   d8d7c:	601a      	str	r2, [r3, #0]
   d8d7e:	2200      	movs	r2, #0
   d8d80:	605a      	str	r2, [r3, #4]
   d8d82:	4770      	bx	lr
   d8d84:	2003e700 	.word	0x2003e700
   d8d88:	000da8e0 	.word	0x000da8e0

000d8d8c <pinAvailable>:

/*
 * @brief Perform safety check on desired pin to see if it's already
 * being used.  Return 0 if used, otherwise return 1 if available.
 */
bool pinAvailable(uint16_t pin) {
   d8d8c:	b570      	push	{r4, r5, r6, lr}

template <HAL_SPI_Interface Interface>
class SpiProxy {
public:
    static SPIClass& instance() {
        static SPIClass instance(Interface);
   d8d8e:	4e18      	ldr	r6, [pc, #96]	; (d8df0 <pinAvailable+0x64>)
   d8d90:	6831      	ldr	r1, [r6, #0]
   d8d92:	f011 0501 	ands.w	r5, r1, #1
   d8d96:	4604      	mov	r4, r0
   d8d98:	d10a      	bne.n	d8db0 <pinAvailable+0x24>
   d8d9a:	4630      	mov	r0, r6
   d8d9c:	f7fb f98c 	bl	d40b8 <__cxa_guard_acquire>
   d8da0:	b130      	cbz	r0, d8db0 <pinAvailable+0x24>
   d8da2:	4629      	mov	r1, r5
   d8da4:	4813      	ldr	r0, [pc, #76]	; (d8df4 <pinAvailable+0x68>)
   d8da6:	f7fe fdbd 	bl	d7924 <_ZN8SPIClassC1E17HAL_SPI_Interface>
   d8daa:	4630      	mov	r0, r6
   d8dac:	f7fb f989 	bl	d40c2 <__cxa_guard_release>
    }
    void detachInterrupt() {
        instance().detachInterrupt();
    }
    bool isEnabled(void) {
        return instance().isEnabled();
   d8db0:	4810      	ldr	r0, [pc, #64]	; (d8df4 <pinAvailable+0x68>)
   d8db2:	f7fe fe74 	bl	d7a9e <_ZN8SPIClass9isEnabledEv>

  // SPI safety check
#ifndef SPARK_WIRING_NO_SPI
  if(SPI.isEnabled() == true && (pin == SCK || pin == MOSI || pin == MISO))
   d8db6:	b128      	cbz	r0, d8dc4 <pinAvailable+0x38>
   d8db8:	f1a4 030b 	sub.w	r3, r4, #11
   d8dbc:	2b02      	cmp	r3, #2
   d8dbe:	d801      	bhi.n	d8dc4 <pinAvailable+0x38>
  {
    return 0; // 'pin' is used
   d8dc0:	2000      	movs	r0, #0
   d8dc2:	bd70      	pop	{r4, r5, r6, pc}
  }
#endif
  // I2C safety check
#ifndef SPARK_WIRING_NO_I2C
  if(Wire.isEnabled() == true && (pin == SCL || pin == SDA))
   d8dc4:	f000 f886 	bl	d8ed4 <_Z19__fetch_global_Wirev>
   d8dc8:	f7ff fb74 	bl	d84b4 <_ZN7TwoWire9isEnabledEv>
   d8dcc:	b108      	cbz	r0, d8dd2 <pinAvailable+0x46>
   d8dce:	2c01      	cmp	r4, #1
   d8dd0:	d9f6      	bls.n	d8dc0 <pinAvailable+0x34>
    return 0; // 'pin' is used
  }
#endif
#ifndef SPARK_WIRING_NO_USART_SERIAL
  // Serial1 safety check
  if(Serial1.isEnabled() == true && (pin == RX || pin == TX))
   d8dd2:	f7ff fac9 	bl	d8368 <_Z22__fetch_global_Serial1v>
   d8dd6:	f7ff fac4 	bl	d8362 <_ZN11USARTSerial9isEnabledEv>
   d8dda:	b118      	cbz	r0, d8de4 <pinAvailable+0x58>
   d8ddc:	f1a4 0309 	sub.w	r3, r4, #9
   d8de0:	2b01      	cmp	r3, #1
   d8de2:	d9ed      	bls.n	d8dc0 <pinAvailable+0x34>
  {
    return 0; // 'pin' is used
  }
#endif

  if (pin >= TOTAL_PINS)
   d8de4:	2c23      	cmp	r4, #35	; 0x23
   d8de6:	bf8c      	ite	hi
   d8de8:	2000      	movhi	r0, #0
   d8dea:	2001      	movls	r0, #1
    return 0;
  else
    return 1; // 'pin' is available
}
   d8dec:	bd70      	pop	{r4, r5, r6, pc}
   d8dee:	bf00      	nop
   d8df0:	2003dcdc 	.word	0x2003dcdc
   d8df4:	2003dce0 	.word	0x2003dce0

000d8df8 <pinMode>:
 * or INPUT_PULLDOWN
 */
void pinMode(uint16_t pin, PinMode setMode)
{

  if(pin >= TOTAL_PINS || setMode == PIN_MODE_NONE )
   d8df8:	2823      	cmp	r0, #35	; 0x23
/*
 * @brief Set the mode of the pin to OUTPUT, INPUT, INPUT_PULLUP,
 * or INPUT_PULLDOWN
 */
void pinMode(uint16_t pin, PinMode setMode)
{
   d8dfa:	b538      	push	{r3, r4, r5, lr}
   d8dfc:	4604      	mov	r4, r0
   d8dfe:	460d      	mov	r5, r1

  if(pin >= TOTAL_PINS || setMode == PIN_MODE_NONE )
   d8e00:	d80a      	bhi.n	d8e18 <pinMode+0x20>
   d8e02:	29ff      	cmp	r1, #255	; 0xff
   d8e04:	d008      	beq.n	d8e18 <pinMode+0x20>
  {
    return;
  }

  // Safety check
  if( !pinAvailable(pin) ) {
   d8e06:	f7ff ffc1 	bl	d8d8c <pinAvailable>
   d8e0a:	b128      	cbz	r0, d8e18 <pinMode+0x20>
    return;
  }

  HAL_Pin_Mode(pin, setMode);
   d8e0c:	4629      	mov	r1, r5
   d8e0e:	4620      	mov	r0, r4
}
   d8e10:	e8bd 4038 	ldmia.w	sp!, {r3, r4, r5, lr}
  // Safety check
  if( !pinAvailable(pin) ) {
    return;
  }

  HAL_Pin_Mode(pin, setMode);
   d8e14:	f7fe ba3e 	b.w	d7294 <HAL_Pin_Mode>
   d8e18:	bd38      	pop	{r3, r4, r5, pc}

000d8e1a <digitalWrite>:

/*
 * @brief Sets a GPIO pin to HIGH or LOW.
 */
void digitalWrite(pin_t pin, uint8_t value)
{
   d8e1a:	b538      	push	{r3, r4, r5, lr}
   d8e1c:	4604      	mov	r4, r0
   d8e1e:	460d      	mov	r5, r1
    PinMode mode = HAL_Get_Pin_Mode(pin);
   d8e20:	f7fe fa40 	bl	d72a4 <HAL_Get_Pin_Mode>
    if (mode==PIN_MODE_NONE || is_input_mode(mode))
   d8e24:	28ff      	cmp	r0, #255	; 0xff
   d8e26:	d010      	beq.n	d8e4a <digitalWrite+0x30>
}

inline bool is_input_mode(PinMode mode) {
    return  mode == INPUT ||
            mode == INPUT_PULLUP ||
            mode == INPUT_PULLDOWN ||
   d8e28:	2806      	cmp	r0, #6
   d8e2a:	d804      	bhi.n	d8e36 <digitalWrite+0x1c>
   d8e2c:	234d      	movs	r3, #77	; 0x4d
   d8e2e:	fa23 f000 	lsr.w	r0, r3, r0
   d8e32:	07c3      	lsls	r3, r0, #31
   d8e34:	d409      	bmi.n	d8e4a <digitalWrite+0x30>
{
    PinMode mode = HAL_Get_Pin_Mode(pin);
    if (mode==PIN_MODE_NONE || is_input_mode(mode))
        return;
  // Safety check
  if( !pinAvailable(pin) ) {
   d8e36:	4620      	mov	r0, r4
   d8e38:	f7ff ffa8 	bl	d8d8c <pinAvailable>
   d8e3c:	b128      	cbz	r0, d8e4a <digitalWrite+0x30>
    return;
  }

  HAL_GPIO_Write(pin, value);
   d8e3e:	4629      	mov	r1, r5
   d8e40:	4620      	mov	r0, r4
}
   d8e42:	e8bd 4038 	ldmia.w	sp!, {r3, r4, r5, lr}
  // Safety check
  if( !pinAvailable(pin) ) {
    return;
  }

  HAL_GPIO_Write(pin, value);
   d8e46:	f7fe ba35 	b.w	d72b4 <HAL_GPIO_Write>
   d8e4a:	bd38      	pop	{r3, r4, r5, pc}

000d8e4c <digitalRead>:

/*
 * @brief Reads the value of a GPIO pin. Should return either 1 (HIGH) or 0 (LOW).
 */
int32_t digitalRead(pin_t pin)
{
   d8e4c:	b510      	push	{r4, lr}
   d8e4e:	4604      	mov	r4, r0
    PinMode mode = HAL_Get_Pin_Mode(pin);
   d8e50:	f7fe fa28 	bl	d72a4 <HAL_Get_Pin_Mode>
    if (is_af_output_mode(mode))
   d8e54:	3804      	subs	r0, #4
   d8e56:	b2c0      	uxtb	r0, r0
   d8e58:	2801      	cmp	r0, #1
   d8e5a:	d908      	bls.n	d8e6e <digitalRead+0x22>
        return LOW;

    // Safety check
    if( !pinAvailable(pin) ) {
   d8e5c:	4620      	mov	r0, r4
   d8e5e:	f7ff ff95 	bl	d8d8c <pinAvailable>
   d8e62:	b120      	cbz	r0, d8e6e <digitalRead+0x22>
      return LOW;
    }

    return HAL_GPIO_Read(pin);
   d8e64:	4620      	mov	r0, r4
}
   d8e66:	e8bd 4010 	ldmia.w	sp!, {r4, lr}
    // Safety check
    if( !pinAvailable(pin) ) {
      return LOW;
    }

    return HAL_GPIO_Read(pin);
   d8e6a:	f7fe ba2b 	b.w	d72c4 <HAL_GPIO_Read>
}
   d8e6e:	2000      	movs	r0, #0
   d8e70:	bd10      	pop	{r4, pc}

000d8e72 <analogRead>:
 * Note: ADC is 12-bit. Currently it returns 0-4095
 */
int32_t analogRead(pin_t pin)
{
  // Allow people to use 0-7 to define analog pins by checking to see if the values are too low.
  if(pin < FIRST_ANALOG_PIN)
   d8e72:	280d      	cmp	r0, #13
 * @brief Read the analog value of a pin.
 * Should return a 16-bit value, 0-65536 (0 = LOW, 65536 = HIGH)
 * Note: ADC is 12-bit. Currently it returns 0-4095
 */
int32_t analogRead(pin_t pin)
{
   d8e74:	b510      	push	{r4, lr}
   d8e76:	4604      	mov	r4, r0
  // Allow people to use 0-7 to define analog pins by checking to see if the values are too low.
  if(pin < FIRST_ANALOG_PIN)
  {
    pin = pin + FIRST_ANALOG_PIN;
   d8e78:	bf9c      	itt	ls
   d8e7a:	340e      	addls	r4, #14
   d8e7c:	b2a4      	uxthls	r4, r4
  }

  // Safety check
  if( !pinAvailable(pin) ) {
   d8e7e:	4620      	mov	r0, r4
   d8e80:	f7ff ff84 	bl	d8d8c <pinAvailable>
   d8e84:	b150      	cbz	r0, d8e9c <analogRead+0x2a>
    return LOW;
  }

  if(HAL_Validate_Pin_Function(pin, PF_ADC)!=PF_ADC)
   d8e86:	2103      	movs	r1, #3
   d8e88:	4620      	mov	r0, r4
   d8e8a:	f7fe f9fb 	bl	d7284 <HAL_Validate_Pin_Function>
   d8e8e:	2803      	cmp	r0, #3
   d8e90:	d104      	bne.n	d8e9c <analogRead+0x2a>
  {
    return LOW;
  }

  return HAL_ADC_Read(pin);
   d8e92:	4620      	mov	r0, r4
}
   d8e94:	e8bd 4010 	ldmia.w	sp!, {r4, lr}
  if(HAL_Validate_Pin_Function(pin, PF_ADC)!=PF_ADC)
  {
    return LOW;
  }

  return HAL_ADC_Read(pin);
   d8e98:	f7fe ba2c 	b.w	d72f4 <HAL_ADC_Read>
}
   d8e9c:	2000      	movs	r0, #0
   d8e9e:	bd10      	pop	{r4, pc}

000d8ea0 <_Z17acquireWireBufferv>:
   d8ea0:	b570      	push	{r4, r5, r6, lr}
   d8ea2:	4604      	mov	r4, r0
   d8ea4:	2514      	movs	r5, #20
   d8ea6:	462a      	mov	r2, r5
   d8ea8:	4e09      	ldr	r6, [pc, #36]	; (d8ed0 <_Z17acquireWireBufferv+0x30>)
   d8eaa:	2100      	movs	r1, #0
   d8eac:	f000 fcb6 	bl	d981c <memset>
   d8eb0:	8025      	strh	r5, [r4, #0]
   d8eb2:	2520      	movs	r5, #32
   d8eb4:	4631      	mov	r1, r6
   d8eb6:	60a5      	str	r5, [r4, #8]
   d8eb8:	6125      	str	r5, [r4, #16]
   d8eba:	4628      	mov	r0, r5
   d8ebc:	f000 f840 	bl	d8f40 <_ZnajRKSt9nothrow_t>
   d8ec0:	4631      	mov	r1, r6
   d8ec2:	6060      	str	r0, [r4, #4]
   d8ec4:	4628      	mov	r0, r5
   d8ec6:	f000 f83b 	bl	d8f40 <_ZnajRKSt9nothrow_t>
   d8eca:	60e0      	str	r0, [r4, #12]
   d8ecc:	4620      	mov	r0, r4
   d8ece:	bd70      	pop	{r4, r5, r6, pc}
   d8ed0:	000da90c 	.word	0x000da90c

000d8ed4 <_Z19__fetch_global_Wirev>:
	return defaultWireConfig();
}
#endif

TwoWire& __fetch_global_Wire()
{
   d8ed4:	b530      	push	{r4, r5, lr}
	static TwoWire wire(HAL_I2C_INTERFACE1, acquireWireBuffer());
   d8ed6:	4d0e      	ldr	r5, [pc, #56]	; (d8f10 <_Z19__fetch_global_Wirev+0x3c>)
   d8ed8:	6829      	ldr	r1, [r5, #0]
   d8eda:	f011 0401 	ands.w	r4, r1, #1
	return defaultWireConfig();
}
#endif

TwoWire& __fetch_global_Wire()
{
   d8ede:	b087      	sub	sp, #28
	static TwoWire wire(HAL_I2C_INTERFACE1, acquireWireBuffer());
   d8ee0:	d113      	bne.n	d8f0a <_Z19__fetch_global_Wirev+0x36>
   d8ee2:	4628      	mov	r0, r5
   d8ee4:	f7fb f8e8 	bl	d40b8 <__cxa_guard_acquire>
   d8ee8:	b178      	cbz	r0, d8f0a <_Z19__fetch_global_Wirev+0x36>
   d8eea:	a801      	add	r0, sp, #4
   d8eec:	f7ff ffd8 	bl	d8ea0 <_Z17acquireWireBufferv>
   d8ef0:	aa01      	add	r2, sp, #4
   d8ef2:	4621      	mov	r1, r4
   d8ef4:	4807      	ldr	r0, [pc, #28]	; (d8f14 <_Z19__fetch_global_Wirev+0x40>)
   d8ef6:	f7ff fa89 	bl	d840c <_ZN7TwoWireC1E17HAL_I2C_InterfaceRK14HAL_I2C_Config>
   d8efa:	4628      	mov	r0, r5
   d8efc:	f7fb f8e1 	bl	d40c2 <__cxa_guard_release>
   d8f00:	4a05      	ldr	r2, [pc, #20]	; (d8f18 <_Z19__fetch_global_Wirev+0x44>)
   d8f02:	4906      	ldr	r1, [pc, #24]	; (d8f1c <_Z19__fetch_global_Wirev+0x48>)
   d8f04:	4803      	ldr	r0, [pc, #12]	; (d8f14 <_Z19__fetch_global_Wirev+0x40>)
   d8f06:	f000 f80b 	bl	d8f20 <__aeabi_atexit>
	return wire;
}
   d8f0a:	4802      	ldr	r0, [pc, #8]	; (d8f14 <_Z19__fetch_global_Wirev+0x40>)
   d8f0c:	b007      	add	sp, #28
   d8f0e:	bd30      	pop	{r4, r5, pc}
   d8f10:	2003e70c 	.word	0x2003e70c
   d8f14:	2003e710 	.word	0x2003e710
   d8f18:	2003dcd8 	.word	0x2003dcd8
   d8f1c:	000d83b5 	.word	0x000d83b5

000d8f20 <__aeabi_atexit>:
   d8f20:	460b      	mov	r3, r1
   d8f22:	4601      	mov	r1, r0
   d8f24:	4618      	mov	r0, r3
   d8f26:	f000 bb59 	b.w	d95dc <__cxa_atexit>
	...

000d8f2c <_ZSt15get_new_handlerv>:
   d8f2c:	4b02      	ldr	r3, [pc, #8]	; (d8f38 <_ZSt15get_new_handlerv+0xc>)
   d8f2e:	6818      	ldr	r0, [r3, #0]
   d8f30:	f3bf 8f5f 	dmb	sy
   d8f34:	4770      	bx	lr
   d8f36:	bf00      	nop
   d8f38:	2003e724 	.word	0x2003e724

000d8f3c <_ZdlPvj>:
   d8f3c:	f7fb b8ad 	b.w	d409a <_ZdlPv>

000d8f40 <_ZnajRKSt9nothrow_t>:
   d8f40:	f000 b800 	b.w	d8f44 <_ZnwjRKSt9nothrow_t>

000d8f44 <_ZnwjRKSt9nothrow_t>:
   d8f44:	b510      	push	{r4, lr}
   d8f46:	2800      	cmp	r0, #0
   d8f48:	bf14      	ite	ne
   d8f4a:	4604      	movne	r4, r0
   d8f4c:	2401      	moveq	r4, #1
   d8f4e:	4620      	mov	r0, r4
   d8f50:	f7fe fc64 	bl	d781c <malloc>
   d8f54:	b920      	cbnz	r0, d8f60 <_ZnwjRKSt9nothrow_t+0x1c>
   d8f56:	f7ff ffe9 	bl	d8f2c <_ZSt15get_new_handlerv>
   d8f5a:	b108      	cbz	r0, d8f60 <_ZnwjRKSt9nothrow_t+0x1c>
   d8f5c:	4780      	blx	r0
   d8f5e:	e7f6      	b.n	d8f4e <_ZnwjRKSt9nothrow_t+0xa>
   d8f60:	bd10      	pop	{r4, pc}
	...

000d8f64 <_GLOBAL__sub_I__ZNSt12ctype_bynameIcEC2ERKNSt7__cxx1112basic_stringIcSt11char_traitsIcESaIcEEEj>:
   d8f64:	4b18      	ldr	r3, [pc, #96]	; (d8fc8 <_GLOBAL__sub_I__ZNSt12ctype_bynameIcEC2ERKNSt7__cxx1112basic_stringIcSt11char_traitsIcESaIcEEEj+0x64>)
   d8f66:	681a      	ldr	r2, [r3, #0]
   d8f68:	07d1      	lsls	r1, r2, #31
   d8f6a:	bf5c      	itt	pl
   d8f6c:	2201      	movpl	r2, #1
   d8f6e:	601a      	strpl	r2, [r3, #0]
   d8f70:	4b16      	ldr	r3, [pc, #88]	; (d8fcc <_GLOBAL__sub_I__ZNSt12ctype_bynameIcEC2ERKNSt7__cxx1112basic_stringIcSt11char_traitsIcESaIcEEEj+0x68>)
   d8f72:	681a      	ldr	r2, [r3, #0]
   d8f74:	07d2      	lsls	r2, r2, #31
   d8f76:	bf5c      	itt	pl
   d8f78:	2201      	movpl	r2, #1
   d8f7a:	601a      	strpl	r2, [r3, #0]
   d8f7c:	4b14      	ldr	r3, [pc, #80]	; (d8fd0 <_GLOBAL__sub_I__ZNSt12ctype_bynameIcEC2ERKNSt7__cxx1112basic_stringIcSt11char_traitsIcESaIcEEEj+0x6c>)
   d8f7e:	681a      	ldr	r2, [r3, #0]
   d8f80:	07d0      	lsls	r0, r2, #31
   d8f82:	bf5c      	itt	pl
   d8f84:	2201      	movpl	r2, #1
   d8f86:	601a      	strpl	r2, [r3, #0]
   d8f88:	4b12      	ldr	r3, [pc, #72]	; (d8fd4 <_GLOBAL__sub_I__ZNSt12ctype_bynameIcEC2ERKNSt7__cxx1112basic_stringIcSt11char_traitsIcESaIcEEEj+0x70>)
   d8f8a:	681a      	ldr	r2, [r3, #0]
   d8f8c:	07d1      	lsls	r1, r2, #31
   d8f8e:	bf5c      	itt	pl
   d8f90:	2201      	movpl	r2, #1
   d8f92:	601a      	strpl	r2, [r3, #0]
   d8f94:	4b10      	ldr	r3, [pc, #64]	; (d8fd8 <_GLOBAL__sub_I__ZNSt12ctype_bynameIcEC2ERKNSt7__cxx1112basic_stringIcSt11char_traitsIcESaIcEEEj+0x74>)
   d8f96:	681a      	ldr	r2, [r3, #0]
   d8f98:	07d2      	lsls	r2, r2, #31
   d8f9a:	bf5c      	itt	pl
   d8f9c:	2201      	movpl	r2, #1
   d8f9e:	601a      	strpl	r2, [r3, #0]
   d8fa0:	4b0e      	ldr	r3, [pc, #56]	; (d8fdc <_GLOBAL__sub_I__ZNSt12ctype_bynameIcEC2ERKNSt7__cxx1112basic_stringIcSt11char_traitsIcESaIcEEEj+0x78>)
   d8fa2:	681a      	ldr	r2, [r3, #0]
   d8fa4:	07d0      	lsls	r0, r2, #31
   d8fa6:	bf5c      	itt	pl
   d8fa8:	2201      	movpl	r2, #1
   d8faa:	601a      	strpl	r2, [r3, #0]
   d8fac:	4b0c      	ldr	r3, [pc, #48]	; (d8fe0 <_GLOBAL__sub_I__ZNSt12ctype_bynameIcEC2ERKNSt7__cxx1112basic_stringIcSt11char_traitsIcESaIcEEEj+0x7c>)
   d8fae:	681a      	ldr	r2, [r3, #0]
   d8fb0:	07d1      	lsls	r1, r2, #31
   d8fb2:	bf5c      	itt	pl
   d8fb4:	2201      	movpl	r2, #1
   d8fb6:	601a      	strpl	r2, [r3, #0]
   d8fb8:	4b0a      	ldr	r3, [pc, #40]	; (d8fe4 <_GLOBAL__sub_I__ZNSt12ctype_bynameIcEC2ERKNSt7__cxx1112basic_stringIcSt11char_traitsIcESaIcEEEj+0x80>)
   d8fba:	681a      	ldr	r2, [r3, #0]
   d8fbc:	07d2      	lsls	r2, r2, #31
   d8fbe:	bf5c      	itt	pl
   d8fc0:	2201      	movpl	r2, #1
   d8fc2:	601a      	strpl	r2, [r3, #0]
   d8fc4:	4770      	bx	lr
   d8fc6:	bf00      	nop
   d8fc8:	2003e744 	.word	0x2003e744
   d8fcc:	2003e740 	.word	0x2003e740
   d8fd0:	2003e73c 	.word	0x2003e73c
   d8fd4:	2003e738 	.word	0x2003e738
   d8fd8:	2003e734 	.word	0x2003e734
   d8fdc:	2003e730 	.word	0x2003e730
   d8fe0:	2003e72c 	.word	0x2003e72c
   d8fe4:	2003e728 	.word	0x2003e728

000d8fe8 <_GLOBAL__sub_I__ZNSt12ctype_bynameIwEC2ERKSsj>:
   d8fe8:	4b24      	ldr	r3, [pc, #144]	; (d907c <_GLOBAL__sub_I__ZNSt12ctype_bynameIwEC2ERKSsj+0x94>)
   d8fea:	681a      	ldr	r2, [r3, #0]
   d8fec:	07d0      	lsls	r0, r2, #31
   d8fee:	bf5c      	itt	pl
   d8ff0:	2201      	movpl	r2, #1
   d8ff2:	601a      	strpl	r2, [r3, #0]
   d8ff4:	4b22      	ldr	r3, [pc, #136]	; (d9080 <_GLOBAL__sub_I__ZNSt12ctype_bynameIwEC2ERKSsj+0x98>)
   d8ff6:	681a      	ldr	r2, [r3, #0]
   d8ff8:	07d1      	lsls	r1, r2, #31
   d8ffa:	bf5c      	itt	pl
   d8ffc:	2201      	movpl	r2, #1
   d8ffe:	601a      	strpl	r2, [r3, #0]
   d9000:	4b20      	ldr	r3, [pc, #128]	; (d9084 <_GLOBAL__sub_I__ZNSt12ctype_bynameIwEC2ERKSsj+0x9c>)
   d9002:	681a      	ldr	r2, [r3, #0]
   d9004:	07d2      	lsls	r2, r2, #31
   d9006:	bf5c      	itt	pl
   d9008:	2201      	movpl	r2, #1
   d900a:	601a      	strpl	r2, [r3, #0]
   d900c:	4b1e      	ldr	r3, [pc, #120]	; (d9088 <_GLOBAL__sub_I__ZNSt12ctype_bynameIwEC2ERKSsj+0xa0>)
   d900e:	681a      	ldr	r2, [r3, #0]
   d9010:	07d0      	lsls	r0, r2, #31
   d9012:	bf5c      	itt	pl
   d9014:	2201      	movpl	r2, #1
   d9016:	601a      	strpl	r2, [r3, #0]
   d9018:	4b1c      	ldr	r3, [pc, #112]	; (d908c <_GLOBAL__sub_I__ZNSt12ctype_bynameIwEC2ERKSsj+0xa4>)
   d901a:	681a      	ldr	r2, [r3, #0]
   d901c:	07d1      	lsls	r1, r2, #31
   d901e:	bf5c      	itt	pl
   d9020:	2201      	movpl	r2, #1
   d9022:	601a      	strpl	r2, [r3, #0]
   d9024:	4b1a      	ldr	r3, [pc, #104]	; (d9090 <_GLOBAL__sub_I__ZNSt12ctype_bynameIwEC2ERKSsj+0xa8>)
   d9026:	681a      	ldr	r2, [r3, #0]
   d9028:	07d2      	lsls	r2, r2, #31
   d902a:	bf5c      	itt	pl
   d902c:	2201      	movpl	r2, #1
   d902e:	601a      	strpl	r2, [r3, #0]
   d9030:	4b18      	ldr	r3, [pc, #96]	; (d9094 <_GLOBAL__sub_I__ZNSt12ctype_bynameIwEC2ERKSsj+0xac>)
   d9032:	681a      	ldr	r2, [r3, #0]
   d9034:	07d0      	lsls	r0, r2, #31
   d9036:	bf5c      	itt	pl
   d9038:	2201      	movpl	r2, #1
   d903a:	601a      	strpl	r2, [r3, #0]
   d903c:	4b16      	ldr	r3, [pc, #88]	; (d9098 <_GLOBAL__sub_I__ZNSt12ctype_bynameIwEC2ERKSsj+0xb0>)
   d903e:	681a      	ldr	r2, [r3, #0]
   d9040:	07d1      	lsls	r1, r2, #31
   d9042:	bf5c      	itt	pl
   d9044:	2201      	movpl	r2, #1
   d9046:	601a      	strpl	r2, [r3, #0]
   d9048:	4b14      	ldr	r3, [pc, #80]	; (d909c <_GLOBAL__sub_I__ZNSt12ctype_bynameIwEC2ERKSsj+0xb4>)
   d904a:	681a      	ldr	r2, [r3, #0]
   d904c:	07d2      	lsls	r2, r2, #31
   d904e:	bf5c      	itt	pl
   d9050:	2201      	movpl	r2, #1
   d9052:	601a      	strpl	r2, [r3, #0]
   d9054:	4b12      	ldr	r3, [pc, #72]	; (d90a0 <_GLOBAL__sub_I__ZNSt12ctype_bynameIwEC2ERKSsj+0xb8>)
   d9056:	681a      	ldr	r2, [r3, #0]
   d9058:	07d0      	lsls	r0, r2, #31
   d905a:	bf5c      	itt	pl
   d905c:	2201      	movpl	r2, #1
   d905e:	601a      	strpl	r2, [r3, #0]
   d9060:	4b10      	ldr	r3, [pc, #64]	; (d90a4 <_GLOBAL__sub_I__ZNSt12ctype_bynameIwEC2ERKSsj+0xbc>)
   d9062:	681a      	ldr	r2, [r3, #0]
   d9064:	07d1      	lsls	r1, r2, #31
   d9066:	bf5c      	itt	pl
   d9068:	2201      	movpl	r2, #1
   d906a:	601a      	strpl	r2, [r3, #0]
   d906c:	4b0e      	ldr	r3, [pc, #56]	; (d90a8 <_GLOBAL__sub_I__ZNSt12ctype_bynameIwEC2ERKSsj+0xc0>)
   d906e:	681a      	ldr	r2, [r3, #0]
   d9070:	07d2      	lsls	r2, r2, #31
   d9072:	bf5c      	itt	pl
   d9074:	2201      	movpl	r2, #1
   d9076:	601a      	strpl	r2, [r3, #0]
   d9078:	4770      	bx	lr
   d907a:	bf00      	nop
   d907c:	2003e774 	.word	0x2003e774
   d9080:	2003e770 	.word	0x2003e770
   d9084:	2003e76c 	.word	0x2003e76c
   d9088:	2003e768 	.word	0x2003e768
   d908c:	2003e764 	.word	0x2003e764
   d9090:	2003e760 	.word	0x2003e760
   d9094:	2003e75c 	.word	0x2003e75c
   d9098:	2003e758 	.word	0x2003e758
   d909c:	2003e754 	.word	0x2003e754
   d90a0:	2003e750 	.word	0x2003e750
   d90a4:	2003e74c 	.word	0x2003e74c
   d90a8:	2003e748 	.word	0x2003e748

000d90ac <_GLOBAL__sub_I__ZNSt12ctype_bynameIcEC2ERKSsj>:
   d90ac:	4b24      	ldr	r3, [pc, #144]	; (d9140 <_GLOBAL__sub_I__ZNSt12ctype_bynameIcEC2ERKSsj+0x94>)
   d90ae:	681a      	ldr	r2, [r3, #0]
   d90b0:	07d0      	lsls	r0, r2, #31
   d90b2:	bf5c      	itt	pl
   d90b4:	2201      	movpl	r2, #1
   d90b6:	601a      	strpl	r2, [r3, #0]
   d90b8:	4b22      	ldr	r3, [pc, #136]	; (d9144 <_GLOBAL__sub_I__ZNSt12ctype_bynameIcEC2ERKSsj+0x98>)
   d90ba:	681a      	ldr	r2, [r3, #0]
   d90bc:	07d1      	lsls	r1, r2, #31
   d90be:	bf5c      	itt	pl
   d90c0:	2201      	movpl	r2, #1
   d90c2:	601a      	strpl	r2, [r3, #0]
   d90c4:	4b20      	ldr	r3, [pc, #128]	; (d9148 <_GLOBAL__sub_I__ZNSt12ctype_bynameIcEC2ERKSsj+0x9c>)
   d90c6:	681a      	ldr	r2, [r3, #0]
   d90c8:	07d2      	lsls	r2, r2, #31
   d90ca:	bf5c      	itt	pl
   d90cc:	2201      	movpl	r2, #1
   d90ce:	601a      	strpl	r2, [r3, #0]
   d90d0:	4b1e      	ldr	r3, [pc, #120]	; (d914c <_GLOBAL__sub_I__ZNSt12ctype_bynameIcEC2ERKSsj+0xa0>)
   d90d2:	681a      	ldr	r2, [r3, #0]
   d90d4:	07d0      	lsls	r0, r2, #31
   d90d6:	bf5c      	itt	pl
   d90d8:	2201      	movpl	r2, #1
   d90da:	601a      	strpl	r2, [r3, #0]
   d90dc:	4b1c      	ldr	r3, [pc, #112]	; (d9150 <_GLOBAL__sub_I__ZNSt12ctype_bynameIcEC2ERKSsj+0xa4>)
   d90de:	681a      	ldr	r2, [r3, #0]
   d90e0:	07d1      	lsls	r1, r2, #31
   d90e2:	bf5c      	itt	pl
   d90e4:	2201      	movpl	r2, #1
   d90e6:	601a      	strpl	r2, [r3, #0]
   d90e8:	4b1a      	ldr	r3, [pc, #104]	; (d9154 <_GLOBAL__sub_I__ZNSt12ctype_bynameIcEC2ERKSsj+0xa8>)
   d90ea:	681a      	ldr	r2, [r3, #0]
   d90ec:	07d2      	lsls	r2, r2, #31
   d90ee:	bf5c      	itt	pl
   d90f0:	2201      	movpl	r2, #1
   d90f2:	601a      	strpl	r2, [r3, #0]
   d90f4:	4b18      	ldr	r3, [pc, #96]	; (d9158 <_GLOBAL__sub_I__ZNSt12ctype_bynameIcEC2ERKSsj+0xac>)
   d90f6:	681a      	ldr	r2, [r3, #0]
   d90f8:	07d0      	lsls	r0, r2, #31
   d90fa:	bf5c      	itt	pl
   d90fc:	2201      	movpl	r2, #1
   d90fe:	601a      	strpl	r2, [r3, #0]
   d9100:	4b16      	ldr	r3, [pc, #88]	; (d915c <_GLOBAL__sub_I__ZNSt12ctype_bynameIcEC2ERKSsj+0xb0>)
   d9102:	681a      	ldr	r2, [r3, #0]
   d9104:	07d1      	lsls	r1, r2, #31
   d9106:	bf5c      	itt	pl
   d9108:	2201      	movpl	r2, #1
   d910a:	601a      	strpl	r2, [r3, #0]
   d910c:	4b14      	ldr	r3, [pc, #80]	; (d9160 <_GLOBAL__sub_I__ZNSt12ctype_bynameIcEC2ERKSsj+0xb4>)
   d910e:	681a      	ldr	r2, [r3, #0]
   d9110:	07d2      	lsls	r2, r2, #31
   d9112:	bf5c      	itt	pl
   d9114:	2201      	movpl	r2, #1
   d9116:	601a      	strpl	r2, [r3, #0]
   d9118:	4b12      	ldr	r3, [pc, #72]	; (d9164 <_GLOBAL__sub_I__ZNSt12ctype_bynameIcEC2ERKSsj+0xb8>)
   d911a:	681a      	ldr	r2, [r3, #0]
   d911c:	07d0      	lsls	r0, r2, #31
   d911e:	bf5c      	itt	pl
   d9120:	2201      	movpl	r2, #1
   d9122:	601a      	strpl	r2, [r3, #0]
   d9124:	4b10      	ldr	r3, [pc, #64]	; (d9168 <_GLOBAL__sub_I__ZNSt12ctype_bynameIcEC2ERKSsj+0xbc>)
   d9126:	681a      	ldr	r2, [r3, #0]
   d9128:	07d1      	lsls	r1, r2, #31
   d912a:	bf5c      	itt	pl
   d912c:	2201      	movpl	r2, #1
   d912e:	601a      	strpl	r2, [r3, #0]
   d9130:	4b0e      	ldr	r3, [pc, #56]	; (d916c <_GLOBAL__sub_I__ZNSt12ctype_bynameIcEC2ERKSsj+0xc0>)
   d9132:	681a      	ldr	r2, [r3, #0]
   d9134:	07d2      	lsls	r2, r2, #31
   d9136:	bf5c      	itt	pl
   d9138:	2201      	movpl	r2, #1
   d913a:	601a      	strpl	r2, [r3, #0]
   d913c:	4770      	bx	lr
   d913e:	bf00      	nop
   d9140:	2003e7a4 	.word	0x2003e7a4
   d9144:	2003e7a0 	.word	0x2003e7a0
   d9148:	2003e79c 	.word	0x2003e79c
   d914c:	2003e798 	.word	0x2003e798
   d9150:	2003e794 	.word	0x2003e794
   d9154:	2003e790 	.word	0x2003e790
   d9158:	2003e78c 	.word	0x2003e78c
   d915c:	2003e788 	.word	0x2003e788
   d9160:	2003e784 	.word	0x2003e784
   d9164:	2003e780 	.word	0x2003e780
   d9168:	2003e77c 	.word	0x2003e77c
   d916c:	2003e778 	.word	0x2003e778

000d9170 <_GLOBAL__sub_I__ZNSt12ctype_bynameIwEC2ERKNSt7__cxx1112basic_stringIcSt11char_traitsIcESaIcEEEj>:
   d9170:	4b18      	ldr	r3, [pc, #96]	; (d91d4 <_GLOBAL__sub_I__ZNSt12ctype_bynameIwEC2ERKNSt7__cxx1112basic_stringIcSt11char_traitsIcESaIcEEEj+0x64>)
   d9172:	681a      	ldr	r2, [r3, #0]
   d9174:	07d1      	lsls	r1, r2, #31
   d9176:	bf5c      	itt	pl
   d9178:	2201      	movpl	r2, #1
   d917a:	601a      	strpl	r2, [r3, #0]
   d917c:	4b16      	ldr	r3, [pc, #88]	; (d91d8 <_GLOBAL__sub_I__ZNSt12ctype_bynameIwEC2ERKNSt7__cxx1112basic_stringIcSt11char_traitsIcESaIcEEEj+0x68>)
   d917e:	681a      	ldr	r2, [r3, #0]
   d9180:	07d2      	lsls	r2, r2, #31
   d9182:	bf5c      	itt	pl
   d9184:	2201      	movpl	r2, #1
   d9186:	601a      	strpl	r2, [r3, #0]
   d9188:	4b14      	ldr	r3, [pc, #80]	; (d91dc <_GLOBAL__sub_I__ZNSt12ctype_bynameIwEC2ERKNSt7__cxx1112basic_stringIcSt11char_traitsIcESaIcEEEj+0x6c>)
   d918a:	681a      	ldr	r2, [r3, #0]
   d918c:	07d0      	lsls	r0, r2, #31
   d918e:	bf5c      	itt	pl
   d9190:	2201      	movpl	r2, #1
   d9192:	601a      	strpl	r2, [r3, #0]
   d9194:	4b12      	ldr	r3, [pc, #72]	; (d91e0 <_GLOBAL__sub_I__ZNSt12ctype_bynameIwEC2ERKNSt7__cxx1112basic_stringIcSt11char_traitsIcESaIcEEEj+0x70>)
   d9196:	681a      	ldr	r2, [r3, #0]
   d9198:	07d1      	lsls	r1, r2, #31
   d919a:	bf5c      	itt	pl
   d919c:	2201      	movpl	r2, #1
   d919e:	601a      	strpl	r2, [r3, #0]
   d91a0:	4b10      	ldr	r3, [pc, #64]	; (d91e4 <_GLOBAL__sub_I__ZNSt12ctype_bynameIwEC2ERKNSt7__cxx1112basic_stringIcSt11char_traitsIcESaIcEEEj+0x74>)
   d91a2:	681a      	ldr	r2, [r3, #0]
   d91a4:	07d2      	lsls	r2, r2, #31
   d91a6:	bf5c      	itt	pl
   d91a8:	2201      	movpl	r2, #1
   d91aa:	601a      	strpl	r2, [r3, #0]
   d91ac:	4b0e      	ldr	r3, [pc, #56]	; (d91e8 <_GLOBAL__sub_I__ZNSt12ctype_bynameIwEC2ERKNSt7__cxx1112basic_stringIcSt11char_traitsIcESaIcEEEj+0x78>)
   d91ae:	681a      	ldr	r2, [r3, #0]
   d91b0:	07d0      	lsls	r0, r2, #31
   d91b2:	bf5c      	itt	pl
   d91b4:	2201      	movpl	r2, #1
   d91b6:	601a      	strpl	r2, [r3, #0]
   d91b8:	4b0c      	ldr	r3, [pc, #48]	; (d91ec <_GLOBAL__sub_I__ZNSt12ctype_bynameIwEC2ERKNSt7__cxx1112basic_stringIcSt11char_traitsIcESaIcEEEj+0x7c>)
   d91ba:	681a      	ldr	r2, [r3, #0]
   d91bc:	07d1      	lsls	r1, r2, #31
   d91be:	bf5c      	itt	pl
   d91c0:	2201      	movpl	r2, #1
   d91c2:	601a      	strpl	r2, [r3, #0]
   d91c4:	4b0a      	ldr	r3, [pc, #40]	; (d91f0 <_GLOBAL__sub_I__ZNSt12ctype_bynameIwEC2ERKNSt7__cxx1112basic_stringIcSt11char_traitsIcESaIcEEEj+0x80>)
   d91c6:	681a      	ldr	r2, [r3, #0]
   d91c8:	07d2      	lsls	r2, r2, #31
   d91ca:	bf5c      	itt	pl
   d91cc:	2201      	movpl	r2, #1
   d91ce:	601a      	strpl	r2, [r3, #0]
   d91d0:	4770      	bx	lr
   d91d2:	bf00      	nop
   d91d4:	2003e7c4 	.word	0x2003e7c4
   d91d8:	2003e7c0 	.word	0x2003e7c0
   d91dc:	2003e7bc 	.word	0x2003e7bc
   d91e0:	2003e7b8 	.word	0x2003e7b8
   d91e4:	2003e7b4 	.word	0x2003e7b4
   d91e8:	2003e7b0 	.word	0x2003e7b0
   d91ec:	2003e7ac 	.word	0x2003e7ac
   d91f0:	2003e7a8 	.word	0x2003e7a8

000d91f4 <__aeabi_drsub>:
   d91f4:	f081 4100 	eor.w	r1, r1, #2147483648	; 0x80000000
   d91f8:	e002      	b.n	d9200 <__adddf3>
   d91fa:	bf00      	nop

000d91fc <__aeabi_dsub>:
   d91fc:	f083 4300 	eor.w	r3, r3, #2147483648	; 0x80000000

000d9200 <__adddf3>:
   d9200:	b530      	push	{r4, r5, lr}
   d9202:	ea4f 0441 	mov.w	r4, r1, lsl #1
   d9206:	ea4f 0543 	mov.w	r5, r3, lsl #1
   d920a:	ea94 0f05 	teq	r4, r5
   d920e:	bf08      	it	eq
   d9210:	ea90 0f02 	teqeq	r0, r2
   d9214:	bf1f      	itttt	ne
   d9216:	ea54 0c00 	orrsne.w	ip, r4, r0
   d921a:	ea55 0c02 	orrsne.w	ip, r5, r2
   d921e:	ea7f 5c64 	mvnsne.w	ip, r4, asr #21
   d9222:	ea7f 5c65 	mvnsne.w	ip, r5, asr #21
   d9226:	f000 80e2 	beq.w	d93ee <__adddf3+0x1ee>
   d922a:	ea4f 5454 	mov.w	r4, r4, lsr #21
   d922e:	ebd4 5555 	rsbs	r5, r4, r5, lsr #21
   d9232:	bfb8      	it	lt
   d9234:	426d      	neglt	r5, r5
   d9236:	dd0c      	ble.n	d9252 <__adddf3+0x52>
   d9238:	442c      	add	r4, r5
   d923a:	ea80 0202 	eor.w	r2, r0, r2
   d923e:	ea81 0303 	eor.w	r3, r1, r3
   d9242:	ea82 0000 	eor.w	r0, r2, r0
   d9246:	ea83 0101 	eor.w	r1, r3, r1
   d924a:	ea80 0202 	eor.w	r2, r0, r2
   d924e:	ea81 0303 	eor.w	r3, r1, r3
   d9252:	2d36      	cmp	r5, #54	; 0x36
   d9254:	bf88      	it	hi
   d9256:	bd30      	pophi	{r4, r5, pc}
   d9258:	f011 4f00 	tst.w	r1, #2147483648	; 0x80000000
   d925c:	ea4f 3101 	mov.w	r1, r1, lsl #12
   d9260:	f44f 1c80 	mov.w	ip, #1048576	; 0x100000
   d9264:	ea4c 3111 	orr.w	r1, ip, r1, lsr #12
   d9268:	d002      	beq.n	d9270 <__adddf3+0x70>
   d926a:	4240      	negs	r0, r0
   d926c:	eb61 0141 	sbc.w	r1, r1, r1, lsl #1
   d9270:	f013 4f00 	tst.w	r3, #2147483648	; 0x80000000
   d9274:	ea4f 3303 	mov.w	r3, r3, lsl #12
   d9278:	ea4c 3313 	orr.w	r3, ip, r3, lsr #12
   d927c:	d002      	beq.n	d9284 <__adddf3+0x84>
   d927e:	4252      	negs	r2, r2
   d9280:	eb63 0343 	sbc.w	r3, r3, r3, lsl #1
   d9284:	ea94 0f05 	teq	r4, r5
   d9288:	f000 80a7 	beq.w	d93da <__adddf3+0x1da>
   d928c:	f1a4 0401 	sub.w	r4, r4, #1
   d9290:	f1d5 0e20 	rsbs	lr, r5, #32
   d9294:	db0d      	blt.n	d92b2 <__adddf3+0xb2>
   d9296:	fa02 fc0e 	lsl.w	ip, r2, lr
   d929a:	fa22 f205 	lsr.w	r2, r2, r5
   d929e:	1880      	adds	r0, r0, r2
   d92a0:	f141 0100 	adc.w	r1, r1, #0
   d92a4:	fa03 f20e 	lsl.w	r2, r3, lr
   d92a8:	1880      	adds	r0, r0, r2
   d92aa:	fa43 f305 	asr.w	r3, r3, r5
   d92ae:	4159      	adcs	r1, r3
   d92b0:	e00e      	b.n	d92d0 <__adddf3+0xd0>
   d92b2:	f1a5 0520 	sub.w	r5, r5, #32
   d92b6:	f10e 0e20 	add.w	lr, lr, #32
   d92ba:	2a01      	cmp	r2, #1
   d92bc:	fa03 fc0e 	lsl.w	ip, r3, lr
   d92c0:	bf28      	it	cs
   d92c2:	f04c 0c02 	orrcs.w	ip, ip, #2
   d92c6:	fa43 f305 	asr.w	r3, r3, r5
   d92ca:	18c0      	adds	r0, r0, r3
   d92cc:	eb51 71e3 	adcs.w	r1, r1, r3, asr #31
   d92d0:	f001 4500 	and.w	r5, r1, #2147483648	; 0x80000000
   d92d4:	d507      	bpl.n	d92e6 <__adddf3+0xe6>
   d92d6:	f04f 0e00 	mov.w	lr, #0
   d92da:	f1dc 0c00 	rsbs	ip, ip, #0
   d92de:	eb7e 0000 	sbcs.w	r0, lr, r0
   d92e2:	eb6e 0101 	sbc.w	r1, lr, r1
   d92e6:	f5b1 1f80 	cmp.w	r1, #1048576	; 0x100000
   d92ea:	d31b      	bcc.n	d9324 <__adddf3+0x124>
   d92ec:	f5b1 1f00 	cmp.w	r1, #2097152	; 0x200000
   d92f0:	d30c      	bcc.n	d930c <__adddf3+0x10c>
   d92f2:	0849      	lsrs	r1, r1, #1
   d92f4:	ea5f 0030 	movs.w	r0, r0, rrx
   d92f8:	ea4f 0c3c 	mov.w	ip, ip, rrx
   d92fc:	f104 0401 	add.w	r4, r4, #1
   d9300:	ea4f 5244 	mov.w	r2, r4, lsl #21
   d9304:	f512 0f80 	cmn.w	r2, #4194304	; 0x400000
   d9308:	f080 809a 	bcs.w	d9440 <__adddf3+0x240>
   d930c:	f1bc 4f00 	cmp.w	ip, #2147483648	; 0x80000000
   d9310:	bf08      	it	eq
   d9312:	ea5f 0c50 	movseq.w	ip, r0, lsr #1
   d9316:	f150 0000 	adcs.w	r0, r0, #0
   d931a:	eb41 5104 	adc.w	r1, r1, r4, lsl #20
   d931e:	ea41 0105 	orr.w	r1, r1, r5
   d9322:	bd30      	pop	{r4, r5, pc}
   d9324:	ea5f 0c4c 	movs.w	ip, ip, lsl #1
   d9328:	4140      	adcs	r0, r0
   d932a:	eb41 0101 	adc.w	r1, r1, r1
   d932e:	f411 1f80 	tst.w	r1, #1048576	; 0x100000
   d9332:	f1a4 0401 	sub.w	r4, r4, #1
   d9336:	d1e9      	bne.n	d930c <__adddf3+0x10c>
   d9338:	f091 0f00 	teq	r1, #0
   d933c:	bf04      	itt	eq
   d933e:	4601      	moveq	r1, r0
   d9340:	2000      	moveq	r0, #0
   d9342:	fab1 f381 	clz	r3, r1
   d9346:	bf08      	it	eq
   d9348:	3320      	addeq	r3, #32
   d934a:	f1a3 030b 	sub.w	r3, r3, #11
   d934e:	f1b3 0220 	subs.w	r2, r3, #32
   d9352:	da0c      	bge.n	d936e <__adddf3+0x16e>
   d9354:	320c      	adds	r2, #12
   d9356:	dd08      	ble.n	d936a <__adddf3+0x16a>
   d9358:	f102 0c14 	add.w	ip, r2, #20
   d935c:	f1c2 020c 	rsb	r2, r2, #12
   d9360:	fa01 f00c 	lsl.w	r0, r1, ip
   d9364:	fa21 f102 	lsr.w	r1, r1, r2
   d9368:	e00c      	b.n	d9384 <__adddf3+0x184>
   d936a:	f102 0214 	add.w	r2, r2, #20
   d936e:	bfd8      	it	le
   d9370:	f1c2 0c20 	rsble	ip, r2, #32
   d9374:	fa01 f102 	lsl.w	r1, r1, r2
   d9378:	fa20 fc0c 	lsr.w	ip, r0, ip
   d937c:	bfdc      	itt	le
   d937e:	ea41 010c 	orrle.w	r1, r1, ip
   d9382:	4090      	lslle	r0, r2
   d9384:	1ae4      	subs	r4, r4, r3
   d9386:	bfa2      	ittt	ge
   d9388:	eb01 5104 	addge.w	r1, r1, r4, lsl #20
   d938c:	4329      	orrge	r1, r5
   d938e:	bd30      	popge	{r4, r5, pc}
   d9390:	ea6f 0404 	mvn.w	r4, r4
   d9394:	3c1f      	subs	r4, #31
   d9396:	da1c      	bge.n	d93d2 <__adddf3+0x1d2>
   d9398:	340c      	adds	r4, #12
   d939a:	dc0e      	bgt.n	d93ba <__adddf3+0x1ba>
   d939c:	f104 0414 	add.w	r4, r4, #20
   d93a0:	f1c4 0220 	rsb	r2, r4, #32
   d93a4:	fa20 f004 	lsr.w	r0, r0, r4
   d93a8:	fa01 f302 	lsl.w	r3, r1, r2
   d93ac:	ea40 0003 	orr.w	r0, r0, r3
   d93b0:	fa21 f304 	lsr.w	r3, r1, r4
   d93b4:	ea45 0103 	orr.w	r1, r5, r3
   d93b8:	bd30      	pop	{r4, r5, pc}
   d93ba:	f1c4 040c 	rsb	r4, r4, #12
   d93be:	f1c4 0220 	rsb	r2, r4, #32
   d93c2:	fa20 f002 	lsr.w	r0, r0, r2
   d93c6:	fa01 f304 	lsl.w	r3, r1, r4
   d93ca:	ea40 0003 	orr.w	r0, r0, r3
   d93ce:	4629      	mov	r1, r5
   d93d0:	bd30      	pop	{r4, r5, pc}
   d93d2:	fa21 f004 	lsr.w	r0, r1, r4
   d93d6:	4629      	mov	r1, r5
   d93d8:	bd30      	pop	{r4, r5, pc}
   d93da:	f094 0f00 	teq	r4, #0
   d93de:	f483 1380 	eor.w	r3, r3, #1048576	; 0x100000
   d93e2:	bf06      	itte	eq
   d93e4:	f481 1180 	eoreq.w	r1, r1, #1048576	; 0x100000
   d93e8:	3401      	addeq	r4, #1
   d93ea:	3d01      	subne	r5, #1
   d93ec:	e74e      	b.n	d928c <__adddf3+0x8c>
   d93ee:	ea7f 5c64 	mvns.w	ip, r4, asr #21
   d93f2:	bf18      	it	ne
   d93f4:	ea7f 5c65 	mvnsne.w	ip, r5, asr #21
   d93f8:	d029      	beq.n	d944e <__adddf3+0x24e>
   d93fa:	ea94 0f05 	teq	r4, r5
   d93fe:	bf08      	it	eq
   d9400:	ea90 0f02 	teqeq	r0, r2
   d9404:	d005      	beq.n	d9412 <__adddf3+0x212>
   d9406:	ea54 0c00 	orrs.w	ip, r4, r0
   d940a:	bf04      	itt	eq
   d940c:	4619      	moveq	r1, r3
   d940e:	4610      	moveq	r0, r2
   d9410:	bd30      	pop	{r4, r5, pc}
   d9412:	ea91 0f03 	teq	r1, r3
   d9416:	bf1e      	ittt	ne
   d9418:	2100      	movne	r1, #0
   d941a:	2000      	movne	r0, #0
   d941c:	bd30      	popne	{r4, r5, pc}
   d941e:	ea5f 5c54 	movs.w	ip, r4, lsr #21
   d9422:	d105      	bne.n	d9430 <__adddf3+0x230>
   d9424:	0040      	lsls	r0, r0, #1
   d9426:	4149      	adcs	r1, r1
   d9428:	bf28      	it	cs
   d942a:	f041 4100 	orrcs.w	r1, r1, #2147483648	; 0x80000000
   d942e:	bd30      	pop	{r4, r5, pc}
   d9430:	f514 0480 	adds.w	r4, r4, #4194304	; 0x400000
   d9434:	bf3c      	itt	cc
   d9436:	f501 1180 	addcc.w	r1, r1, #1048576	; 0x100000
   d943a:	bd30      	popcc	{r4, r5, pc}
   d943c:	f001 4500 	and.w	r5, r1, #2147483648	; 0x80000000
   d9440:	f045 41fe 	orr.w	r1, r5, #2130706432	; 0x7f000000
   d9444:	f441 0170 	orr.w	r1, r1, #15728640	; 0xf00000
   d9448:	f04f 0000 	mov.w	r0, #0
   d944c:	bd30      	pop	{r4, r5, pc}
   d944e:	ea7f 5c64 	mvns.w	ip, r4, asr #21
   d9452:	bf1a      	itte	ne
   d9454:	4619      	movne	r1, r3
   d9456:	4610      	movne	r0, r2
   d9458:	ea7f 5c65 	mvnseq.w	ip, r5, asr #21
   d945c:	bf1c      	itt	ne
   d945e:	460b      	movne	r3, r1
   d9460:	4602      	movne	r2, r0
   d9462:	ea50 3401 	orrs.w	r4, r0, r1, lsl #12
   d9466:	bf06      	itte	eq
   d9468:	ea52 3503 	orrseq.w	r5, r2, r3, lsl #12
   d946c:	ea91 0f03 	teqeq	r1, r3
   d9470:	f441 2100 	orrne.w	r1, r1, #524288	; 0x80000
   d9474:	bd30      	pop	{r4, r5, pc}
   d9476:	bf00      	nop

000d9478 <__aeabi_ui2d>:
   d9478:	f090 0f00 	teq	r0, #0
   d947c:	bf04      	itt	eq
   d947e:	2100      	moveq	r1, #0
   d9480:	4770      	bxeq	lr
   d9482:	b530      	push	{r4, r5, lr}
   d9484:	f44f 6480 	mov.w	r4, #1024	; 0x400
   d9488:	f104 0432 	add.w	r4, r4, #50	; 0x32
   d948c:	f04f 0500 	mov.w	r5, #0
   d9490:	f04f 0100 	mov.w	r1, #0
   d9494:	e750      	b.n	d9338 <__adddf3+0x138>
   d9496:	bf00      	nop

000d9498 <__aeabi_i2d>:
   d9498:	f090 0f00 	teq	r0, #0
   d949c:	bf04      	itt	eq
   d949e:	2100      	moveq	r1, #0
   d94a0:	4770      	bxeq	lr
   d94a2:	b530      	push	{r4, r5, lr}
   d94a4:	f44f 6480 	mov.w	r4, #1024	; 0x400
   d94a8:	f104 0432 	add.w	r4, r4, #50	; 0x32
   d94ac:	f010 4500 	ands.w	r5, r0, #2147483648	; 0x80000000
   d94b0:	bf48      	it	mi
   d94b2:	4240      	negmi	r0, r0
   d94b4:	f04f 0100 	mov.w	r1, #0
   d94b8:	e73e      	b.n	d9338 <__adddf3+0x138>
   d94ba:	bf00      	nop

000d94bc <__aeabi_f2d>:
   d94bc:	0042      	lsls	r2, r0, #1
   d94be:	ea4f 01e2 	mov.w	r1, r2, asr #3
   d94c2:	ea4f 0131 	mov.w	r1, r1, rrx
   d94c6:	ea4f 7002 	mov.w	r0, r2, lsl #28
   d94ca:	bf1f      	itttt	ne
   d94cc:	f012 437f 	andsne.w	r3, r2, #4278190080	; 0xff000000
   d94d0:	f093 4f7f 	teqne	r3, #4278190080	; 0xff000000
   d94d4:	f081 5160 	eorne.w	r1, r1, #939524096	; 0x38000000
   d94d8:	4770      	bxne	lr
   d94da:	f092 0f00 	teq	r2, #0
   d94de:	bf14      	ite	ne
   d94e0:	f093 4f7f 	teqne	r3, #4278190080	; 0xff000000
   d94e4:	4770      	bxeq	lr
   d94e6:	b530      	push	{r4, r5, lr}
   d94e8:	f44f 7460 	mov.w	r4, #896	; 0x380
   d94ec:	f001 4500 	and.w	r5, r1, #2147483648	; 0x80000000
   d94f0:	f021 4100 	bic.w	r1, r1, #2147483648	; 0x80000000
   d94f4:	e720      	b.n	d9338 <__adddf3+0x138>
   d94f6:	bf00      	nop

000d94f8 <__aeabi_ul2d>:
   d94f8:	ea50 0201 	orrs.w	r2, r0, r1
   d94fc:	bf08      	it	eq
   d94fe:	4770      	bxeq	lr
   d9500:	b530      	push	{r4, r5, lr}
   d9502:	f04f 0500 	mov.w	r5, #0
   d9506:	e00a      	b.n	d951e <__aeabi_l2d+0x16>

000d9508 <__aeabi_l2d>:
   d9508:	ea50 0201 	orrs.w	r2, r0, r1
   d950c:	bf08      	it	eq
   d950e:	4770      	bxeq	lr
   d9510:	b530      	push	{r4, r5, lr}
   d9512:	f011 4500 	ands.w	r5, r1, #2147483648	; 0x80000000
   d9516:	d502      	bpl.n	d951e <__aeabi_l2d+0x16>
   d9518:	4240      	negs	r0, r0
   d951a:	eb61 0141 	sbc.w	r1, r1, r1, lsl #1
   d951e:	f44f 6480 	mov.w	r4, #1024	; 0x400
   d9522:	f104 0432 	add.w	r4, r4, #50	; 0x32
   d9526:	ea5f 5c91 	movs.w	ip, r1, lsr #22
   d952a:	f43f aedc 	beq.w	d92e6 <__adddf3+0xe6>
   d952e:	f04f 0203 	mov.w	r2, #3
   d9532:	ea5f 0cdc 	movs.w	ip, ip, lsr #3
   d9536:	bf18      	it	ne
   d9538:	3203      	addne	r2, #3
   d953a:	ea5f 0cdc 	movs.w	ip, ip, lsr #3
   d953e:	bf18      	it	ne
   d9540:	3203      	addne	r2, #3
   d9542:	eb02 02dc 	add.w	r2, r2, ip, lsr #3
   d9546:	f1c2 0320 	rsb	r3, r2, #32
   d954a:	fa00 fc03 	lsl.w	ip, r0, r3
   d954e:	fa20 f002 	lsr.w	r0, r0, r2
   d9552:	fa01 fe03 	lsl.w	lr, r1, r3
   d9556:	ea40 000e 	orr.w	r0, r0, lr
   d955a:	fa21 f102 	lsr.w	r1, r1, r2
   d955e:	4414      	add	r4, r2
   d9560:	e6c1      	b.n	d92e6 <__adddf3+0xe6>
   d9562:	bf00      	nop

000d9564 <asctime>:
   d9564:	4b09      	ldr	r3, [pc, #36]	; (d958c <asctime+0x28>)
   d9566:	b570      	push	{r4, r5, r6, lr}
   d9568:	681c      	ldr	r4, [r3, #0]
   d956a:	6c25      	ldr	r5, [r4, #64]	; 0x40
   d956c:	4606      	mov	r6, r0
   d956e:	b93d      	cbnz	r5, d9580 <asctime+0x1c>
   d9570:	201a      	movs	r0, #26
   d9572:	f7fe f953 	bl	d781c <malloc>
   d9576:	221a      	movs	r2, #26
   d9578:	6420      	str	r0, [r4, #64]	; 0x40
   d957a:	4629      	mov	r1, r5
   d957c:	f000 f94e 	bl	d981c <memset>
   d9580:	6c21      	ldr	r1, [r4, #64]	; 0x40
   d9582:	4630      	mov	r0, r6
   d9584:	e8bd 4070 	ldmia.w	sp!, {r4, r5, r6, lr}
   d9588:	f000 b802 	b.w	d9590 <asctime_r>
   d958c:	2003dc88 	.word	0x2003dc88

000d9590 <asctime_r>:
   d9590:	b510      	push	{r4, lr}
   d9592:	460c      	mov	r4, r1
   d9594:	6941      	ldr	r1, [r0, #20]
   d9596:	6903      	ldr	r3, [r0, #16]
   d9598:	6982      	ldr	r2, [r0, #24]
   d959a:	b086      	sub	sp, #24
   d959c:	f201 716c 	addw	r1, r1, #1900	; 0x76c
   d95a0:	9104      	str	r1, [sp, #16]
   d95a2:	6801      	ldr	r1, [r0, #0]
   d95a4:	9103      	str	r1, [sp, #12]
   d95a6:	6841      	ldr	r1, [r0, #4]
   d95a8:	9102      	str	r1, [sp, #8]
   d95aa:	6881      	ldr	r1, [r0, #8]
   d95ac:	9101      	str	r1, [sp, #4]
   d95ae:	68c1      	ldr	r1, [r0, #12]
   d95b0:	9100      	str	r1, [sp, #0]
   d95b2:	4907      	ldr	r1, [pc, #28]	; (d95d0 <asctime_r+0x40>)
   d95b4:	eb03 0343 	add.w	r3, r3, r3, lsl #1
   d95b8:	440b      	add	r3, r1
   d95ba:	4906      	ldr	r1, [pc, #24]	; (d95d4 <asctime_r+0x44>)
   d95bc:	eb02 0242 	add.w	r2, r2, r2, lsl #1
   d95c0:	440a      	add	r2, r1
   d95c2:	4620      	mov	r0, r4
   d95c4:	4904      	ldr	r1, [pc, #16]	; (d95d8 <asctime_r+0x48>)
   d95c6:	f7fe f941 	bl	d784c <siprintf>
   d95ca:	4620      	mov	r0, r4
   d95cc:	b006      	add	sp, #24
   d95ce:	bd10      	pop	{r4, pc}
   d95d0:	000da922 	.word	0x000da922
   d95d4:	000da90d 	.word	0x000da90d
   d95d8:	000da946 	.word	0x000da946

000d95dc <__cxa_atexit>:
   d95dc:	b510      	push	{r4, lr}
   d95de:	4c05      	ldr	r4, [pc, #20]	; (d95f4 <__cxa_atexit+0x18>)
   d95e0:	4613      	mov	r3, r2
   d95e2:	b12c      	cbz	r4, d95f0 <__cxa_atexit+0x14>
   d95e4:	460a      	mov	r2, r1
   d95e6:	4601      	mov	r1, r0
   d95e8:	2002      	movs	r0, #2
   d95ea:	f3af 8000 	nop.w
   d95ee:	bd10      	pop	{r4, pc}
   d95f0:	4620      	mov	r0, r4
   d95f2:	bd10      	pop	{r4, pc}
   d95f4:	00000000 	.word	0x00000000

000d95f8 <localtime>:
   d95f8:	b538      	push	{r3, r4, r5, lr}
   d95fa:	4b07      	ldr	r3, [pc, #28]	; (d9618 <localtime+0x20>)
   d95fc:	681c      	ldr	r4, [r3, #0]
   d95fe:	6be3      	ldr	r3, [r4, #60]	; 0x3c
   d9600:	4605      	mov	r5, r0
   d9602:	b91b      	cbnz	r3, d960c <localtime+0x14>
   d9604:	2024      	movs	r0, #36	; 0x24
   d9606:	f7fe f909 	bl	d781c <malloc>
   d960a:	63e0      	str	r0, [r4, #60]	; 0x3c
   d960c:	6be1      	ldr	r1, [r4, #60]	; 0x3c
   d960e:	4628      	mov	r0, r5
   d9610:	e8bd 4038 	ldmia.w	sp!, {r3, r4, r5, lr}
   d9614:	f000 b802 	b.w	d961c <localtime_r>
   d9618:	2003dc88 	.word	0x2003dc88

000d961c <localtime_r>:
   d961c:	e92d 41f0 	stmdb	sp!, {r4, r5, r6, r7, r8, lr}
   d9620:	460c      	mov	r4, r1
   d9622:	4680      	mov	r8, r0
   d9624:	f000 fc68 	bl	d9ef8 <__gettzinfo>
   d9628:	4621      	mov	r1, r4
   d962a:	4607      	mov	r7, r0
   d962c:	4640      	mov	r0, r8
   d962e:	f000 fc67 	bl	d9f00 <gmtime_r>
   d9632:	6946      	ldr	r6, [r0, #20]
   d9634:	f206 766c 	addw	r6, r6, #1900	; 0x76c
   d9638:	07b3      	lsls	r3, r6, #30
   d963a:	4604      	mov	r4, r0
   d963c:	d105      	bne.n	d964a <localtime_r+0x2e>
   d963e:	2264      	movs	r2, #100	; 0x64
   d9640:	fb96 f3f2 	sdiv	r3, r6, r2
   d9644:	fb02 6313 	mls	r3, r2, r3, r6
   d9648:	b94b      	cbnz	r3, d965e <localtime_r+0x42>
   d964a:	f44f 75c8 	mov.w	r5, #400	; 0x190
   d964e:	fb96 f3f5 	sdiv	r3, r6, r5
   d9652:	fb05 6513 	mls	r5, r5, r3, r6
   d9656:	fab5 f385 	clz	r3, r5
   d965a:	095b      	lsrs	r3, r3, #5
   d965c:	e000      	b.n	d9660 <localtime_r+0x44>
   d965e:	2301      	movs	r3, #1
   d9660:	4a5f      	ldr	r2, [pc, #380]	; (d97e0 <localtime_r+0x1c4>)
   d9662:	2530      	movs	r5, #48	; 0x30
   d9664:	fb05 2503 	mla	r5, r5, r3, r2
   d9668:	f000 fa7a 	bl	d9b60 <__tz_lock>
   d966c:	f000 fa7a 	bl	d9b64 <_tzset_unlocked>
   d9670:	4b5c      	ldr	r3, [pc, #368]	; (d97e4 <localtime_r+0x1c8>)
   d9672:	681b      	ldr	r3, [r3, #0]
   d9674:	b1f3      	cbz	r3, d96b4 <localtime_r+0x98>
   d9676:	687b      	ldr	r3, [r7, #4]
   d9678:	429e      	cmp	r6, r3
   d967a:	d105      	bne.n	d9688 <localtime_r+0x6c>
   d967c:	6839      	ldr	r1, [r7, #0]
   d967e:	f8d8 3000 	ldr.w	r3, [r8]
   d9682:	69fa      	ldr	r2, [r7, #28]
   d9684:	b941      	cbnz	r1, d9698 <localtime_r+0x7c>
   d9686:	e00a      	b.n	d969e <localtime_r+0x82>
   d9688:	4630      	mov	r0, r6
   d968a:	f000 f9c1 	bl	d9a10 <__tzcalc_limits>
   d968e:	2800      	cmp	r0, #0
   d9690:	d1f4      	bne.n	d967c <localtime_r+0x60>
   d9692:	f04f 33ff 	mov.w	r3, #4294967295
   d9696:	e00d      	b.n	d96b4 <localtime_r+0x98>
   d9698:	4293      	cmp	r3, r2
   d969a:	db08      	blt.n	d96ae <localtime_r+0x92>
   d969c:	e001      	b.n	d96a2 <localtime_r+0x86>
   d969e:	4293      	cmp	r3, r2
   d96a0:	da07      	bge.n	d96b2 <localtime_r+0x96>
   d96a2:	6bba      	ldr	r2, [r7, #56]	; 0x38
   d96a4:	4293      	cmp	r3, r2
   d96a6:	bfac      	ite	ge
   d96a8:	2300      	movge	r3, #0
   d96aa:	2301      	movlt	r3, #1
   d96ac:	e002      	b.n	d96b4 <localtime_r+0x98>
   d96ae:	2300      	movs	r3, #0
   d96b0:	e000      	b.n	d96b4 <localtime_r+0x98>
   d96b2:	2301      	movs	r3, #1
   d96b4:	6223      	str	r3, [r4, #32]
   d96b6:	6a23      	ldr	r3, [r4, #32]
   d96b8:	2b01      	cmp	r3, #1
   d96ba:	bf0c      	ite	eq
   d96bc:	6bf9      	ldreq	r1, [r7, #60]	; 0x3c
   d96be:	6a39      	ldrne	r1, [r7, #32]
   d96c0:	f44f 6361 	mov.w	r3, #3600	; 0xe10
   d96c4:	203c      	movs	r0, #60	; 0x3c
   d96c6:	fb91 f6f3 	sdiv	r6, r1, r3
   d96ca:	fb03 1316 	mls	r3, r3, r6, r1
   d96ce:	6861      	ldr	r1, [r4, #4]
   d96d0:	fb93 f2f0 	sdiv	r2, r3, r0
   d96d4:	fb00 3012 	mls	r0, r0, r2, r3
   d96d8:	6823      	ldr	r3, [r4, #0]
   d96da:	1a89      	subs	r1, r1, r2
   d96dc:	68a2      	ldr	r2, [r4, #8]
   d96de:	6061      	str	r1, [r4, #4]
   d96e0:	1a1b      	subs	r3, r3, r0
   d96e2:	1b92      	subs	r2, r2, r6
   d96e4:	2b3b      	cmp	r3, #59	; 0x3b
   d96e6:	6023      	str	r3, [r4, #0]
   d96e8:	60a2      	str	r2, [r4, #8]
   d96ea:	dd03      	ble.n	d96f4 <localtime_r+0xd8>
   d96ec:	3101      	adds	r1, #1
   d96ee:	6061      	str	r1, [r4, #4]
   d96f0:	3b3c      	subs	r3, #60	; 0x3c
   d96f2:	e004      	b.n	d96fe <localtime_r+0xe2>
   d96f4:	2b00      	cmp	r3, #0
   d96f6:	da03      	bge.n	d9700 <localtime_r+0xe4>
   d96f8:	3901      	subs	r1, #1
   d96fa:	6061      	str	r1, [r4, #4]
   d96fc:	333c      	adds	r3, #60	; 0x3c
   d96fe:	6023      	str	r3, [r4, #0]
   d9700:	6863      	ldr	r3, [r4, #4]
   d9702:	2b3b      	cmp	r3, #59	; 0x3b
   d9704:	dd03      	ble.n	d970e <localtime_r+0xf2>
   d9706:	3201      	adds	r2, #1
   d9708:	60a2      	str	r2, [r4, #8]
   d970a:	3b3c      	subs	r3, #60	; 0x3c
   d970c:	e004      	b.n	d9718 <localtime_r+0xfc>
   d970e:	2b00      	cmp	r3, #0
   d9710:	da03      	bge.n	d971a <localtime_r+0xfe>
   d9712:	3a01      	subs	r2, #1
   d9714:	60a2      	str	r2, [r4, #8]
   d9716:	333c      	adds	r3, #60	; 0x3c
   d9718:	6063      	str	r3, [r4, #4]
   d971a:	68a3      	ldr	r3, [r4, #8]
   d971c:	2b17      	cmp	r3, #23
   d971e:	dd22      	ble.n	d9766 <localtime_r+0x14a>
   d9720:	69e2      	ldr	r2, [r4, #28]
   d9722:	3201      	adds	r2, #1
   d9724:	61e2      	str	r2, [r4, #28]
   d9726:	69a2      	ldr	r2, [r4, #24]
   d9728:	3201      	adds	r2, #1
   d972a:	2a06      	cmp	r2, #6
   d972c:	bfc8      	it	gt
   d972e:	2200      	movgt	r2, #0
   d9730:	61a2      	str	r2, [r4, #24]
   d9732:	68e2      	ldr	r2, [r4, #12]
   d9734:	3b18      	subs	r3, #24
   d9736:	3201      	adds	r2, #1
   d9738:	60a3      	str	r3, [r4, #8]
   d973a:	6923      	ldr	r3, [r4, #16]
   d973c:	60e2      	str	r2, [r4, #12]
   d973e:	f855 1023 	ldr.w	r1, [r5, r3, lsl #2]
   d9742:	428a      	cmp	r2, r1
   d9744:	dd46      	ble.n	d97d4 <localtime_r+0x1b8>
   d9746:	3301      	adds	r3, #1
   d9748:	2b0c      	cmp	r3, #12
   d974a:	bf0c      	ite	eq
   d974c:	6963      	ldreq	r3, [r4, #20]
   d974e:	6123      	strne	r3, [r4, #16]
   d9750:	eba2 0201 	sub.w	r2, r2, r1
   d9754:	60e2      	str	r2, [r4, #12]
   d9756:	bf01      	itttt	eq
   d9758:	3301      	addeq	r3, #1
   d975a:	2200      	moveq	r2, #0
   d975c:	6122      	streq	r2, [r4, #16]
   d975e:	6163      	streq	r3, [r4, #20]
   d9760:	bf08      	it	eq
   d9762:	61e2      	streq	r2, [r4, #28]
   d9764:	e036      	b.n	d97d4 <localtime_r+0x1b8>
   d9766:	2b00      	cmp	r3, #0
   d9768:	da34      	bge.n	d97d4 <localtime_r+0x1b8>
   d976a:	69e2      	ldr	r2, [r4, #28]
   d976c:	3a01      	subs	r2, #1
   d976e:	61e2      	str	r2, [r4, #28]
   d9770:	69a2      	ldr	r2, [r4, #24]
   d9772:	3a01      	subs	r2, #1
   d9774:	bf48      	it	mi
   d9776:	2206      	movmi	r2, #6
   d9778:	61a2      	str	r2, [r4, #24]
   d977a:	68e2      	ldr	r2, [r4, #12]
   d977c:	3318      	adds	r3, #24
   d977e:	3a01      	subs	r2, #1
   d9780:	60e2      	str	r2, [r4, #12]
   d9782:	60a3      	str	r3, [r4, #8]
   d9784:	bb32      	cbnz	r2, d97d4 <localtime_r+0x1b8>
   d9786:	6923      	ldr	r3, [r4, #16]
   d9788:	3b01      	subs	r3, #1
   d978a:	d401      	bmi.n	d9790 <localtime_r+0x174>
   d978c:	6123      	str	r3, [r4, #16]
   d978e:	e01d      	b.n	d97cc <localtime_r+0x1b0>
   d9790:	230b      	movs	r3, #11
   d9792:	6123      	str	r3, [r4, #16]
   d9794:	6963      	ldr	r3, [r4, #20]
   d9796:	1e5a      	subs	r2, r3, #1
   d9798:	f012 0f03 	tst.w	r2, #3
   d979c:	6162      	str	r2, [r4, #20]
   d979e:	f203 736b 	addw	r3, r3, #1899	; 0x76b
   d97a2:	d105      	bne.n	d97b0 <localtime_r+0x194>
   d97a4:	2164      	movs	r1, #100	; 0x64
   d97a6:	fb93 f2f1 	sdiv	r2, r3, r1
   d97aa:	fb01 3212 	mls	r2, r1, r2, r3
   d97ae:	b94a      	cbnz	r2, d97c4 <localtime_r+0x1a8>
   d97b0:	f44f 71c8 	mov.w	r1, #400	; 0x190
   d97b4:	fb93 f2f1 	sdiv	r2, r3, r1
   d97b8:	fb01 3312 	mls	r3, r1, r2, r3
   d97bc:	fab3 f383 	clz	r3, r3
   d97c0:	095b      	lsrs	r3, r3, #5
   d97c2:	e000      	b.n	d97c6 <localtime_r+0x1aa>
   d97c4:	2301      	movs	r3, #1
   d97c6:	f503 73b6 	add.w	r3, r3, #364	; 0x16c
   d97ca:	61e3      	str	r3, [r4, #28]
   d97cc:	6923      	ldr	r3, [r4, #16]
   d97ce:	f855 3023 	ldr.w	r3, [r5, r3, lsl #2]
   d97d2:	60e3      	str	r3, [r4, #12]
   d97d4:	f000 f9c5 	bl	d9b62 <__tz_unlock>
   d97d8:	4620      	mov	r0, r4
   d97da:	e8bd 81f0 	ldmia.w	sp!, {r4, r5, r6, r7, r8, pc}
   d97de:	bf00      	nop
   d97e0:	000daacc 	.word	0x000daacc
   d97e4:	2003e7e4 	.word	0x2003e7e4

000d97e8 <memcmp>:
   d97e8:	b510      	push	{r4, lr}
   d97ea:	3901      	subs	r1, #1
   d97ec:	4402      	add	r2, r0
   d97ee:	4290      	cmp	r0, r2
   d97f0:	d007      	beq.n	d9802 <memcmp+0x1a>
   d97f2:	f810 3b01 	ldrb.w	r3, [r0], #1
   d97f6:	f811 4f01 	ldrb.w	r4, [r1, #1]!
   d97fa:	42a3      	cmp	r3, r4
   d97fc:	d0f7      	beq.n	d97ee <memcmp+0x6>
   d97fe:	1b18      	subs	r0, r3, r4
   d9800:	bd10      	pop	{r4, pc}
   d9802:	2000      	movs	r0, #0
   d9804:	bd10      	pop	{r4, pc}

000d9806 <memcpy>:
   d9806:	b510      	push	{r4, lr}
   d9808:	1e43      	subs	r3, r0, #1
   d980a:	440a      	add	r2, r1
   d980c:	4291      	cmp	r1, r2
   d980e:	d004      	beq.n	d981a <memcpy+0x14>
   d9810:	f811 4b01 	ldrb.w	r4, [r1], #1
   d9814:	f803 4f01 	strb.w	r4, [r3, #1]!
   d9818:	e7f8      	b.n	d980c <memcpy+0x6>
   d981a:	bd10      	pop	{r4, pc}

000d981c <memset>:
   d981c:	4402      	add	r2, r0
   d981e:	4603      	mov	r3, r0
   d9820:	4293      	cmp	r3, r2
   d9822:	d002      	beq.n	d982a <memset+0xe>
   d9824:	f803 1b01 	strb.w	r1, [r3], #1
   d9828:	e7fa      	b.n	d9820 <memset+0x4>
   d982a:	4770      	bx	lr

000d982c <srand>:
   d982c:	b538      	push	{r3, r4, r5, lr}
   d982e:	4b12      	ldr	r3, [pc, #72]	; (d9878 <srand+0x4c>)
   d9830:	681c      	ldr	r4, [r3, #0]
   d9832:	6ba3      	ldr	r3, [r4, #56]	; 0x38
   d9834:	4605      	mov	r5, r0
   d9836:	b9d3      	cbnz	r3, d986e <srand+0x42>
   d9838:	2018      	movs	r0, #24
   d983a:	f7fd ffef 	bl	d781c <malloc>
   d983e:	f243 330e 	movw	r3, #13070	; 0x330e
   d9842:	63a0      	str	r0, [r4, #56]	; 0x38
   d9844:	8003      	strh	r3, [r0, #0]
   d9846:	f64a 33cd 	movw	r3, #43981	; 0xabcd
   d984a:	8043      	strh	r3, [r0, #2]
   d984c:	f241 2334 	movw	r3, #4660	; 0x1234
   d9850:	8083      	strh	r3, [r0, #4]
   d9852:	f24e 636d 	movw	r3, #58989	; 0xe66d
   d9856:	80c3      	strh	r3, [r0, #6]
   d9858:	f64d 63ec 	movw	r3, #57068	; 0xdeec
   d985c:	8103      	strh	r3, [r0, #8]
   d985e:	2305      	movs	r3, #5
   d9860:	8143      	strh	r3, [r0, #10]
   d9862:	230b      	movs	r3, #11
   d9864:	8183      	strh	r3, [r0, #12]
   d9866:	2201      	movs	r2, #1
   d9868:	2300      	movs	r3, #0
   d986a:	e9c0 2304 	strd	r2, r3, [r0, #16]
   d986e:	6ba3      	ldr	r3, [r4, #56]	; 0x38
   d9870:	2200      	movs	r2, #0
   d9872:	611d      	str	r5, [r3, #16]
   d9874:	615a      	str	r2, [r3, #20]
   d9876:	bd38      	pop	{r3, r4, r5, pc}
   d9878:	2003dc88 	.word	0x2003dc88

000d987c <strcmp>:
   d987c:	f810 2b01 	ldrb.w	r2, [r0], #1
   d9880:	f811 3b01 	ldrb.w	r3, [r1], #1
   d9884:	2a01      	cmp	r2, #1
   d9886:	bf28      	it	cs
   d9888:	429a      	cmpcs	r2, r3
   d988a:	d0f7      	beq.n	d987c <strcmp>
   d988c:	1ad0      	subs	r0, r2, r3
   d988e:	4770      	bx	lr

000d9890 <strcpy>:
   d9890:	4603      	mov	r3, r0
   d9892:	f811 2b01 	ldrb.w	r2, [r1], #1
   d9896:	f803 2b01 	strb.w	r2, [r3], #1
   d989a:	2a00      	cmp	r2, #0
   d989c:	d1f9      	bne.n	d9892 <strcpy+0x2>
   d989e:	4770      	bx	lr

000d98a0 <strlen>:
   d98a0:	4603      	mov	r3, r0
   d98a2:	f813 2b01 	ldrb.w	r2, [r3], #1
   d98a6:	2a00      	cmp	r2, #0
   d98a8:	d1fb      	bne.n	d98a2 <strlen+0x2>
   d98aa:	1a18      	subs	r0, r3, r0
   d98ac:	3801      	subs	r0, #1
   d98ae:	4770      	bx	lr

000d98b0 <strncmp>:
   d98b0:	b530      	push	{r4, r5, lr}
   d98b2:	b182      	cbz	r2, d98d6 <strncmp+0x26>
   d98b4:	1e45      	subs	r5, r0, #1
   d98b6:	3901      	subs	r1, #1
   d98b8:	f815 3f01 	ldrb.w	r3, [r5, #1]!
   d98bc:	f811 4f01 	ldrb.w	r4, [r1, #1]!
   d98c0:	42a3      	cmp	r3, r4
   d98c2:	d106      	bne.n	d98d2 <strncmp+0x22>
   d98c4:	43ec      	mvns	r4, r5
   d98c6:	4414      	add	r4, r2
   d98c8:	42e0      	cmn	r0, r4
   d98ca:	d001      	beq.n	d98d0 <strncmp+0x20>
   d98cc:	2b00      	cmp	r3, #0
   d98ce:	d1f3      	bne.n	d98b8 <strncmp+0x8>
   d98d0:	461c      	mov	r4, r3
   d98d2:	1b18      	subs	r0, r3, r4
   d98d4:	bd30      	pop	{r4, r5, pc}
   d98d6:	4610      	mov	r0, r2
   d98d8:	bd30      	pop	{r4, r5, pc}

000d98da <strncpy>:
   d98da:	b510      	push	{r4, lr}
   d98dc:	4603      	mov	r3, r0
   d98de:	b142      	cbz	r2, d98f2 <strncpy+0x18>
   d98e0:	f811 4b01 	ldrb.w	r4, [r1], #1
   d98e4:	f803 4b01 	strb.w	r4, [r3], #1
   d98e8:	3a01      	subs	r2, #1
   d98ea:	2c00      	cmp	r4, #0
   d98ec:	d1f7      	bne.n	d98de <strncpy+0x4>
   d98ee:	441a      	add	r2, r3
   d98f0:	e000      	b.n	d98f4 <strncpy+0x1a>
   d98f2:	bd10      	pop	{r4, pc}
   d98f4:	4293      	cmp	r3, r2
   d98f6:	d002      	beq.n	d98fe <strncpy+0x24>
   d98f8:	f803 4b01 	strb.w	r4, [r3], #1
   d98fc:	e7fa      	b.n	d98f4 <strncpy+0x1a>
   d98fe:	bd10      	pop	{r4, pc}

000d9900 <_strtoul_r>:
   d9900:	e92d 47f0 	stmdb	sp!, {r4, r5, r6, r7, r8, r9, sl, lr}
   d9904:	4680      	mov	r8, r0
   d9906:	483c      	ldr	r0, [pc, #240]	; (d99f8 <_strtoul_r+0xf8>)
   d9908:	f8d0 9000 	ldr.w	r9, [r0]
   d990c:	460e      	mov	r6, r1
   d990e:	4635      	mov	r5, r6
   d9910:	f815 4b01 	ldrb.w	r4, [r5], #1
   d9914:	eb09 0004 	add.w	r0, r9, r4
   d9918:	7840      	ldrb	r0, [r0, #1]
   d991a:	f000 0008 	and.w	r0, r0, #8
   d991e:	f000 07ff 	and.w	r7, r0, #255	; 0xff
   d9922:	b108      	cbz	r0, d9928 <_strtoul_r+0x28>
   d9924:	462e      	mov	r6, r5
   d9926:	e7f2      	b.n	d990e <_strtoul_r+0xe>
   d9928:	2c2d      	cmp	r4, #45	; 0x2d
   d992a:	d103      	bne.n	d9934 <_strtoul_r+0x34>
   d992c:	1cb5      	adds	r5, r6, #2
   d992e:	7874      	ldrb	r4, [r6, #1]
   d9930:	2701      	movs	r7, #1
   d9932:	e003      	b.n	d993c <_strtoul_r+0x3c>
   d9934:	2c2b      	cmp	r4, #43	; 0x2b
   d9936:	bf04      	itt	eq
   d9938:	7874      	ldrbeq	r4, [r6, #1]
   d993a:	1cb5      	addeq	r5, r6, #2
   d993c:	b113      	cbz	r3, d9944 <_strtoul_r+0x44>
   d993e:	2b10      	cmp	r3, #16
   d9940:	d10a      	bne.n	d9958 <_strtoul_r+0x58>
   d9942:	e053      	b.n	d99ec <_strtoul_r+0xec>
   d9944:	2c30      	cmp	r4, #48	; 0x30
   d9946:	d14f      	bne.n	d99e8 <_strtoul_r+0xe8>
   d9948:	7828      	ldrb	r0, [r5, #0]
   d994a:	f000 00df 	and.w	r0, r0, #223	; 0xdf
   d994e:	2858      	cmp	r0, #88	; 0x58
   d9950:	d145      	bne.n	d99de <_strtoul_r+0xde>
   d9952:	786c      	ldrb	r4, [r5, #1]
   d9954:	2310      	movs	r3, #16
   d9956:	3502      	adds	r5, #2
   d9958:	f04f 3cff 	mov.w	ip, #4294967295
   d995c:	2600      	movs	r6, #0
   d995e:	fbbc fcf3 	udiv	ip, ip, r3
   d9962:	fb03 fa0c 	mul.w	sl, r3, ip
   d9966:	ea6f 0a0a 	mvn.w	sl, sl
   d996a:	4630      	mov	r0, r6
   d996c:	eb09 0e04 	add.w	lr, r9, r4
   d9970:	f89e e001 	ldrb.w	lr, [lr, #1]
   d9974:	f01e 0f04 	tst.w	lr, #4
   d9978:	d001      	beq.n	d997e <_strtoul_r+0x7e>
   d997a:	3c30      	subs	r4, #48	; 0x30
   d997c:	e00b      	b.n	d9996 <_strtoul_r+0x96>
   d997e:	f01e 0e03 	ands.w	lr, lr, #3
   d9982:	d01a      	beq.n	d99ba <_strtoul_r+0xba>
   d9984:	f1be 0f01 	cmp.w	lr, #1
   d9988:	bf0c      	ite	eq
   d998a:	f04f 0e37 	moveq.w	lr, #55	; 0x37
   d998e:	f04f 0e57 	movne.w	lr, #87	; 0x57
   d9992:	ebce 0404 	rsb	r4, lr, r4
   d9996:	42a3      	cmp	r3, r4
   d9998:	dd0f      	ble.n	d99ba <_strtoul_r+0xba>
   d999a:	2e00      	cmp	r6, #0
   d999c:	db08      	blt.n	d99b0 <_strtoul_r+0xb0>
   d999e:	4560      	cmp	r0, ip
   d99a0:	d806      	bhi.n	d99b0 <_strtoul_r+0xb0>
   d99a2:	d101      	bne.n	d99a8 <_strtoul_r+0xa8>
   d99a4:	4554      	cmp	r4, sl
   d99a6:	dc03      	bgt.n	d99b0 <_strtoul_r+0xb0>
   d99a8:	fb03 4000 	mla	r0, r3, r0, r4
   d99ac:	2601      	movs	r6, #1
   d99ae:	e001      	b.n	d99b4 <_strtoul_r+0xb4>
   d99b0:	f04f 36ff 	mov.w	r6, #4294967295
   d99b4:	f815 4b01 	ldrb.w	r4, [r5], #1
   d99b8:	e7d8      	b.n	d996c <_strtoul_r+0x6c>
   d99ba:	2e00      	cmp	r6, #0
   d99bc:	da07      	bge.n	d99ce <_strtoul_r+0xce>
   d99be:	2322      	movs	r3, #34	; 0x22
   d99c0:	f8c8 3000 	str.w	r3, [r8]
   d99c4:	f04f 30ff 	mov.w	r0, #4294967295
   d99c8:	b92a      	cbnz	r2, d99d6 <_strtoul_r+0xd6>
   d99ca:	e8bd 87f0 	ldmia.w	sp!, {r4, r5, r6, r7, r8, r9, sl, pc}
   d99ce:	b107      	cbz	r7, d99d2 <_strtoul_r+0xd2>
   d99d0:	4240      	negs	r0, r0
   d99d2:	b172      	cbz	r2, d99f2 <_strtoul_r+0xf2>
   d99d4:	b106      	cbz	r6, d99d8 <_strtoul_r+0xd8>
   d99d6:	1e69      	subs	r1, r5, #1
   d99d8:	6011      	str	r1, [r2, #0]
   d99da:	e8bd 87f0 	ldmia.w	sp!, {r4, r5, r6, r7, r8, r9, sl, pc}
   d99de:	2430      	movs	r4, #48	; 0x30
   d99e0:	2b00      	cmp	r3, #0
   d99e2:	d1b9      	bne.n	d9958 <_strtoul_r+0x58>
   d99e4:	2308      	movs	r3, #8
   d99e6:	e7b7      	b.n	d9958 <_strtoul_r+0x58>
   d99e8:	230a      	movs	r3, #10
   d99ea:	e7b5      	b.n	d9958 <_strtoul_r+0x58>
   d99ec:	2c30      	cmp	r4, #48	; 0x30
   d99ee:	d0ab      	beq.n	d9948 <_strtoul_r+0x48>
   d99f0:	e7b2      	b.n	d9958 <_strtoul_r+0x58>
   d99f2:	e8bd 87f0 	ldmia.w	sp!, {r4, r5, r6, r7, r8, r9, sl, pc}
   d99f6:	bf00      	nop
   d99f8:	2003dc24 	.word	0x2003dc24

000d99fc <strtoul>:
   d99fc:	4613      	mov	r3, r2
   d99fe:	460a      	mov	r2, r1
   d9a00:	4601      	mov	r1, r0
   d9a02:	4802      	ldr	r0, [pc, #8]	; (d9a0c <strtoul+0x10>)
   d9a04:	6800      	ldr	r0, [r0, #0]
   d9a06:	f7ff bf7b 	b.w	d9900 <_strtoul_r>
   d9a0a:	bf00      	nop
   d9a0c:	2003dc88 	.word	0x2003dc88

000d9a10 <__tzcalc_limits>:
   d9a10:	e92d 4ff7 	stmdb	sp!, {r0, r1, r2, r4, r5, r6, r7, r8, r9, sl, fp, lr}
   d9a14:	4604      	mov	r4, r0
   d9a16:	f000 fa6f 	bl	d9ef8 <__gettzinfo>
   d9a1a:	f240 73b1 	movw	r3, #1969	; 0x7b1
   d9a1e:	429c      	cmp	r4, r3
   d9a20:	f340 8096 	ble.w	d9b50 <__tzcalc_limits+0x140>
   d9a24:	f46f 63f6 	mvn.w	r3, #1968	; 0x7b0
   d9a28:	18e3      	adds	r3, r4, r3
   d9a2a:	f2a4 72b2 	subw	r2, r4, #1970	; 0x7b2
   d9a2e:	109b      	asrs	r3, r3, #2
   d9a30:	f240 156d 	movw	r5, #365	; 0x16d
   d9a34:	fb05 3502 	mla	r5, r5, r2, r3
   d9a38:	f2a4 726d 	subw	r2, r4, #1901	; 0x76d
   d9a3c:	f06f 0363 	mvn.w	r3, #99	; 0x63
   d9a40:	fb92 f3f3 	sdiv	r3, r2, r3
   d9a44:	f46f 62c8 	mvn.w	r2, #1600	; 0x640
   d9a48:	442b      	add	r3, r5
   d9a4a:	18a5      	adds	r5, r4, r2
   d9a4c:	f44f 72c8 	mov.w	r2, #400	; 0x190
   d9a50:	fb95 f5f2 	sdiv	r5, r5, r2
   d9a54:	441d      	add	r5, r3
   d9a56:	2364      	movs	r3, #100	; 0x64
   d9a58:	fb94 f7f2 	sdiv	r7, r4, r2
   d9a5c:	fb94 f6f3 	sdiv	r6, r4, r3
   d9a60:	fb02 4717 	mls	r7, r2, r7, r4
   d9a64:	fb03 4616 	mls	r6, r3, r6, r4
   d9a68:	f100 0338 	add.w	r3, r0, #56	; 0x38
   d9a6c:	fab7 fe87 	clz	lr, r7
   d9a70:	9301      	str	r3, [sp, #4]
   d9a72:	f004 0303 	and.w	r3, r4, #3
   d9a76:	6044      	str	r4, [r0, #4]
   d9a78:	ea4f 1e5e 	mov.w	lr, lr, lsr #5
   d9a7c:	4601      	mov	r1, r0
   d9a7e:	9300      	str	r3, [sp, #0]
   d9a80:	f04f 0c07 	mov.w	ip, #7
   d9a84:	7a0b      	ldrb	r3, [r1, #8]
   d9a86:	2b4a      	cmp	r3, #74	; 0x4a
   d9a88:	d10e      	bne.n	d9aa8 <__tzcalc_limits+0x98>
   d9a8a:	694b      	ldr	r3, [r1, #20]
   d9a8c:	9a00      	ldr	r2, [sp, #0]
   d9a8e:	18ec      	adds	r4, r5, r3
   d9a90:	b902      	cbnz	r2, d9a94 <__tzcalc_limits+0x84>
   d9a92:	b906      	cbnz	r6, d9a96 <__tzcalc_limits+0x86>
   d9a94:	b927      	cbnz	r7, d9aa0 <__tzcalc_limits+0x90>
   d9a96:	2b3b      	cmp	r3, #59	; 0x3b
   d9a98:	bfd4      	ite	le
   d9a9a:	2300      	movle	r3, #0
   d9a9c:	2301      	movgt	r3, #1
   d9a9e:	e000      	b.n	d9aa2 <__tzcalc_limits+0x92>
   d9aa0:	2300      	movs	r3, #0
   d9aa2:	4423      	add	r3, r4
   d9aa4:	3b01      	subs	r3, #1
   d9aa6:	e03f      	b.n	d9b28 <__tzcalc_limits+0x118>
   d9aa8:	2b44      	cmp	r3, #68	; 0x44
   d9aaa:	d102      	bne.n	d9ab2 <__tzcalc_limits+0xa2>
   d9aac:	694b      	ldr	r3, [r1, #20]
   d9aae:	442b      	add	r3, r5
   d9ab0:	e03a      	b.n	d9b28 <__tzcalc_limits+0x118>
   d9ab2:	9b00      	ldr	r3, [sp, #0]
   d9ab4:	b92b      	cbnz	r3, d9ac2 <__tzcalc_limits+0xb2>
   d9ab6:	2e00      	cmp	r6, #0
   d9ab8:	bf0c      	ite	eq
   d9aba:	46f0      	moveq	r8, lr
   d9abc:	f04f 0801 	movne.w	r8, #1
   d9ac0:	e000      	b.n	d9ac4 <__tzcalc_limits+0xb4>
   d9ac2:	46f0      	mov	r8, lr
   d9ac4:	4b24      	ldr	r3, [pc, #144]	; (d9b58 <__tzcalc_limits+0x148>)
   d9ac6:	68cc      	ldr	r4, [r1, #12]
   d9ac8:	2230      	movs	r2, #48	; 0x30
   d9aca:	fb02 3808 	mla	r8, r2, r8, r3
   d9ace:	f1a8 0a04 	sub.w	sl, r8, #4
   d9ad2:	46a9      	mov	r9, r5
   d9ad4:	2301      	movs	r3, #1
   d9ad6:	42a3      	cmp	r3, r4
   d9ad8:	da04      	bge.n	d9ae4 <__tzcalc_limits+0xd4>
   d9ada:	f85a bf04 	ldr.w	fp, [sl, #4]!
   d9ade:	3301      	adds	r3, #1
   d9ae0:	44d9      	add	r9, fp
   d9ae2:	e7f8      	b.n	d9ad6 <__tzcalc_limits+0xc6>
   d9ae4:	f109 0304 	add.w	r3, r9, #4
   d9ae8:	fb93 fbfc 	sdiv	fp, r3, ip
   d9aec:	ebcb 0acb 	rsb	sl, fp, fp, lsl #3
   d9af0:	2c01      	cmp	r4, #1
   d9af2:	ebca 0a03 	rsb	sl, sl, r3
   d9af6:	694b      	ldr	r3, [r1, #20]
   d9af8:	bfb8      	it	lt
   d9afa:	2401      	movlt	r4, #1
   d9afc:	f104 4480 	add.w	r4, r4, #1073741824	; 0x40000000
   d9b00:	ebb3 0a0a 	subs.w	sl, r3, sl
   d9b04:	690b      	ldr	r3, [r1, #16]
   d9b06:	f104 34ff 	add.w	r4, r4, #4294967295
   d9b0a:	f103 33ff 	add.w	r3, r3, #4294967295
   d9b0e:	bf48      	it	mi
   d9b10:	f10a 0a07 	addmi.w	sl, sl, #7
   d9b14:	ebc3 03c3 	rsb	r3, r3, r3, lsl #3
   d9b18:	f858 4024 	ldr.w	r4, [r8, r4, lsl #2]
   d9b1c:	4453      	add	r3, sl
   d9b1e:	42a3      	cmp	r3, r4
   d9b20:	db01      	blt.n	d9b26 <__tzcalc_limits+0x116>
   d9b22:	3b07      	subs	r3, #7
   d9b24:	e7fb      	b.n	d9b1e <__tzcalc_limits+0x10e>
   d9b26:	444b      	add	r3, r9
   d9b28:	698c      	ldr	r4, [r1, #24]
   d9b2a:	4a0c      	ldr	r2, [pc, #48]	; (d9b5c <__tzcalc_limits+0x14c>)
   d9b2c:	fb02 4303 	mla	r3, r2, r3, r4
   d9b30:	6a0c      	ldr	r4, [r1, #32]
   d9b32:	4423      	add	r3, r4
   d9b34:	f841 3f1c 	str.w	r3, [r1, #28]!
   d9b38:	9b01      	ldr	r3, [sp, #4]
   d9b3a:	4299      	cmp	r1, r3
   d9b3c:	d1a2      	bne.n	d9a84 <__tzcalc_limits+0x74>
   d9b3e:	69c3      	ldr	r3, [r0, #28]
   d9b40:	6b82      	ldr	r2, [r0, #56]	; 0x38
   d9b42:	4293      	cmp	r3, r2
   d9b44:	bfac      	ite	ge
   d9b46:	2300      	movge	r3, #0
   d9b48:	2301      	movlt	r3, #1
   d9b4a:	6003      	str	r3, [r0, #0]
   d9b4c:	2001      	movs	r0, #1
   d9b4e:	e000      	b.n	d9b52 <__tzcalc_limits+0x142>
   d9b50:	2000      	movs	r0, #0
   d9b52:	b003      	add	sp, #12
   d9b54:	e8bd 8ff0 	ldmia.w	sp!, {r4, r5, r6, r7, r8, r9, sl, fp, pc}
   d9b58:	000daacc 	.word	0x000daacc
   d9b5c:	00015180 	.word	0x00015180

000d9b60 <__tz_lock>:
   d9b60:	4770      	bx	lr

000d9b62 <__tz_unlock>:
   d9b62:	4770      	bx	lr

000d9b64 <_tzset_unlocked>:
   d9b64:	4b01      	ldr	r3, [pc, #4]	; (d9b6c <_tzset_unlocked+0x8>)
   d9b66:	6818      	ldr	r0, [r3, #0]
   d9b68:	f000 b802 	b.w	d9b70 <_tzset_unlocked_r>
   d9b6c:	2003dc88 	.word	0x2003dc88

000d9b70 <_tzset_unlocked_r>:
   d9b70:	e92d 4ff0 	stmdb	sp!, {r4, r5, r6, r7, r8, r9, sl, fp, lr}
   d9b74:	b08d      	sub	sp, #52	; 0x34
   d9b76:	4607      	mov	r7, r0
   d9b78:	f000 f9be 	bl	d9ef8 <__gettzinfo>
   d9b7c:	49b0      	ldr	r1, [pc, #704]	; (d9e40 <_tzset_unlocked_r+0x2d0>)
   d9b7e:	4eb1      	ldr	r6, [pc, #708]	; (d9e44 <_tzset_unlocked_r+0x2d4>)
   d9b80:	4604      	mov	r4, r0
   d9b82:	4638      	mov	r0, r7
   d9b84:	f000 f9b0 	bl	d9ee8 <_getenv_r>
   d9b88:	4605      	mov	r5, r0
   d9b8a:	b960      	cbnz	r0, d9ba6 <_tzset_unlocked_r+0x36>
   d9b8c:	4bae      	ldr	r3, [pc, #696]	; (d9e48 <_tzset_unlocked_r+0x2d8>)
   d9b8e:	4aaf      	ldr	r2, [pc, #700]	; (d9e4c <_tzset_unlocked_r+0x2dc>)
   d9b90:	6018      	str	r0, [r3, #0]
   d9b92:	4baf      	ldr	r3, [pc, #700]	; (d9e50 <_tzset_unlocked_r+0x2e0>)
   d9b94:	6018      	str	r0, [r3, #0]
   d9b96:	4baf      	ldr	r3, [pc, #700]	; (d9e54 <_tzset_unlocked_r+0x2e4>)
   d9b98:	6830      	ldr	r0, [r6, #0]
   d9b9a:	601a      	str	r2, [r3, #0]
   d9b9c:	605a      	str	r2, [r3, #4]
   d9b9e:	f7fd fe45 	bl	d782c <free>
   d9ba2:	6035      	str	r5, [r6, #0]
   d9ba4:	e148      	b.n	d9e38 <_tzset_unlocked_r+0x2c8>
   d9ba6:	6831      	ldr	r1, [r6, #0]
   d9ba8:	b979      	cbnz	r1, d9bca <_tzset_unlocked_r+0x5a>
   d9baa:	6830      	ldr	r0, [r6, #0]
   d9bac:	f7fd fe3e 	bl	d782c <free>
   d9bb0:	4628      	mov	r0, r5
   d9bb2:	f7ff fe75 	bl	d98a0 <strlen>
   d9bb6:	1c41      	adds	r1, r0, #1
   d9bb8:	4638      	mov	r0, r7
   d9bba:	f7fd fe5f 	bl	d787c <_malloc_r>
   d9bbe:	6030      	str	r0, [r6, #0]
   d9bc0:	b148      	cbz	r0, d9bd6 <_tzset_unlocked_r+0x66>
   d9bc2:	4629      	mov	r1, r5
   d9bc4:	f7ff fe64 	bl	d9890 <strcpy>
   d9bc8:	e005      	b.n	d9bd6 <_tzset_unlocked_r+0x66>
   d9bca:	f7ff fe57 	bl	d987c <strcmp>
   d9bce:	2800      	cmp	r0, #0
   d9bd0:	f000 8132 	beq.w	d9e38 <_tzset_unlocked_r+0x2c8>
   d9bd4:	e7e9      	b.n	d9baa <_tzset_unlocked_r+0x3a>
   d9bd6:	782b      	ldrb	r3, [r5, #0]
   d9bd8:	4a9f      	ldr	r2, [pc, #636]	; (d9e58 <_tzset_unlocked_r+0x2e8>)
   d9bda:	49a0      	ldr	r1, [pc, #640]	; (d9e5c <_tzset_unlocked_r+0x2ec>)
   d9bdc:	2b3a      	cmp	r3, #58	; 0x3a
   d9bde:	bf08      	it	eq
   d9be0:	3501      	addeq	r5, #1
   d9be2:	ae0a      	add	r6, sp, #40	; 0x28
   d9be4:	4633      	mov	r3, r6
   d9be6:	4628      	mov	r0, r5
   d9be8:	f7fd fe38 	bl	d785c <siscanf>
   d9bec:	2800      	cmp	r0, #0
   d9bee:	f340 8123 	ble.w	d9e38 <_tzset_unlocked_r+0x2c8>
   d9bf2:	9b0a      	ldr	r3, [sp, #40]	; 0x28
   d9bf4:	18ef      	adds	r7, r5, r3
   d9bf6:	5ceb      	ldrb	r3, [r5, r3]
   d9bf8:	2b2d      	cmp	r3, #45	; 0x2d
   d9bfa:	d103      	bne.n	d9c04 <_tzset_unlocked_r+0x94>
   d9bfc:	3701      	adds	r7, #1
   d9bfe:	f04f 35ff 	mov.w	r5, #4294967295
   d9c02:	e003      	b.n	d9c0c <_tzset_unlocked_r+0x9c>
   d9c04:	2b2b      	cmp	r3, #43	; 0x2b
   d9c06:	bf08      	it	eq
   d9c08:	3701      	addeq	r7, #1
   d9c0a:	2501      	movs	r5, #1
   d9c0c:	f10d 0a20 	add.w	sl, sp, #32
   d9c10:	f10d 0b1e 	add.w	fp, sp, #30
   d9c14:	f04f 0800 	mov.w	r8, #0
   d9c18:	9603      	str	r6, [sp, #12]
   d9c1a:	f8cd a008 	str.w	sl, [sp, #8]
   d9c1e:	9601      	str	r6, [sp, #4]
   d9c20:	f8cd b000 	str.w	fp, [sp]
   d9c24:	4633      	mov	r3, r6
   d9c26:	aa07      	add	r2, sp, #28
   d9c28:	498d      	ldr	r1, [pc, #564]	; (d9e60 <_tzset_unlocked_r+0x2f0>)
   d9c2a:	f8ad 801e 	strh.w	r8, [sp, #30]
   d9c2e:	4638      	mov	r0, r7
   d9c30:	f8ad 8020 	strh.w	r8, [sp, #32]
   d9c34:	f7fd fe12 	bl	d785c <siscanf>
   d9c38:	4540      	cmp	r0, r8
   d9c3a:	f340 80fd 	ble.w	d9e38 <_tzset_unlocked_r+0x2c8>
   d9c3e:	f8bd 201e 	ldrh.w	r2, [sp, #30]
   d9c42:	f8bd 3020 	ldrh.w	r3, [sp, #32]
   d9c46:	f8df 9224 	ldr.w	r9, [pc, #548]	; d9e6c <_tzset_unlocked_r+0x2fc>
   d9c4a:	213c      	movs	r1, #60	; 0x3c
   d9c4c:	fb01 3302 	mla	r3, r1, r2, r3
   d9c50:	f8bd 201c 	ldrh.w	r2, [sp, #28]
   d9c54:	f44f 6161 	mov.w	r1, #3600	; 0xe10
   d9c58:	fb01 3302 	mla	r3, r1, r2, r3
   d9c5c:	435d      	muls	r5, r3
   d9c5e:	6225      	str	r5, [r4, #32]
   d9c60:	4d7c      	ldr	r5, [pc, #496]	; (d9e54 <_tzset_unlocked_r+0x2e4>)
   d9c62:	4b7d      	ldr	r3, [pc, #500]	; (d9e58 <_tzset_unlocked_r+0x2e8>)
   d9c64:	602b      	str	r3, [r5, #0]
   d9c66:	9b0a      	ldr	r3, [sp, #40]	; 0x28
   d9c68:	497c      	ldr	r1, [pc, #496]	; (d9e5c <_tzset_unlocked_r+0x2ec>)
   d9c6a:	441f      	add	r7, r3
   d9c6c:	464a      	mov	r2, r9
   d9c6e:	4633      	mov	r3, r6
   d9c70:	4638      	mov	r0, r7
   d9c72:	f7fd fdf3 	bl	d785c <siscanf>
   d9c76:	4540      	cmp	r0, r8
   d9c78:	dc08      	bgt.n	d9c8c <_tzset_unlocked_r+0x11c>
   d9c7a:	682b      	ldr	r3, [r5, #0]
   d9c7c:	606b      	str	r3, [r5, #4]
   d9c7e:	4b72      	ldr	r3, [pc, #456]	; (d9e48 <_tzset_unlocked_r+0x2d8>)
   d9c80:	6a22      	ldr	r2, [r4, #32]
   d9c82:	601a      	str	r2, [r3, #0]
   d9c84:	4b72      	ldr	r3, [pc, #456]	; (d9e50 <_tzset_unlocked_r+0x2e0>)
   d9c86:	f8c3 8000 	str.w	r8, [r3]
   d9c8a:	e0d5      	b.n	d9e38 <_tzset_unlocked_r+0x2c8>
   d9c8c:	9b0a      	ldr	r3, [sp, #40]	; 0x28
   d9c8e:	f8c5 9004 	str.w	r9, [r5, #4]
   d9c92:	18fd      	adds	r5, r7, r3
   d9c94:	5cfb      	ldrb	r3, [r7, r3]
   d9c96:	2b2d      	cmp	r3, #45	; 0x2d
   d9c98:	d103      	bne.n	d9ca2 <_tzset_unlocked_r+0x132>
   d9c9a:	3501      	adds	r5, #1
   d9c9c:	f04f 37ff 	mov.w	r7, #4294967295
   d9ca0:	e003      	b.n	d9caa <_tzset_unlocked_r+0x13a>
   d9ca2:	2b2b      	cmp	r3, #43	; 0x2b
   d9ca4:	bf08      	it	eq
   d9ca6:	3501      	addeq	r5, #1
   d9ca8:	2701      	movs	r7, #1
   d9caa:	2300      	movs	r3, #0
   d9cac:	f8ad 301c 	strh.w	r3, [sp, #28]
   d9cb0:	f8ad 301e 	strh.w	r3, [sp, #30]
   d9cb4:	f8ad 3020 	strh.w	r3, [sp, #32]
   d9cb8:	930a      	str	r3, [sp, #40]	; 0x28
   d9cba:	9603      	str	r6, [sp, #12]
   d9cbc:	f8cd a008 	str.w	sl, [sp, #8]
   d9cc0:	9601      	str	r6, [sp, #4]
   d9cc2:	f8cd b000 	str.w	fp, [sp]
   d9cc6:	4633      	mov	r3, r6
   d9cc8:	aa07      	add	r2, sp, #28
   d9cca:	4965      	ldr	r1, [pc, #404]	; (d9e60 <_tzset_unlocked_r+0x2f0>)
   d9ccc:	4628      	mov	r0, r5
   d9cce:	f7fd fdc5 	bl	d785c <siscanf>
   d9cd2:	2800      	cmp	r0, #0
   d9cd4:	dc04      	bgt.n	d9ce0 <_tzset_unlocked_r+0x170>
   d9cd6:	6a23      	ldr	r3, [r4, #32]
   d9cd8:	f5a3 6361 	sub.w	r3, r3, #3600	; 0xe10
   d9cdc:	63e3      	str	r3, [r4, #60]	; 0x3c
   d9cde:	e00e      	b.n	d9cfe <_tzset_unlocked_r+0x18e>
   d9ce0:	f8bd 201e 	ldrh.w	r2, [sp, #30]
   d9ce4:	f8bd 3020 	ldrh.w	r3, [sp, #32]
   d9ce8:	213c      	movs	r1, #60	; 0x3c
   d9cea:	fb01 3302 	mla	r3, r1, r2, r3
   d9cee:	f8bd 201c 	ldrh.w	r2, [sp, #28]
   d9cf2:	f44f 6161 	mov.w	r1, #3600	; 0xe10
   d9cf6:	fb01 3302 	mla	r3, r1, r2, r3
   d9cfa:	435f      	muls	r7, r3
   d9cfc:	63e7      	str	r7, [r4, #60]	; 0x3c
   d9cfe:	9b0a      	ldr	r3, [sp, #40]	; 0x28
   d9d00:	4627      	mov	r7, r4
   d9d02:	441d      	add	r5, r3
   d9d04:	f04f 0900 	mov.w	r9, #0
   d9d08:	782b      	ldrb	r3, [r5, #0]
   d9d0a:	2b2c      	cmp	r3, #44	; 0x2c
   d9d0c:	bf08      	it	eq
   d9d0e:	3501      	addeq	r5, #1
   d9d10:	f895 8000 	ldrb.w	r8, [r5]
   d9d14:	f1b8 0f4d 	cmp.w	r8, #77	; 0x4d
   d9d18:	d126      	bne.n	d9d68 <_tzset_unlocked_r+0x1f8>
   d9d1a:	f10d 0326 	add.w	r3, sp, #38	; 0x26
   d9d1e:	9302      	str	r3, [sp, #8]
   d9d20:	ab09      	add	r3, sp, #36	; 0x24
   d9d22:	9300      	str	r3, [sp, #0]
   d9d24:	9603      	str	r6, [sp, #12]
   d9d26:	9601      	str	r6, [sp, #4]
   d9d28:	4633      	mov	r3, r6
   d9d2a:	f10d 0222 	add.w	r2, sp, #34	; 0x22
   d9d2e:	494d      	ldr	r1, [pc, #308]	; (d9e64 <_tzset_unlocked_r+0x2f4>)
   d9d30:	4628      	mov	r0, r5
   d9d32:	f7fd fd93 	bl	d785c <siscanf>
   d9d36:	2803      	cmp	r0, #3
   d9d38:	d17e      	bne.n	d9e38 <_tzset_unlocked_r+0x2c8>
   d9d3a:	f8bd 1022 	ldrh.w	r1, [sp, #34]	; 0x22
   d9d3e:	1e4b      	subs	r3, r1, #1
   d9d40:	2b0b      	cmp	r3, #11
   d9d42:	d879      	bhi.n	d9e38 <_tzset_unlocked_r+0x2c8>
   d9d44:	f8bd 2024 	ldrh.w	r2, [sp, #36]	; 0x24
   d9d48:	1e53      	subs	r3, r2, #1
   d9d4a:	2b04      	cmp	r3, #4
   d9d4c:	d874      	bhi.n	d9e38 <_tzset_unlocked_r+0x2c8>
   d9d4e:	f8bd 3026 	ldrh.w	r3, [sp, #38]	; 0x26
   d9d52:	2b06      	cmp	r3, #6
   d9d54:	d870      	bhi.n	d9e38 <_tzset_unlocked_r+0x2c8>
   d9d56:	f887 8008 	strb.w	r8, [r7, #8]
   d9d5a:	60f9      	str	r1, [r7, #12]
   d9d5c:	613a      	str	r2, [r7, #16]
   d9d5e:	617b      	str	r3, [r7, #20]
   d9d60:	9b0a      	ldr	r3, [sp, #40]	; 0x28
   d9d62:	eb05 0803 	add.w	r8, r5, r3
   d9d66:	e02a      	b.n	d9dbe <_tzset_unlocked_r+0x24e>
   d9d68:	f1b8 0f4a 	cmp.w	r8, #74	; 0x4a
   d9d6c:	bf06      	itte	eq
   d9d6e:	3501      	addeq	r5, #1
   d9d70:	4643      	moveq	r3, r8
   d9d72:	2344      	movne	r3, #68	; 0x44
   d9d74:	220a      	movs	r2, #10
   d9d76:	a90b      	add	r1, sp, #44	; 0x2c
   d9d78:	4628      	mov	r0, r5
   d9d7a:	9305      	str	r3, [sp, #20]
   d9d7c:	f7ff fe3e 	bl	d99fc <strtoul>
   d9d80:	f8dd 802c 	ldr.w	r8, [sp, #44]	; 0x2c
   d9d84:	f8ad 0026 	strh.w	r0, [sp, #38]	; 0x26
   d9d88:	4545      	cmp	r5, r8
   d9d8a:	9b05      	ldr	r3, [sp, #20]
   d9d8c:	d114      	bne.n	d9db8 <_tzset_unlocked_r+0x248>
   d9d8e:	234d      	movs	r3, #77	; 0x4d
   d9d90:	f1b9 0f00 	cmp.w	r9, #0
   d9d94:	d107      	bne.n	d9da6 <_tzset_unlocked_r+0x236>
   d9d96:	7223      	strb	r3, [r4, #8]
   d9d98:	2303      	movs	r3, #3
   d9d9a:	60e3      	str	r3, [r4, #12]
   d9d9c:	2302      	movs	r3, #2
   d9d9e:	6123      	str	r3, [r4, #16]
   d9da0:	f8c4 9014 	str.w	r9, [r4, #20]
   d9da4:	e00b      	b.n	d9dbe <_tzset_unlocked_r+0x24e>
   d9da6:	f884 3024 	strb.w	r3, [r4, #36]	; 0x24
   d9daa:	230b      	movs	r3, #11
   d9dac:	62a3      	str	r3, [r4, #40]	; 0x28
   d9dae:	2301      	movs	r3, #1
   d9db0:	62e3      	str	r3, [r4, #44]	; 0x2c
   d9db2:	2300      	movs	r3, #0
   d9db4:	6323      	str	r3, [r4, #48]	; 0x30
   d9db6:	e002      	b.n	d9dbe <_tzset_unlocked_r+0x24e>
   d9db8:	b280      	uxth	r0, r0
   d9dba:	723b      	strb	r3, [r7, #8]
   d9dbc:	6178      	str	r0, [r7, #20]
   d9dbe:	2302      	movs	r3, #2
   d9dc0:	f8ad 301c 	strh.w	r3, [sp, #28]
   d9dc4:	2300      	movs	r3, #0
   d9dc6:	f8ad 301e 	strh.w	r3, [sp, #30]
   d9dca:	f8ad 3020 	strh.w	r3, [sp, #32]
   d9dce:	930a      	str	r3, [sp, #40]	; 0x28
   d9dd0:	f898 3000 	ldrb.w	r3, [r8]
   d9dd4:	2b2f      	cmp	r3, #47	; 0x2f
   d9dd6:	d10b      	bne.n	d9df0 <_tzset_unlocked_r+0x280>
   d9dd8:	9603      	str	r6, [sp, #12]
   d9dda:	f8cd a008 	str.w	sl, [sp, #8]
   d9dde:	9601      	str	r6, [sp, #4]
   d9de0:	f8cd b000 	str.w	fp, [sp]
   d9de4:	4633      	mov	r3, r6
   d9de6:	aa07      	add	r2, sp, #28
   d9de8:	491f      	ldr	r1, [pc, #124]	; (d9e68 <_tzset_unlocked_r+0x2f8>)
   d9dea:	4640      	mov	r0, r8
   d9dec:	f7fd fd36 	bl	d785c <siscanf>
   d9df0:	f8bd 201e 	ldrh.w	r2, [sp, #30]
   d9df4:	f8bd 3020 	ldrh.w	r3, [sp, #32]
   d9df8:	213c      	movs	r1, #60	; 0x3c
   d9dfa:	fb01 3302 	mla	r3, r1, r2, r3
   d9dfe:	f8bd 201c 	ldrh.w	r2, [sp, #28]
   d9e02:	f44f 6161 	mov.w	r1, #3600	; 0xe10
   d9e06:	fb01 3302 	mla	r3, r1, r2, r3
   d9e0a:	61bb      	str	r3, [r7, #24]
   d9e0c:	9d0a      	ldr	r5, [sp, #40]	; 0x28
   d9e0e:	f109 0901 	add.w	r9, r9, #1
   d9e12:	f1b9 0f02 	cmp.w	r9, #2
   d9e16:	4445      	add	r5, r8
   d9e18:	f107 071c 	add.w	r7, r7, #28
   d9e1c:	f47f af74 	bne.w	d9d08 <_tzset_unlocked_r+0x198>
   d9e20:	6860      	ldr	r0, [r4, #4]
   d9e22:	f7ff fdf5 	bl	d9a10 <__tzcalc_limits>
   d9e26:	4b08      	ldr	r3, [pc, #32]	; (d9e48 <_tzset_unlocked_r+0x2d8>)
   d9e28:	6a22      	ldr	r2, [r4, #32]
   d9e2a:	601a      	str	r2, [r3, #0]
   d9e2c:	6be3      	ldr	r3, [r4, #60]	; 0x3c
   d9e2e:	1a9b      	subs	r3, r3, r2
   d9e30:	4a07      	ldr	r2, [pc, #28]	; (d9e50 <_tzset_unlocked_r+0x2e0>)
   d9e32:	bf18      	it	ne
   d9e34:	2301      	movne	r3, #1
   d9e36:	6013      	str	r3, [r2, #0]
   d9e38:	b00d      	add	sp, #52	; 0x34
   d9e3a:	e8bd 8ff0 	ldmia.w	sp!, {r4, r5, r6, r7, r8, r9, sl, fp, pc}
   d9e3e:	bf00      	nop
   d9e40:	000dab2c 	.word	0x000dab2c
   d9e44:	2003e7e0 	.word	0x2003e7e0
   d9e48:	2003e7e8 	.word	0x2003e7e8
   d9e4c:	000dab2f 	.word	0x000dab2f
   d9e50:	2003e7e4 	.word	0x2003e7e4
   d9e54:	2003dc8c 	.word	0x2003dc8c
   d9e58:	2003e7d3 	.word	0x2003e7d3
   d9e5c:	000dab33 	.word	0x000dab33
   d9e60:	000dab56 	.word	0x000dab56
   d9e64:	000dab42 	.word	0x000dab42
   d9e68:	000dab55 	.word	0x000dab55
   d9e6c:	2003e7c8 	.word	0x2003e7c8

000d9e70 <_findenv_r>:
   d9e70:	e92d 4ff8 	stmdb	sp!, {r3, r4, r5, r6, r7, r8, r9, sl, fp, lr}
   d9e74:	4607      	mov	r7, r0
   d9e76:	468b      	mov	fp, r1
   d9e78:	4690      	mov	r8, r2
   d9e7a:	f000 f8d9 	bl	da030 <__env_lock>
   d9e7e:	4b19      	ldr	r3, [pc, #100]	; (d9ee4 <_findenv_r+0x74>)
   d9e80:	681d      	ldr	r5, [r3, #0]
   d9e82:	469a      	mov	sl, r3
   d9e84:	b13d      	cbz	r5, d9e96 <_findenv_r+0x26>
   d9e86:	465c      	mov	r4, fp
   d9e88:	4623      	mov	r3, r4
   d9e8a:	f813 2b01 	ldrb.w	r2, [r3], #1
   d9e8e:	b142      	cbz	r2, d9ea2 <_findenv_r+0x32>
   d9e90:	2a3d      	cmp	r2, #61	; 0x3d
   d9e92:	461c      	mov	r4, r3
   d9e94:	d1f8      	bne.n	d9e88 <_findenv_r+0x18>
   d9e96:	4638      	mov	r0, r7
   d9e98:	f000 f8cb 	bl	da032 <__env_unlock>
   d9e9c:	2000      	movs	r0, #0
   d9e9e:	e8bd 8ff8 	ldmia.w	sp!, {r3, r4, r5, r6, r7, r8, r9, sl, fp, pc}
   d9ea2:	ebcb 0404 	rsb	r4, fp, r4
   d9ea6:	46a9      	mov	r9, r5
   d9ea8:	f859 0b04 	ldr.w	r0, [r9], #4
   d9eac:	2800      	cmp	r0, #0
   d9eae:	d0f2      	beq.n	d9e96 <_findenv_r+0x26>
   d9eb0:	4622      	mov	r2, r4
   d9eb2:	4659      	mov	r1, fp
   d9eb4:	f7ff fcfc 	bl	d98b0 <strncmp>
   d9eb8:	b988      	cbnz	r0, d9ede <_findenv_r+0x6e>
   d9eba:	f859 3c04 	ldr.w	r3, [r9, #-4]
   d9ebe:	191e      	adds	r6, r3, r4
   d9ec0:	5d1b      	ldrb	r3, [r3, r4]
   d9ec2:	2b3d      	cmp	r3, #61	; 0x3d
   d9ec4:	d10b      	bne.n	d9ede <_findenv_r+0x6e>
   d9ec6:	f8da 3000 	ldr.w	r3, [sl]
   d9eca:	1aed      	subs	r5, r5, r3
   d9ecc:	10ad      	asrs	r5, r5, #2
   d9ece:	4638      	mov	r0, r7
   d9ed0:	f8c8 5000 	str.w	r5, [r8]
   d9ed4:	f000 f8ad 	bl	da032 <__env_unlock>
   d9ed8:	1c70      	adds	r0, r6, #1
   d9eda:	e8bd 8ff8 	ldmia.w	sp!, {r3, r4, r5, r6, r7, r8, r9, sl, fp, pc}
   d9ede:	464d      	mov	r5, r9
   d9ee0:	e7e1      	b.n	d9ea6 <_findenv_r+0x36>
   d9ee2:	bf00      	nop
   d9ee4:	2003dcd4 	.word	0x2003dcd4

000d9ee8 <_getenv_r>:
   d9ee8:	b507      	push	{r0, r1, r2, lr}
   d9eea:	aa01      	add	r2, sp, #4
   d9eec:	f7ff ffc0 	bl	d9e70 <_findenv_r>
   d9ef0:	b003      	add	sp, #12
   d9ef2:	f85d fb04 	ldr.w	pc, [sp], #4
	...

000d9ef8 <__gettzinfo>:
   d9ef8:	4800      	ldr	r0, [pc, #0]	; (d9efc <__gettzinfo+0x4>)
   d9efa:	4770      	bx	lr
   d9efc:	2003dc94 	.word	0x2003dc94

000d9f00 <gmtime_r>:
   d9f00:	6802      	ldr	r2, [r0, #0]
   d9f02:	4b47      	ldr	r3, [pc, #284]	; (da020 <gmtime_r+0x120>)
   d9f04:	b5f0      	push	{r4, r5, r6, r7, lr}
   d9f06:	fb92 f4f3 	sdiv	r4, r2, r3
   d9f0a:	fb03 2214 	mls	r2, r3, r4, r2
   d9f0e:	2a00      	cmp	r2, #0
   d9f10:	bfbc      	itt	lt
   d9f12:	f502 32a8 	addlt.w	r2, r2, #86016	; 0x15000
   d9f16:	f502 72c0 	addlt.w	r2, r2, #384	; 0x180
   d9f1a:	f44f 6061 	mov.w	r0, #3600	; 0xe10
   d9f1e:	f504 242f 	add.w	r4, r4, #716800	; 0xaf000
   d9f22:	fb92 f3f0 	sdiv	r3, r2, r0
   d9f26:	fb00 2213 	mls	r2, r0, r3, r2
   d9f2a:	f04f 003c 	mov.w	r0, #60	; 0x3c
   d9f2e:	bfac      	ite	ge
   d9f30:	f604 246c 	addwge	r4, r4, #2668	; 0xa6c
   d9f34:	f604 246b 	addwlt	r4, r4, #2667	; 0xa6b
   d9f38:	608b      	str	r3, [r1, #8]
   d9f3a:	fb92 f3f0 	sdiv	r3, r2, r0
   d9f3e:	fb00 2213 	mls	r2, r0, r3, r2
   d9f42:	604b      	str	r3, [r1, #4]
   d9f44:	600a      	str	r2, [r1, #0]
   d9f46:	2307      	movs	r3, #7
   d9f48:	1ce2      	adds	r2, r4, #3
   d9f4a:	fb92 f3f3 	sdiv	r3, r2, r3
   d9f4e:	ebc3 03c3 	rsb	r3, r3, r3, lsl #3
   d9f52:	1ad3      	subs	r3, r2, r3
   d9f54:	618b      	str	r3, [r1, #24]
   d9f56:	4b33      	ldr	r3, [pc, #204]	; (da024 <gmtime_r+0x124>)
   d9f58:	4d33      	ldr	r5, [pc, #204]	; (da028 <gmtime_r+0x128>)
   d9f5a:	fb94 f5f5 	sdiv	r5, r4, r5
   d9f5e:	fb03 4405 	mla	r4, r3, r5, r4
   d9f62:	f648 62ac 	movw	r2, #36524	; 0x8eac
   d9f66:	fbb4 f2f2 	udiv	r2, r4, r2
   d9f6a:	4422      	add	r2, r4
   d9f6c:	f240 57b4 	movw	r7, #1460	; 0x5b4
   d9f70:	fbb4 f3f7 	udiv	r3, r4, r7
   d9f74:	1ad2      	subs	r2, r2, r3
   d9f76:	482d      	ldr	r0, [pc, #180]	; (da02c <gmtime_r+0x12c>)
   d9f78:	fbb4 f0f0 	udiv	r0, r4, r0
   d9f7c:	f648 6694 	movw	r6, #36500	; 0x8e94
   d9f80:	1a13      	subs	r3, r2, r0
   d9f82:	fbb3 f6f6 	udiv	r6, r3, r6
   d9f86:	4434      	add	r4, r6
   d9f88:	f240 126d 	movw	r2, #365	; 0x16d
   d9f8c:	fbb3 f0f2 	udiv	r0, r3, r2
   d9f90:	fbb3 f3f7 	udiv	r3, r3, r7
   d9f94:	1ae3      	subs	r3, r4, r3
   d9f96:	fb02 3310 	mls	r3, r2, r0, r3
   d9f9a:	2499      	movs	r4, #153	; 0x99
   d9f9c:	eb03 0283 	add.w	r2, r3, r3, lsl #2
   d9fa0:	3202      	adds	r2, #2
   d9fa2:	fbb2 f2f4 	udiv	r2, r2, r4
   d9fa6:	2a0a      	cmp	r2, #10
   d9fa8:	fb04 f402 	mul.w	r4, r4, r2
   d9fac:	f104 0602 	add.w	r6, r4, #2
   d9fb0:	f04f 0405 	mov.w	r4, #5
   d9fb4:	fbb6 f4f4 	udiv	r4, r6, r4
   d9fb8:	bf34      	ite	cc
   d9fba:	2602      	movcc	r6, #2
   d9fbc:	f06f 0609 	mvncs.w	r6, #9
   d9fc0:	4416      	add	r6, r2
   d9fc2:	f44f 72c8 	mov.w	r2, #400	; 0x190
   d9fc6:	fb02 0505 	mla	r5, r2, r5, r0
   d9fca:	1c5f      	adds	r7, r3, #1
   d9fcc:	2e01      	cmp	r6, #1
   d9fce:	bf98      	it	ls
   d9fd0:	3501      	addls	r5, #1
   d9fd2:	f5b3 7f99 	cmp.w	r3, #306	; 0x132
   d9fd6:	eba7 0704 	sub.w	r7, r7, r4
   d9fda:	d302      	bcc.n	d9fe2 <gmtime_r+0xe2>
   d9fdc:	f5a3 7299 	sub.w	r2, r3, #306	; 0x132
   d9fe0:	e014      	b.n	da00c <gmtime_r+0x10c>
   d9fe2:	0782      	lsls	r2, r0, #30
   d9fe4:	d105      	bne.n	d9ff2 <gmtime_r+0xf2>
   d9fe6:	2464      	movs	r4, #100	; 0x64
   d9fe8:	fbb0 f2f4 	udiv	r2, r0, r4
   d9fec:	fb04 0212 	mls	r2, r4, r2, r0
   d9ff0:	b94a      	cbnz	r2, da006 <gmtime_r+0x106>
   d9ff2:	f44f 72c8 	mov.w	r2, #400	; 0x190
   d9ff6:	fbb0 f4f2 	udiv	r4, r0, r2
   d9ffa:	fb02 0014 	mls	r0, r2, r4, r0
   d9ffe:	fab0 f280 	clz	r2, r0
   da002:	0952      	lsrs	r2, r2, #5
   da004:	e000      	b.n	da008 <gmtime_r+0x108>
   da006:	2201      	movs	r2, #1
   da008:	333b      	adds	r3, #59	; 0x3b
   da00a:	441a      	add	r2, r3
   da00c:	f2a5 756c 	subw	r5, r5, #1900	; 0x76c
   da010:	2300      	movs	r3, #0
   da012:	61ca      	str	r2, [r1, #28]
   da014:	614d      	str	r5, [r1, #20]
   da016:	610e      	str	r6, [r1, #16]
   da018:	60cf      	str	r7, [r1, #12]
   da01a:	620b      	str	r3, [r1, #32]
   da01c:	4608      	mov	r0, r1
   da01e:	bdf0      	pop	{r4, r5, r6, r7, pc}
   da020:	00015180 	.word	0x00015180
   da024:	fffdc54f 	.word	0xfffdc54f
   da028:	00023ab1 	.word	0x00023ab1
   da02c:	00023ab0 	.word	0x00023ab0

000da030 <__env_lock>:
   da030:	4770      	bx	lr

000da032 <__env_unlock>:
   da032:	4770      	bx	lr

000da034 <dynalib_user>:
   da034:	401d 000d 4059 000d 4085 000d 4089 000d     .@..Y@...@...@..
   da044:	0000 0000                                   ....

000da048 <_ZTVN8particle13__SPISettingsE>:
	...
   da050:	40f9 000d                                   .@..

000da054 <_ZTV4File>:
	...
   da05c:	40f5 000d 4183 000d 41e1 000d 4151 000d     .@...A...A..QA..
   da06c:	40c9 000d 4163 000d 415d 000d 4157 000d     .@..cA..]A..WA..
   da07c:	ff7e 0006 0001 0000 ef00 6564 6166 6c75     ~.........defaul
   da08c:	2074 4d00 4253 4c00 4253 3c00 5053 5349     t .MSB.LSB.<SPIS
   da09c:	7465 6974 676e 2073 6564 6166 6c75 3e74     ettings default>
   da0ac:	3c00 5053 5349 7465 6974 676e 2073 7325     .<SPISettings %s
   da0bc:	6c25 2075 7325 4d20 444f 2545 3e64 5300     %lu %s MODE%d>.S
   da0cc:	2044 6e69 7469 6169 696c 617a 6974 6e6f     D initialization
   da0dc:	6620 6961 656c 2164 5300 6c44 676f 6920      failed!.SDlog i
   da0ec:	696e 0074 4644 6c50 7961 7265 6920 696e     nit.DFPlayer ini
   da0fc:	2074 6166 6c69 6465 4400 5046 616c 6579     t failed.DFPlaye
   da10c:	2072 6e69 7469 4900 696e 6974 6c61 7a69     r init.Initializ
   da11c:	7461 6f69 206e 6966 696e 6873 6465 6300     ation finished.c
   da12c:	6e6f 656e 7463 6e69 2067 6f74 4d20 5451     onnecting to MQT
   da13c:	2054 2e2e 002e 6572 7274 6979 676e 4d20     T ....retrying M
   da14c:	5451 2054 6f63 6e6e 6365 6974 6e6f 6920     QTT connection i
   da15c:	206e 2035 6573 6f63 646e 2e73 2e2e 4d00     n 5 seconds....M
   da16c:	5451 2054 6f63 6e6e 6365 6574 2164 4400     QTT connected!.D
   da17c:	7461 4c61 676f 632e 7673 4100 7269 5120     ataLog.csv.Air Q
   da18c:	6175 696c 7974 7720 7261 696e 676e 202e     uality warning. 
   da19c:	5141 7220 6165 3a64 2520 2069 000a 6941     AQ read: %i ..Ai
   da1ac:	2072 7551 6c61 7469 2079 6552 6461 203a     r Quality Read: 
   da1bc:	6925 7420 6d69 7365 6174 706d 203a 7325     %i timestamp: %s
   da1cc:	0a20 4100 2051 7277 7469 2065 7265 6f72      ..AQ write erro
   da1dc:	0072 514d 392d 7720 7261 696e 676e 202e     r.MQ-9 warning. 
   da1ec:	514d 392d 7220 6165 3a64 2520 2069 000a     MQ-9 read: %i ..
   da1fc:	514d 392d 7720 6972 6574 6520 7272 726f     MQ-9 write error
   da20c:	6e00 6d6f 6e69 6c61 7220 6165 7364 202e     .nominal reads. 
   da21c:	514d 3a39 2520 2069 5141 203a 6925 5420     MQ9: %i AQ: %i T
   da22c:	6d65 6570 6172 7574 6572 203a 000a 6f6e     emperature: ..no
   da23c:	696d 616e 206c 6572 6461 6e69 7367 202e     minal readings. 
   da24c:	6f6e 6874 6e69 2067 6f74 7220 6365 726f     nothing to recor
   da25c:	0064 6f6e 696d 616e 206c 6572 6461 6e69     d.nominal readin
   da26c:	7367 7720 6972 6574 6520 7272 726f 002e     gs write error..
   da27c:	4144 474e 5245 4920 4d4d 4e49 4e41 2e54     DANGER IMMINANT.
   da28c:	4d20 2d51 3a39 2520 2069 5141 203a 6925      MQ-9: %i AQ: %i
   da29c:	5420 6d65 3a70 2520 2069 000a 6948 6867      Temp: %i ..High
   da2ac:	4420 6e61 6567 2e72 4d20 2d51 3a39 2520      Danger. MQ-9: %
   da2bc:	2069 5141 203a 6925 5420 6d65 2070 6925     i AQ: %i Temp %i
   da2cc:	0a20 4800 6769 2068 6164 676e 7265 7720      ..High danger w
   da2dc:	6972 6574 6520 7272 726f 002e 616d 7275     rite error..maur
   da2ec:	6369 6f69 3976 0039 6f69 612e 6164 7266     iciov99.io.adafr
   da2fc:	6975 2e74 6f63 006d 6961 5f6f 4676 4577     uit.com.aio_vFwE
   da30c:	3936 3646 4d56 6458 4e4d 416b 4452 7039     69F6VMXdMNkARD9p
   da31c:	4943 6355 6642 4968 6d00 7561 6972 6963     CIUcBfhI.maurici
   da32c:	766f 3939 662f 6565 7364 532f 616d 7472     ov99/feeds/Smart
   da33c:	485f 6c65 656d 5f74 4d42 0045 616d 7275     _Helmet_BME.maur
   da34c:	6369 6f69 3976 2f39 6566 6465 2f73 6d53     iciov99/feeds/Sm
   da35c:	7261 5f74 6548 6d6c 7465 4d5f 2d51 0039     art_Helmet_MQ-9.
   da36c:	616d 7275 6369 6f69 3976 2f39 6566 6465     mauriciov99/feed
   da37c:	2f73 6d53 7261 5f74 6548 6d6c 7465 415f     s/Smart_Helmet_A
   da38c:	7269 7551 6c61 7469 0079 0000 c000 4001     irQuality......@
   da39c:	1000 4002 2000 4002                         ...@. .@

000da3a4 <CSWTCH.65>:
   da3a4:	012c 0000 0018 0000 01f4 0000 012c 0000     ,...........,...
   da3b4:	0050 0000                                   P...

000da3b8 <_ZTV19Adafruit_MQTT_SPARK>:
	...
   da3c0:	40f7 000d 4921 000d 5511 000d 55bd 000d     .@..!I...U...U..
   da3d0:	55ef 000d 5525 000d 5565 000d               .U..%U..eU..

000da3dc <_ZTV13Adafruit_MQTT>:
	...
   da3ec:	40a5 000d 40a5 000d 40a5 000d 40a5 000d     .@...@...@...@..
   da3fc:	40a5 000d                                   .@..

000da400 <CSWTCH.52>:
   da400:	a463 000d a477 000d a447 000d a489 000d     c...w...G.......
   da410:	a4ce 000d a513 000d a533 000d a566 000d     ........3...f...
   da420:	a580 000d a5b7 000d 5b20 7830 3000 5d00     ........ [0x.0.]
   da430:	202c 0a00 0009 7244 706f 6570 2064 2061     , ....Dropped a 
   da440:	6170 6b63 7465 5500 6b6e 6f6e 6e77 6520     packet.Unknown e
   da450:	7272 726f 4d00 5451 0054 2525 6425 252e     rror.MQTT.%%%d.%
   da460:	6664 4600 6961 656c 2064 6f74 7320 6275     df.Failed to sub
   da470:	6373 6972 6562 4300 6e6f 656e 7463 6f69     scribe.Connectio
   da480:	206e 6166 6c69 6465 5400 6568 5320 7265     n failed.The Ser
   da490:	6576 2072 6f64 7365 6e20 746f 7320 7075     ver does not sup
   da4a0:	6f70 7472 7420 6568 6c20 7665 6c65 6f20     port the level o
   da4b0:	2066 6874 2065 514d 5454 7020 6f72 6f74     f the MQTT proto
   da4c0:	6f63 206c 6572 7571 7365 6574 0064 6854     col requested.Th
   da4d0:	2065 6c43 6569 746e 6920 6564 746e 6669     e Client identif
   da4e0:	6569 2072 7369 6320 726f 6572 7463 5520     ier is correct U
   da4f0:	4654 382d 6220 7475 6e20 746f 6120 6c6c     TF-8 but not all
   da500:	776f 6465 6220 2079 6874 2065 6553 7672     owed by the Serv
   da510:	7265 5400 6568 4d20 5451 2054 6573 7672     er.The MQTT serv
   da520:	6369 2065 7369 7520 616e 6176 6c69 6261     ice is unavailab
   da530:	656c 5400 6568 6420 7461 2061 6e69 7420     le.The data in t
   da540:	6568 7520 6573 2072 616e 656d 6f20 2072     he user name or 
   da550:	6170 7373 6f77 6472 6920 2073 616d 666c     password is malf
   da560:	726f 656d 0064 6f4e 2074 7561 6874 726f     ormed.Not author
   da570:	7a69 6465 7420 206f 6f63 6e6e 6365 0074     ized to connect.
   da580:	7845 6563 6465 6465 7220 6365 6e6f 656e     Exceeded reconne
   da590:	7463 7220 7461 2065 696c 696d 2e74 5020     ct rate limit. P
   da5a0:	656c 7361 2065 7274 2079 6761 6961 206e     lease try again 
   da5b0:	616c 6574 2e72 5900 756f 6820 7661 2065     later..You have 
   da5c0:	6562 6e65 6220 6e61 656e 2064 7266 6d6f     been banned from
   da5d0:	6320 6e6f 656e 7463 6e69 2e67 5020 656c      connecting. Ple
   da5e0:	7361 2065 6f63 746e 6361 2074 6874 2065     ase contact the 
   da5f0:	514d 5454 7320 7265 6576 2072 6461 696d     MQTT server admi
   da600:	696e 7473 6172 6f74 2072 6f66 2072 6f6d     nistrator for mo
   da610:	6572 6420 7465 6961 736c 002e               re details..

000da61c <_ZTVN5spark13EthernetClassE>:
	...
   da624:	78fb 000d 78f1 000d 78e7 000d 78dd 000d     .x...x...x...x..
   da634:	78d1 000d 78c5 000d 78b9 000d 78b1 000d     .x...x...x...x..
   da644:	78a7 000d 789d 000d 8cad 000d               .x...x......

000da650 <_ZN12_GLOBAL__N_1L14clock_divisorsE>:
   da650:	0800 1810 2820 3830 6162 6475 5300 7265     .... (08baud.Ser
   da660:	6169 006c 6553 6972 6c61 0031 7974 6570     ial.Serial1.type
   da670:	7000 7261 6d61 6300 646d 6900 0064 6e68     .param.cmd.id.hn
   da680:	0064 7473 6d72 6600 6c69 0074 766c 006c     d.strm.filt.lvl.
   da690:	6461 4864 6e61 6c64 7265 7200 6d65 766f     addHandler.remov
   da6a0:	4865 6e61 6c64 7265 6500 756e 486d 6e61     eHandler.enumHan
   da6b0:	6c64 7265 0073 534a 4e4f 7453 6572 6d61     dlers.JSONStream
   da6c0:	6f4c 4867 6e61 6c64 7265 6100 7070 2500     LogHandler.app.%
   da6d0:	3130 7530 0020 205d 2800 3a29 0020 5b20     010u .] .(): . [
   da6e0:	6300 646f 2065 203d 2500 0069 6564 6174     .code = .%i.deta
   da6f0:	6c69 2073 203d 0d00 000a 6e6c 6600 006e     ils = ....ln.fn.
   da700:	6f63 6564 6400 7465 6961 006c 6f6e 656e     code.detail.none
   da710:	7400 6172 6563 6900 666e 006f 6177 6e72     .trace.info.warn
   da720:	7000 6e61 6369 6100 6c6c 2500 302b 6433     .panic.all.%+03d
   da730:	253a 3230 0075 5925 252d 2d6d 6425 2554     :%02u.%Y-%m-%dT%
   da740:	3a48 4d25 253a 2553 007a 7361 7463 6d69     H:%M:%S%z.asctim
   da750:	0065 0000                                   e...

000da754 <_ZTV9IPAddress>:
	...
   da75c:	8041 000d 8031 000d 8033 000d               A...1...3...

000da768 <_ZTV9USBSerial>:
	...
   da770:	8145 000d 8195 000d 81a3 000d 7ca1 000d     E............|..
   da780:	8181 000d 8147 000d 815d 000d 818f 000d     ....G...].......
   da790:	8173 000d 8141 000d                         s...A...

000da798 <_ZTV11USARTSerial>:
	...
   da7a0:	82a5 000d 82f5 000d 8303 000d 7ca1 000d     .............|..
   da7b0:	82b9 000d 82db 000d 82c7 000d 82ef 000d     ................
   da7c0:	82a7 000d 82ab 000d                         ........

000da7c8 <_ZTV7TwoWire>:
	...
   da7d0:	83b5 000d 83ff 000d 83d7 000d 83b7 000d     ................
   da7e0:	83df 000d 83e7 000d 83ef 000d 83f7 000d     ................

000da7f0 <_ZTVN5spark9MeshClassE>:
	...
   da7f8:	851b 000d 8511 000d 8507 000d 84fd 000d     ................
   da808:	84f1 000d 84e5 000d 84d9 000d 84d1 000d     ................
   da818:	84c7 000d 84bd 000d 8cad 000d               ............

000da824 <_ZTVSt19_Sp_counted_deleterIPN9TCPClient4DataENSt12__shared_ptrIS1_LN9__gnu_cxx12_Lock_policyE0EE8_DeleterISaIS1_EEES8_LS5_0EE>:
	...
   da82c:	86c1 000d 86c7 000d 8baf 000d 86d5 000d     ................
   da83c:	86c3 000d                                   ....

000da840 <_ZTV9TCPClient>:
	...
   da848:	41ad 000d 41f9 000d 8639 000d 8653 000d     .A...A..9...S...
   da858:	8a55 000d 87a7 000d 8779 000d 867d 000d     U.......y...}...
   da868:	8931 000d 882d 000d 87db 000d 8a25 000d     1...-.......%...
   da878:	867f 000d 86b7 000d 8665 000d 86d9 000d     ........e.......
   da888:	8759 000d 6977 6972 676e 7200 6365 2076     Y...wiring.recv 
   da898:	7265 6f72 2072 203d 6425 0000               error = %d..

000da8a4 <_ZTVN5spark9WiFiClassE>:
	...
   da8ac:	8c25 000d 8c1b 000d 8c11 000d 8bc7 000d     %...............
   da8bc:	8c05 000d 8bf9 000d 8bed 000d 8be5 000d     ................
   da8cc:	8bdb 000d 8bd1 000d 8cad 000d               ............

000da8d8 <_ZTVN5spark12NetworkClassE>:
	...
   da8e0:	8c45 000d 8c4f 000d 8c59 000d 8c63 000d     E...O...Y...c...
   da8f0:	8c6d 000d 8c79 000d 8c85 000d 8c91 000d     m...y...........
   da900:	8c99 000d 8ca3 000d 8cad 000d               ............

000da90c <_ZSt7nothrow>:
	...

000da90d <day_name.4725>:
   da90d:	7553 4d6e 6e6f 7554 5765 6465 6854 4675     SunMonTueWedThuF
   da91d:	6972 6153 4a74                                   riSat

000da922 <mon_name.4726>:
   da922:	614a 466e 6265 614d 4172 7270 614d 4a79     JanFebMarAprMayJ
   da932:	6e75 754a 416c 6775 6553 4f70 7463 6f4e     unJulAugSepOctNo
   da942:	4476 6365 2e25 7333 2520 332e 2573 6433     vDec%.3s %.3s%3d
   da952:	2520 322e 3a64 2e25 6432 253a 322e 2064      %.2d:%.2d:%.2d 
   da962:	6425 000a                                   %d..

000da966 <_ctype_>:
   da966:	2000 2020 2020 2020 2020 2828 2828 2028     .         ((((( 
   da976:	2020 2020 2020 2020 2020 2020 2020 2020                     
   da986:	8820 1010 1010 1010 1010 1010 1010 1010      ...............
   da996:	0410 0404 0404 0404 0404 1004 1010 1010     ................
   da9a6:	1010 4141 4141 4141 0101 0101 0101 0101     ..AAAAAA........
   da9b6:	0101 0101 0101 0101 0101 0101 1010 1010     ................
   da9c6:	1010 4242 4242 4242 0202 0202 0202 0202     ..BBBBBB........
   da9d6:	0202 0202 0202 0202 0202 0202 1010 1010     ................
   da9e6:	0020 0000 0000 0000 0000 0000 0000 0000      ...............
	...

000daa68 <__sf_fake_stdin>:
	...

000daa88 <__sf_fake_stdout>:
	...

000daaa8 <__sf_fake_stderr>:
	...
   daac8:	0043 0000                                   C...

000daacc <__month_lengths>:
   daacc:	001f 0000 001c 0000 001f 0000 001e 0000     ................
   daadc:	001f 0000 001e 0000 001f 0000 001f 0000     ................
   daaec:	001e 0000 001f 0000 001e 0000 001f 0000     ................
   daafc:	001f 0000 001d 0000 001f 0000 001e 0000     ................
   dab0c:	001f 0000 001e 0000 001f 0000 001f 0000     ................
   dab1c:	001e 0000 001f 0000 001e 0000 001f 0000     ................
   dab2c:	5a54 4700 544d 2500 3031 5e5b 2d30 2c39     TZ.GMT.%10[^0-9,
   dab3c:	2d2b 255d 006e 254d 7568 6e25 252e 7568     +-]%n.M%hu%n.%hu
   dab4c:	6e25 252e 7568 6e25 2f00 6825 2575 3a6e     %n.%hu%n./%hu%n:
   dab5c:	6825 2575 3a6e 6825 2575 006e               %hu%n:%hu%n.

000dab68 <link_const_variable_data_end>:
   dab68:	000d4931 	.word	0x000d4931
   dab6c:	000d4ff7 	.word	0x000d4ff7
   dab70:	000d54f5 	.word	0x000d54f5
   dab74:	000d5509 	.word	0x000d5509
   dab78:	000d550d 	.word	0x000d550d
   dab7c:	000d560d 	.word	0x000d560d
   dab80:	000d5931 	.word	0x000d5931
   dab84:	000d5bd3 	.word	0x000d5bd3
   dab88:	000d5bd7 	.word	0x000d5bd7
   dab8c:	000d5bdb 	.word	0x000d5bdb
   dab90:	000d6205 	.word	0x000d6205
   dab94:	000d6209 	.word	0x000d6209
   dab98:	000d620d 	.word	0x000d620d
   dab9c:	000d6211 	.word	0x000d6211
   daba0:	000d68dd 	.word	0x000d68dd
   daba4:	000d6901 	.word	0x000d6901
   daba8:	000d6905 	.word	0x000d6905
   dabac:	000d6c29 	.word	0x000d6c29
   dabb0:	000d6c2d 	.word	0x000d6c2d
   dabb4:	000d6c31 	.word	0x000d6c31
   dabb8:	000d716b 	.word	0x000d716b
   dabbc:	000d716f 	.word	0x000d716f
   dabc0:	000d7173 	.word	0x000d7173
   dabc4:	000d7219 	.word	0x000d7219
   dabc8:	000d7251 	.word	0x000d7251
   dabcc:	000d7905 	.word	0x000d7905
   dabd0:	000d7ac5 	.word	0x000d7ac5
   dabd4:	000d7c79 	.word	0x000d7c79
   dabd8:	000d7dbd 	.word	0x000d7dbd
   dabdc:	000d7eb5 	.word	0x000d7eb5
   dabe0:	000d7f05 	.word	0x000d7f05
   dabe4:	000d85e9 	.word	0x000d85e9
   dabe8:	000d8c31 	.word	0x000d8c31
   dabec:	000d8d79 	.word	0x000d8d79
   dabf0:	000d8f65 	.word	0x000d8f65
   dabf4:	000d8fe9 	.word	0x000d8fe9
   dabf8:	000d90ad 	.word	0x000d90ad
   dabfc:	000d9171 	.word	0x000d9171
